
./barn:	file format mach-o arm64

Disassembly of section __TEXT,__text:

0000000100001ba4 <_barn_create_array>:
100001ba4: d10143ff    	sub	sp, sp, #80
100001ba8: a90257f6    	stp	x22, x21, [sp, #32]
100001bac: a9034ff4    	stp	x20, x19, [sp, #48]
100001bb0: a9047bfd    	stp	x29, x30, [sp, #64]
100001bb4: aa0003f3    	mov	x19, x0
100001bb8: 90000040    	adrp	x0, 0x100009000 <_barn_create_array+0x34>
100001bbc: 912d1400    	add	x0, x0, #2885
100001bc0: 94001e1c    	bl	0x100009430 <_strlen+0x100009430>
100001bc4: 90000055    	adrp	x21, 0x100009000 <_barn_create_array+0x40>
100001bc8: 911ccab5    	add	x21, x21, #1842
100001bcc: 52800508    	mov	w8, #40
100001bd0: a90023f5    	stp	x21, x8, [sp]
100001bd4: 90000040    	adrp	x0, 0x100009000 <_barn_create_array+0x50>
100001bd8: 912ce800    	add	x0, x0, #2874
100001bdc: 94001e15    	bl	0x100009430 <_strlen+0x100009430>
100001be0: 90000048    	adrp	x8, 0x100009000 <_barn_create_array+0x5c>
100001be4: 911c8108    	add	x8, x8, #1824
100001be8: f90003e8    	str	x8, [sp]
100001bec: d0000040    	adrp	x0, 0x10000b000 <_barn_create_array+0x70>
100001bf0: 911b0000    	add	x0, x0, #1728
100001bf4: 94001e0f    	bl	0x100009430 <_strlen+0x100009430>
100001bf8: 52800020    	mov	w0, #1
100001bfc: 52800301    	mov	w1, #24
100001c00: 94001de8    	bl	0x1000093a0 <_strlen+0x1000093a0>
100001c04: b40001a0    	cbz	x0, 0x100001c38 <_barn_create_array+0x94>
100001c08: aa0003f4    	mov	x20, x0
100001c0c: a9007c13    	stp	x19, xzr, [x0]
100001c10: 52800020    	mov	w0, #1
100001c14: 52800101    	mov	w1, #8
100001c18: 94001de2    	bl	0x1000093a0 <_strlen+0x1000093a0>
100001c1c: f9000a80    	str	x0, [x20, #16]
100001c20: aa1403e0    	mov	x0, x20
100001c24: a9447bfd    	ldp	x29, x30, [sp, #64]
100001c28: a9434ff4    	ldp	x20, x19, [sp, #48]
100001c2c: a94257f6    	ldp	x22, x21, [sp, #32]
100001c30: 910143ff    	add	sp, sp, #80
100001c34: d65f03c0    	ret
100001c38: 528005e8    	mov	w8, #47
100001c3c: 90000049    	adrp	x9, 0x100009000 <_barn_create_array+0xb8>
100001c40: 911d1529    	add	x9, x9, #1861
100001c44: a90123e9    	stp	x9, x8, [sp, #16]
100001c48: 90000048    	adrp	x8, 0x100009000 <_barn_create_array+0xc4>
100001c4c: 911cfd08    	add	x8, x8, #1855
100001c50: a90057e8    	stp	x8, x21, [sp]
100001c54: d0000041    	adrp	x1, 0x10000b000 <_barn_codegen_expression_generate+0x10>
100001c58: 910ea421    	add	x1, x1, #937
100001c5c: 528000e0    	mov	w0, #7
100001c60: 94000354    	bl	0x1000029b0 <_barn_error_show>
100001c64: 52800020    	mov	w0, #1
100001c68: 94001dd1    	bl	0x1000093ac <_strlen+0x1000093ac>

0000000100001c6c <_barn_codegen_expression_generate>:
100001c6c: d10243ff    	sub	sp, sp, #144
100001c70: a9036ffc    	stp	x28, x27, [sp, #48]
100001c74: a90467fa    	stp	x26, x25, [sp, #64]
100001c78: a9055ff8    	stp	x24, x23, [sp, #80]
100001c7c: a90657f6    	stp	x22, x21, [sp, #96]
100001c80: a9074ff4    	stp	x20, x19, [sp, #112]
100001c84: a9087bfd    	stp	x29, x30, [sp, #128]
100001c88: f90013e0    	str	x0, [sp, #32]
100001c8c: f9402437    	ldr	x23, [x1, #72]
100001c90: 52800020    	mov	w0, #1
100001c94: 52800021    	mov	w1, #1
100001c98: 94001dc2    	bl	0x1000093a0 <_strlen+0x1000093a0>
100001c9c: b4002c80    	cbz	x0, 0x10000222c <_barn_codegen_expression_generate+0x5c0>
100001ca0: aa0003f4    	mov	x20, x0
100001ca4: 3900001f    	strb	wzr, [x0]
100001ca8: f90017e0    	str	x0, [sp, #40]
100001cac: f94006e8    	ldr	x8, [x23, #8]
100001cb0: b4002668    	cbz	x8, 0x10000217c <_barn_codegen_expression_generate+0x510>
100001cb4: d2800018    	mov	x24, #0
100001cb8: 5280001a    	mov	w26, #0
100001cbc: 5280041b    	mov	w27, #32
100001cc0: 5280053c    	mov	w28, #41
100001cc4: 52800519    	mov	w25, #40
100001cc8: 1400000d    	b	0x100001cfc <_barn_codegen_expression_generate+0x90>
100001ccc: f9400d21    	ldr	x1, [x9, #24]
100001cd0: f94013e0    	ldr	x0, [sp, #32]
100001cd4: 52800002    	mov	w2, #0
100001cd8: 52800003    	mov	w3, #0
100001cdc: 9400015d    	bl	0x100002250 <_barn_codegen_function_call>
100001ce0: aa0003e1    	mov	x1, x0
100001ce4: 9100a3e0    	add	x0, sp, #40
100001ce8: 940019fc    	bl	0x1000084d8 <_barn_append_string_to_allocated_string>
100001cec: 91000718    	add	x24, x24, #1
100001cf0: f94006e8    	ldr	x8, [x23, #8]
100001cf4: eb18011f    	cmp	x8, x24
100001cf8: 54002129    	b.ls	0x10000211c <_barn_codegen_expression_generate+0x4b0>
100001cfc: f9400ae8    	ldr	x8, [x23, #16]
100001d00: f8787914    	ldr	x20, [x8, x24, lsl  #3]
100001d04: a9402688    	ldp	x8, x9, [x20]
100001d08: a90027e8    	stp	x8, x9, [sp]
100001d0c: 90000040    	adrp	x0, 0x100009000 <_barn_codegen_expression_generate+0xc0>
100001d10: 91243000    	add	x0, x0, #2316
100001d14: 94001dc7    	bl	0x100009430 <_strlen+0x100009430>
100001d18: 93407f53    	sxtw	x19, w26
100001d1c: f9400e88    	ldr	x8, [x20, #24]
100001d20: eb13011f    	cmp	x8, x19
100001d24: 540005a0    	b.eq	0x100001dd8 <_barn_codegen_expression_generate+0x16c>
100001d28: 540002a2    	b.hs	0x100001d7c <_barn_codegen_expression_generate+0x110>
100001d2c: d280001a    	mov	x26, #0
100001d30: f94017f5    	ldr	x21, [sp, #40]
100001d34: b40000b5    	cbz	x21, 0x100001d48 <_barn_codegen_expression_generate+0xdc>
100001d38: aa1503e0    	mov	x0, x21
100001d3c: 94001dc6    	bl	0x100009454 <_strlen+0x100009454>
100001d40: aa0003f6    	mov	x22, x0
100001d44: 14000002    	b	0x100001d4c <_barn_codegen_expression_generate+0xe0>
100001d48: d2800016    	mov	x22, #0
100001d4c: 91000ac1    	add	x1, x22, #2
100001d50: aa1503e0    	mov	x0, x21
100001d54: 94001dba    	bl	0x10000943c <_strlen+0x10000943c>
100001d58: b4002340    	cbz	x0, 0x1000021c0 <_barn_codegen_expression_generate+0x554>
100001d5c: aa0003f5    	mov	x21, x0
100001d60: 7836681c    	strh	w28, [x0, x22]
100001d64: 9100075a    	add	x26, x26, #1
100001d68: f9400e88    	ldr	x8, [x20, #24]
100001d6c: cb080269    	sub	x9, x19, x8
100001d70: eb1a013f    	cmp	x9, x26
100001d74: 54fffe08    	b.hi	0x100001d34 <_barn_codegen_expression_generate+0xc8>
100001d78: 14000016    	b	0x100001dd0 <_barn_codegen_expression_generate+0x164>
100001d7c: eb13011f    	cmp	x8, x19
100001d80: 540002a9    	b.ls	0x100001dd4 <_barn_codegen_expression_generate+0x168>
100001d84: d280001a    	mov	x26, #0
100001d88: f94017f5    	ldr	x21, [sp, #40]
100001d8c: b40000b5    	cbz	x21, 0x100001da0 <_barn_codegen_expression_generate+0x134>
100001d90: aa1503e0    	mov	x0, x21
100001d94: 94001db0    	bl	0x100009454 <_strlen+0x100009454>
100001d98: aa0003f6    	mov	x22, x0
100001d9c: 14000002    	b	0x100001da4 <_barn_codegen_expression_generate+0x138>
100001da0: d2800016    	mov	x22, #0
100001da4: 91000ac1    	add	x1, x22, #2
100001da8: aa1503e0    	mov	x0, x21
100001dac: 94001da4    	bl	0x10000943c <_strlen+0x10000943c>
100001db0: b4002080    	cbz	x0, 0x1000021c0 <_barn_codegen_expression_generate+0x554>
100001db4: aa0003f5    	mov	x21, x0
100001db8: 78366819    	strh	w25, [x0, x22]
100001dbc: 9100075a    	add	x26, x26, #1
100001dc0: f9400e88    	ldr	x8, [x20, #24]
100001dc4: cb130109    	sub	x9, x8, x19
100001dc8: eb1a013f    	cmp	x9, x26
100001dcc: 54fffe08    	b.hi	0x100001d8c <_barn_codegen_expression_generate+0x120>
100001dd0: f90017f5    	str	x21, [sp, #40]
100001dd4: aa0803fa    	mov	x26, x8
100001dd8: f9400289    	ldr	x9, [x20]
100001ddc: b4000229    	cbz	x9, 0x100001e20 <_barn_codegen_expression_generate+0x1b4>
100001de0: f9400128    	ldr	x8, [x9]
100001de4: b40001e8    	cbz	x8, 0x100001e20 <_barn_codegen_expression_generate+0x1b4>
100001de8: 3940452a    	ldrb	w10, [x9, #17]
100001dec: 3400010a    	cbz	w10, 0x100001e0c <_barn_codegen_expression_generate+0x1a0>
100001df0: f9400d21    	ldr	x1, [x9, #24]
100001df4: f94013e0    	ldr	x0, [sp, #32]
100001df8: 52800002    	mov	w2, #0
100001dfc: 52800003    	mov	w3, #0
100001e00: 94000114    	bl	0x100002250 <_barn_codegen_function_call>
100001e04: aa0003e1    	mov	x1, x0
100001e08: 14000004    	b	0x100001e18 <_barn_codegen_expression_generate+0x1ac>
100001e0c: 3940412a    	ldrb	w10, [x9, #16]
100001e10: 3400066a    	cbz	w10, 0x100001edc <_barn_codegen_expression_generate+0x270>
100001e14: f9400101    	ldr	x1, [x8]
100001e18: 9100a3e0    	add	x0, sp, #40
100001e1c: 940019af    	bl	0x1000084d8 <_barn_append_string_to_allocated_string>
100001e20: b9401288    	ldr	w8, [x20, #16]
100001e24: 34000488    	cbz	w8, 0x100001eb4 <_barn_codegen_expression_generate+0x248>
100001e28: f94017f5    	ldr	x21, [sp, #40]
100001e2c: b40000b5    	cbz	x21, 0x100001e40 <_barn_codegen_expression_generate+0x1d4>
100001e30: aa1503e0    	mov	x0, x21
100001e34: 94001d88    	bl	0x100009454 <_strlen+0x100009454>
100001e38: aa0003f6    	mov	x22, x0
100001e3c: 14000002    	b	0x100001e44 <_barn_codegen_expression_generate+0x1d8>
100001e40: d2800016    	mov	x22, #0
100001e44: 91000ac1    	add	x1, x22, #2
100001e48: aa1503e0    	mov	x0, x21
100001e4c: 94001d7c    	bl	0x10000943c <_strlen+0x10000943c>
100001e50: b4001b80    	cbz	x0, 0x1000021c0 <_barn_codegen_expression_generate+0x554>
100001e54: 7836681b    	strh	w27, [x0, x22]
100001e58: f90017e0    	str	x0, [sp, #40]
100001e5c: b9401288    	ldr	w8, [x20, #16]
100001e60: 51002108    	sub	w8, w8, #8
100001e64: 7100111f    	cmp	w8, #4
100001e68: 54001ca2    	b.hs	0x1000021fc <_barn_codegen_expression_generate+0x590>
100001e6c: f0000049    	adrp	x9, 0x10000c000 <_barn_codegen_expression_generate+0x22c>
100001e70: 91030129    	add	x9, x9, #192
100001e74: f8685921    	ldr	x1, [x9, w8, uxtw  #3]
100001e78: 9100a3e0    	add	x0, sp, #40
100001e7c: 94001997    	bl	0x1000084d8 <_barn_append_string_to_allocated_string>
100001e80: f94017f5    	ldr	x21, [sp, #40]
100001e84: b40000b5    	cbz	x21, 0x100001e98 <_barn_codegen_expression_generate+0x22c>
100001e88: aa1503e0    	mov	x0, x21
100001e8c: 94001d72    	bl	0x100009454 <_strlen+0x100009454>
100001e90: aa0003f6    	mov	x22, x0
100001e94: 14000002    	b	0x100001e9c <_barn_codegen_expression_generate+0x230>
100001e98: d2800016    	mov	x22, #0
100001e9c: 91000ac1    	add	x1, x22, #2
100001ea0: aa1503e0    	mov	x0, x21
100001ea4: 94001d66    	bl	0x10000943c <_strlen+0x10000943c>
100001ea8: b40018c0    	cbz	x0, 0x1000021c0 <_barn_codegen_expression_generate+0x554>
100001eac: 7836681b    	strh	w27, [x0, x22]
100001eb0: f90017e0    	str	x0, [sp, #40]
100001eb4: f9400689    	ldr	x9, [x20, #8]
100001eb8: b4fff1a9    	cbz	x9, 0x100001cec <_barn_codegen_expression_generate+0x80>
100001ebc: f9400128    	ldr	x8, [x9]
100001ec0: b4fff168    	cbz	x8, 0x100001cec <_barn_codegen_expression_generate+0x80>
100001ec4: 3940452a    	ldrb	w10, [x9, #17]
100001ec8: 35fff02a    	cbnz	w10, 0x100001ccc <_barn_codegen_expression_generate+0x60>
100001ecc: 3940412a    	ldrb	w10, [x9, #16]
100001ed0: 3400018a    	cbz	w10, 0x100001f00 <_barn_codegen_expression_generate+0x294>
100001ed4: f9400101    	ldr	x1, [x8]
100001ed8: 17ffff83    	b	0x100001ce4 <_barn_codegen_expression_generate+0x78>
100001edc: f9400529    	ldr	x9, [x9, #8]
100001ee0: 3940492a    	ldrb	w10, [x9, #18]
100001ee4: 3400020a    	cbz	w10, 0x100001f24 <_barn_codegen_expression_generate+0x2b8>
100001ee8: f94017f5    	ldr	x21, [sp, #40]
100001eec: b40003d5    	cbz	x21, 0x100001f64 <_barn_codegen_expression_generate+0x2f8>
100001ef0: aa1503e0    	mov	x0, x21
100001ef4: 94001d58    	bl	0x100009454 <_strlen+0x100009454>
100001ef8: aa0003f6    	mov	x22, x0
100001efc: 1400001b    	b	0x100001f68 <_barn_codegen_expression_generate+0x2fc>
100001f00: f9400529    	ldr	x9, [x9, #8]
100001f04: 3940492a    	ldrb	w10, [x9, #18]
100001f08: 340001ea    	cbz	w10, 0x100001f44 <_barn_codegen_expression_generate+0x2d8>
100001f0c: f94017f5    	ldr	x21, [sp, #40]
100001f10: b40005f5    	cbz	x21, 0x100001fcc <_barn_codegen_expression_generate+0x360>
100001f14: aa1503e0    	mov	x0, x21
100001f18: 94001d4f    	bl	0x100009454 <_strlen+0x100009454>
100001f1c: aa0003f6    	mov	x22, x0
100001f20: 1400002c    	b	0x100001fd0 <_barn_codegen_expression_generate+0x364>
100001f24: 39405529    	ldrb	w9, [x9, #21]
100001f28: 34fff769    	cbz	w9, 0x100001e14 <_barn_codegen_expression_generate+0x1a8>
100001f2c: f94017f5    	ldr	x21, [sp, #40]
100001f30: b4000835    	cbz	x21, 0x100002034 <_barn_codegen_expression_generate+0x3c8>
100001f34: aa1503e0    	mov	x0, x21
100001f38: 94001d47    	bl	0x100009454 <_strlen+0x100009454>
100001f3c: aa0003f6    	mov	x22, x0
100001f40: 1400003e    	b	0x100002038 <_barn_codegen_expression_generate+0x3cc>
100001f44: 39405529    	ldrb	w9, [x9, #21]
100001f48: 34fffc69    	cbz	w9, 0x100001ed4 <_barn_codegen_expression_generate+0x268>
100001f4c: f94017f5    	ldr	x21, [sp, #40]
100001f50: b4000af5    	cbz	x21, 0x1000020ac <_barn_codegen_expression_generate+0x440>
100001f54: aa1503e0    	mov	x0, x21
100001f58: 94001d3f    	bl	0x100009454 <_strlen+0x100009454>
100001f5c: aa0003f6    	mov	x22, x0
100001f60: 14000054    	b	0x1000020b0 <_barn_codegen_expression_generate+0x444>
100001f64: d2800016    	mov	x22, #0
100001f68: 91000ac1    	add	x1, x22, #2
100001f6c: aa1503e0    	mov	x0, x21
100001f70: 94001d33    	bl	0x10000943c <_strlen+0x10000943c>
100001f74: b4001260    	cbz	x0, 0x1000021c0 <_barn_codegen_expression_generate+0x554>
100001f78: 52800448    	mov	w8, #34
100001f7c: 78366808    	strh	w8, [x0, x22]
100001f80: f90017e0    	str	x0, [sp, #40]
100001f84: f9400288    	ldr	x8, [x20]
100001f88: f9400108    	ldr	x8, [x8]
100001f8c: f9400101    	ldr	x1, [x8]
100001f90: 9100a3e0    	add	x0, sp, #40
100001f94: 94001951    	bl	0x1000084d8 <_barn_append_string_to_allocated_string>
100001f98: f94017f5    	ldr	x21, [sp, #40]
100001f9c: b40000b5    	cbz	x21, 0x100001fb0 <_barn_codegen_expression_generate+0x344>
100001fa0: aa1503e0    	mov	x0, x21
100001fa4: 94001d2c    	bl	0x100009454 <_strlen+0x100009454>
100001fa8: aa0003f6    	mov	x22, x0
100001fac: 14000002    	b	0x100001fb4 <_barn_codegen_expression_generate+0x348>
100001fb0: d2800016    	mov	x22, #0
100001fb4: 91000ac1    	add	x1, x22, #2
100001fb8: aa1503e0    	mov	x0, x21
100001fbc: 94001d20    	bl	0x10000943c <_strlen+0x10000943c>
100001fc0: b4001000    	cbz	x0, 0x1000021c0 <_barn_codegen_expression_generate+0x554>
100001fc4: 52800448    	mov	w8, #34
100001fc8: 14000034    	b	0x100002098 <_barn_codegen_expression_generate+0x42c>
100001fcc: d2800016    	mov	x22, #0
100001fd0: 91000ac1    	add	x1, x22, #2
100001fd4: aa1503e0    	mov	x0, x21
100001fd8: 94001d19    	bl	0x10000943c <_strlen+0x10000943c>
100001fdc: b4000f20    	cbz	x0, 0x1000021c0 <_barn_codegen_expression_generate+0x554>
100001fe0: 52800448    	mov	w8, #34
100001fe4: 78366808    	strh	w8, [x0, x22]
100001fe8: f90017e0    	str	x0, [sp, #40]
100001fec: f9400688    	ldr	x8, [x20, #8]
100001ff0: f9400108    	ldr	x8, [x8]
100001ff4: f9400101    	ldr	x1, [x8]
100001ff8: 9100a3e0    	add	x0, sp, #40
100001ffc: 94001937    	bl	0x1000084d8 <_barn_append_string_to_allocated_string>
100002000: f94017f5    	ldr	x21, [sp, #40]
100002004: b40000b5    	cbz	x21, 0x100002018 <_barn_codegen_expression_generate+0x3ac>
100002008: aa1503e0    	mov	x0, x21
10000200c: 94001d12    	bl	0x100009454 <_strlen+0x100009454>
100002010: aa0003f6    	mov	x22, x0
100002014: 14000002    	b	0x10000201c <_barn_codegen_expression_generate+0x3b0>
100002018: d2800016    	mov	x22, #0
10000201c: 91000ac1    	add	x1, x22, #2
100002020: aa1503e0    	mov	x0, x21
100002024: 94001d06    	bl	0x10000943c <_strlen+0x10000943c>
100002028: b4000cc0    	cbz	x0, 0x1000021c0 <_barn_codegen_expression_generate+0x554>
10000202c: 52800448    	mov	w8, #34
100002030: 14000038    	b	0x100002110 <_barn_codegen_expression_generate+0x4a4>
100002034: d2800016    	mov	x22, #0
100002038: 91000ac1    	add	x1, x22, #2
10000203c: aa1503e0    	mov	x0, x21
100002040: 94001cff    	bl	0x10000943c <_strlen+0x10000943c>
100002044: b4000be0    	cbz	x0, 0x1000021c0 <_barn_codegen_expression_generate+0x554>
100002048: 528004e8    	mov	w8, #39
10000204c: 78366808    	strh	w8, [x0, x22]
100002050: f90017e0    	str	x0, [sp, #40]
100002054: f9400288    	ldr	x8, [x20]
100002058: f9400108    	ldr	x8, [x8]
10000205c: f9400101    	ldr	x1, [x8]
100002060: 9100a3e0    	add	x0, sp, #40
100002064: 9400191d    	bl	0x1000084d8 <_barn_append_string_to_allocated_string>
100002068: f94017f5    	ldr	x21, [sp, #40]
10000206c: b40000b5    	cbz	x21, 0x100002080 <_barn_codegen_expression_generate+0x414>
100002070: aa1503e0    	mov	x0, x21
100002074: 94001cf8    	bl	0x100009454 <_strlen+0x100009454>
100002078: aa0003f6    	mov	x22, x0
10000207c: 14000002    	b	0x100002084 <_barn_codegen_expression_generate+0x418>
100002080: d2800016    	mov	x22, #0
100002084: 91000ac1    	add	x1, x22, #2
100002088: aa1503e0    	mov	x0, x21
10000208c: 94001cec    	bl	0x10000943c <_strlen+0x10000943c>
100002090: b4000980    	cbz	x0, 0x1000021c0 <_barn_codegen_expression_generate+0x554>
100002094: 528004e8    	mov	w8, #39
100002098: 78366808    	strh	w8, [x0, x22]
10000209c: f90017e0    	str	x0, [sp, #40]
1000020a0: b9401288    	ldr	w8, [x20, #16]
1000020a4: 35ffec28    	cbnz	w8, 0x100001e28 <_barn_codegen_expression_generate+0x1bc>
1000020a8: 17ffff83    	b	0x100001eb4 <_barn_codegen_expression_generate+0x248>
1000020ac: d2800016    	mov	x22, #0
1000020b0: 91000ac1    	add	x1, x22, #2
1000020b4: aa1503e0    	mov	x0, x21
1000020b8: 94001ce1    	bl	0x10000943c <_strlen+0x10000943c>
1000020bc: b4000820    	cbz	x0, 0x1000021c0 <_barn_codegen_expression_generate+0x554>
1000020c0: 528004e8    	mov	w8, #39
1000020c4: 78366808    	strh	w8, [x0, x22]
1000020c8: f90017e0    	str	x0, [sp, #40]
1000020cc: f9400688    	ldr	x8, [x20, #8]
1000020d0: f9400108    	ldr	x8, [x8]
1000020d4: f9400101    	ldr	x1, [x8]
1000020d8: 9100a3e0    	add	x0, sp, #40
1000020dc: 940018ff    	bl	0x1000084d8 <_barn_append_string_to_allocated_string>
1000020e0: f94017f5    	ldr	x21, [sp, #40]
1000020e4: b40000b5    	cbz	x21, 0x1000020f8 <_barn_codegen_expression_generate+0x48c>
1000020e8: aa1503e0    	mov	x0, x21
1000020ec: 94001cda    	bl	0x100009454 <_strlen+0x100009454>
1000020f0: aa0003f6    	mov	x22, x0
1000020f4: 14000002    	b	0x1000020fc <_barn_codegen_expression_generate+0x490>
1000020f8: d2800016    	mov	x22, #0
1000020fc: 91000ac1    	add	x1, x22, #2
100002100: aa1503e0    	mov	x0, x21
100002104: 94001cce    	bl	0x10000943c <_strlen+0x10000943c>
100002108: b40005c0    	cbz	x0, 0x1000021c0 <_barn_codegen_expression_generate+0x554>
10000210c: 528004e8    	mov	w8, #39
100002110: 78366808    	strh	w8, [x0, x22]
100002114: f90017e0    	str	x0, [sp, #40]
100002118: 17fffef5    	b	0x100001cec <_barn_codegen_expression_generate+0x80>
10000211c: aa1a03e8    	mov	x8, x26
100002120: f90003e8    	str	x8, [sp]
100002124: f0000020    	adrp	x0, 0x100009000 <_barn_codegen_expression_generate+0x4d4>
100002128: 91244c00    	add	x0, x0, #2323
10000212c: 94001cc1    	bl	0x100009430 <_strlen+0x100009430>
100002130: f94017f4    	ldr	x20, [sp, #40]
100002134: 7100075f    	cmp	w26, #1
100002138: 540002ab    	b.lt	0x10000218c <_barn_codegen_expression_generate+0x520>
10000213c: 52800535    	mov	w21, #41
100002140: b40000b4    	cbz	x20, 0x100002154 <_barn_codegen_expression_generate+0x4e8>
100002144: aa1403e0    	mov	x0, x20
100002148: 94001cc3    	bl	0x100009454 <_strlen+0x100009454>
10000214c: aa0003f3    	mov	x19, x0
100002150: 14000002    	b	0x100002158 <_barn_codegen_expression_generate+0x4ec>
100002154: d2800013    	mov	x19, #0
100002158: 91000a61    	add	x1, x19, #2
10000215c: aa1403e0    	mov	x0, x20
100002160: 94001cb7    	bl	0x10000943c <_strlen+0x10000943c>
100002164: b40002e0    	cbz	x0, 0x1000021c0 <_barn_codegen_expression_generate+0x554>
100002168: aa0003f4    	mov	x20, x0
10000216c: 78336815    	strh	w21, [x0, x19]
100002170: 7100075a    	subs	w26, w26, #1
100002174: 54fffe61    	b.ne	0x100002140 <_barn_codegen_expression_generate+0x4d4>
100002178: 14000005    	b	0x10000218c <_barn_codegen_expression_generate+0x520>
10000217c: f90003ff    	str	xzr, [sp]
100002180: f0000020    	adrp	x0, 0x100009000 <_barn_codegen_expression_generate+0x530>
100002184: 91244c00    	add	x0, x0, #2323
100002188: 94001caa    	bl	0x100009430 <_strlen+0x100009430>
10000218c: f90003f4    	str	x20, [sp]
100002190: b0000040    	adrp	x0, 0x10000b000 <_barn_codegen_expression_generate+0x548>
100002194: 911b0000    	add	x0, x0, #1728
100002198: 94001ca6    	bl	0x100009430 <_strlen+0x100009430>
10000219c: aa1403e0    	mov	x0, x20
1000021a0: a9487bfd    	ldp	x29, x30, [sp, #128]
1000021a4: a9474ff4    	ldp	x20, x19, [sp, #112]
1000021a8: a94657f6    	ldp	x22, x21, [sp, #96]
1000021ac: a9455ff8    	ldp	x24, x23, [sp, #80]
1000021b0: a94467fa    	ldp	x26, x25, [sp, #64]
1000021b4: a9436ffc    	ldp	x28, x27, [sp, #48]
1000021b8: 910243ff    	add	sp, sp, #144
1000021bc: d65f03c0    	ret
1000021c0: 528006a8    	mov	w8, #53
1000021c4: b0000049    	adrp	x9, 0x10000b000 <_barn_codegen_expression_generate+0x57c>
1000021c8: 9105e129    	add	x9, x9, #376
1000021cc: a90123e9    	stp	x9, x8, [sp, #16]
1000021d0: b0000048    	adrp	x8, 0x10000b000 <_barn_codegen_expression_generate+0x588>
1000021d4: 91045508    	add	x8, x8, #277
1000021d8: b0000049    	adrp	x9, 0x10000b000 <_barn_codegen_expression_generate+0x590>
1000021dc: 9105c129    	add	x9, x9, #368
1000021e0: a90023e9    	stp	x9, x8, [sp]
1000021e4: b0000041    	adrp	x1, 0x10000b000 <_barn_codegen_expression_generate+0x59c>
1000021e8: 910ea421    	add	x1, x1, #937
1000021ec: 528000e0    	mov	w0, #7
1000021f0: 940001f0    	bl	0x1000029b0 <_barn_error_show>
1000021f4: 52800020    	mov	w0, #1
1000021f8: 94001c6d    	bl	0x1000093ac <_strlen+0x1000093ac>
1000021fc: f0000028    	adrp	x8, 0x100009000 <_barn_codegen_expression_generate+0x5ac>
100002200: 9123a908    	add	x8, x8, #2282
100002204: 52800a69    	mov	w9, #83
100002208: a90123e9    	stp	x9, x8, [sp, #16]
10000220c: f0000028    	adrp	x8, 0x100009000 <_barn_codegen_expression_generate+0x5bc>
100002210: 9122cd08    	add	x8, x8, #2227
100002214: f0000029    	adrp	x9, 0x100009000 <_barn_codegen_expression_generate+0x5c4>
100002218: 91215929    	add	x9, x9, #2134
10000221c: a90023e9    	stp	x9, x8, [sp]
100002220: b0000041    	adrp	x1, 0x10000b000 <_barn_codegen_expression_generate+0x5d8>
100002224: 91159421    	add	x1, x1, #1381
100002228: 17fffff1    	b	0x1000021ec <_barn_codegen_expression_generate+0x580>
10000222c: 52800508    	mov	w8, #40
100002230: b0000049    	adrp	x9, 0x10000b000 <_barn_codegen_function_call+0x4>
100002234: 91052d29    	add	x9, x9, #331
100002238: a90123e9    	stp	x9, x8, [sp, #16]
10000223c: b0000048    	adrp	x8, 0x10000b000 <_barn_codegen_function_call+0x10>
100002240: 91045508    	add	x8, x8, #277
100002244: b0000049    	adrp	x9, 0x10000b000 <_barn_codegen_function_call+0x18>
100002248: 91051d29    	add	x9, x9, #327
10000224c: 17ffffe5    	b	0x1000021e0 <_barn_codegen_expression_generate+0x574>

0000000100002250 <_barn_codegen_function_call>:
100002250: d101c3ff    	sub	sp, sp, #112
100002254: a9035ff8    	stp	x24, x23, [sp, #48]
100002258: a90457f6    	stp	x22, x21, [sp, #64]
10000225c: a9054ff4    	stp	x20, x19, [sp, #80]
100002260: a9067bfd    	stp	x29, x30, [sp, #96]
100002264: aa0303f6    	mov	x22, x3
100002268: aa0203f3    	mov	x19, x2
10000226c: aa0103f5    	mov	x21, x1
100002270: aa0003f4    	mov	x20, x0
100002274: 52800020    	mov	w0, #1
100002278: 52800021    	mov	w1, #1
10000227c: 94001c49    	bl	0x1000093a0 <_strlen+0x1000093a0>
100002280: b4000ea0    	cbz	x0, 0x100002454 <_barn_codegen_function_call+0x204>
100002284: 3900001f    	strb	wzr, [x0]
100002288: f90017e0    	str	x0, [sp, #40]
10000228c: 34000136    	cbz	w22, 0x1000022b0 <_barn_codegen_function_call+0x60>
100002290: f9400e96    	ldr	x22, [x20, #24]
100002294: b9401680    	ldr	w0, [x20, #20]
100002298: 940000ce    	bl	0x1000025d0 <_barn_generate_tabs_to_buf>
10000229c: f90003e0    	str	x0, [sp]
1000022a0: f0000021    	adrp	x1, 0x100009000 <_barn_codegen_function_call+0x6c>
1000022a4: 91306421    	add	x1, x1, #3097
1000022a8: aa1603e0    	mov	x0, x22
1000022ac: 94001c4c    	bl	0x1000093dc <_strlen+0x1000093dc>
1000022b0: f94032a0    	ldr	x0, [x21, #96]
1000022b4: 90000041    	adrp	x1, 0x10000a000 <_barn_codegen_function_call+0x84>
1000022b8: 91016021    	add	x1, x1, #88
1000022bc: 94001c63    	bl	0x100009448 <_strlen+0x100009448>
1000022c0: 34000140    	cbz	w0, 0x1000022e8 <_barn_codegen_function_call+0x98>
1000022c4: f94032a1    	ldr	x1, [x21, #96]
1000022c8: 9100a3e0    	add	x0, sp, #40
1000022cc: 94001883    	bl	0x1000084d8 <_barn_append_string_to_allocated_string>
1000022d0: f94017f6    	ldr	x22, [sp, #40]
1000022d4: b4000196    	cbz	x22, 0x100002304 <_barn_codegen_function_call+0xb4>
1000022d8: aa1603e0    	mov	x0, x22
1000022dc: 94001c5e    	bl	0x100009454 <_strlen+0x100009454>
1000022e0: aa0003f7    	mov	x23, x0
1000022e4: 14000009    	b	0x100002308 <_barn_codegen_function_call+0xb8>
1000022e8: f9402ea8    	ldr	x8, [x21, #88]
1000022ec: b4000548    	cbz	x8, 0x100002394 <_barn_codegen_function_call+0x144>
1000022f0: f9400509    	ldr	x9, [x8, #8]
1000022f4: b4000509    	cbz	x9, 0x100002394 <_barn_codegen_function_call+0x144>
1000022f8: f9400908    	ldr	x8, [x8, #16]
1000022fc: f9400101    	ldr	x1, [x8]
100002300: 14000026    	b	0x100002398 <_barn_codegen_function_call+0x148>
100002304: d2800017    	mov	x23, #0
100002308: 91000ae1    	add	x1, x23, #2
10000230c: aa1603e0    	mov	x0, x22
100002310: 94001c4b    	bl	0x10000943c <_strlen+0x10000943c>
100002314: b40008e0    	cbz	x0, 0x100002430 <_barn_codegen_function_call+0x1e0>
100002318: aa0003f6    	mov	x22, x0
10000231c: 52800508    	mov	w8, #40
100002320: 78376808    	strh	w8, [x0, x23]
100002324: f90017e0    	str	x0, [sp, #40]
100002328: f9402ea8    	ldr	x8, [x21, #88]
10000232c: f9400509    	ldr	x9, [x8, #8]
100002330: b40002a9    	cbz	x9, 0x100002384 <_barn_codegen_function_call+0x134>
100002334: d2800016    	mov	x22, #0
100002338: 1400000d    	b	0x10000236c <_barn_codegen_function_call+0x11c>
10000233c: f9400908    	ldr	x8, [x8, #16]
100002340: f8767901    	ldr	x1, [x8, x22, lsl  #3]
100002344: aa1403e0    	mov	x0, x20
100002348: 97fffe49    	bl	0x100001c6c <_barn_codegen_expression_generate>
10000234c: aa0003e1    	mov	x1, x0
100002350: 910006d6    	add	x22, x22, #1
100002354: 9100a3e0    	add	x0, sp, #40
100002358: 94001860    	bl	0x1000084d8 <_barn_append_string_to_allocated_string>
10000235c: f9402ea8    	ldr	x8, [x21, #88]
100002360: f9400509    	ldr	x9, [x8, #8]
100002364: eb16013f    	cmp	x9, x22
100002368: 540000a9    	b.ls	0x10000237c <_barn_codegen_function_call+0x12c>
10000236c: eb16013f    	cmp	x9, x22
100002370: 54fffe68    	b.hi	0x10000233c <_barn_codegen_function_call+0xec>
100002374: d2800001    	mov	x1, #0
100002378: 17fffff3    	b	0x100002344 <_barn_codegen_function_call+0xf4>
10000237c: f94017f6    	ldr	x22, [sp, #40]
100002380: b4000256    	cbz	x22, 0x1000023c8 <_barn_codegen_function_call+0x178>
100002384: aa1603e0    	mov	x0, x22
100002388: 94001c33    	bl	0x100009454 <_strlen+0x100009454>
10000238c: aa0003f5    	mov	x21, x0
100002390: 1400000f    	b	0x1000023cc <_barn_codegen_function_call+0x17c>
100002394: d2800001    	mov	x1, #0
100002398: aa1403e0    	mov	x0, x20
10000239c: 97fffe34    	bl	0x100001c6c <_barn_codegen_expression_generate>
1000023a0: aa0003f3    	mov	x19, x0
1000023a4: 91000414    	add	x20, x0, #1
1000023a8: aa1403e0    	mov	x0, x20
1000023ac: 94001c2a    	bl	0x100009454 <_strlen+0x100009454>
1000023b0: 38206a7f    	strb	wzr, [x19, x0]
1000023b4: 9100a3e0    	add	x0, sp, #40
1000023b8: aa1403e1    	mov	x1, x20
1000023bc: 94001847    	bl	0x1000084d8 <_barn_append_string_to_allocated_string>
1000023c0: f94017f4    	ldr	x20, [sp, #40]
1000023c4: 14000014    	b	0x100002414 <_barn_codegen_function_call+0x1c4>
1000023c8: d2800015    	mov	x21, #0
1000023cc: 91000aa1    	add	x1, x21, #2
1000023d0: aa1603e0    	mov	x0, x22
1000023d4: 94001c1a    	bl	0x10000943c <_strlen+0x10000943c>
1000023d8: b40002c0    	cbz	x0, 0x100002430 <_barn_codegen_function_call+0x1e0>
1000023dc: aa0003f4    	mov	x20, x0
1000023e0: 52800528    	mov	w8, #41
1000023e4: 78356808    	strh	w8, [x0, x21]
1000023e8: 36000173    	tbz	w19, #0, 0x100002414 <_barn_codegen_function_call+0x1c4>
1000023ec: aa1403e0    	mov	x0, x20
1000023f0: 94001c19    	bl	0x100009454 <_strlen+0x100009454>
1000023f4: aa0003f3    	mov	x19, x0
1000023f8: 91000801    	add	x1, x0, #2
1000023fc: aa1403e0    	mov	x0, x20
100002400: 94001c0f    	bl	0x10000943c <_strlen+0x10000943c>
100002404: b4000160    	cbz	x0, 0x100002430 <_barn_codegen_function_call+0x1e0>
100002408: aa0003f4    	mov	x20, x0
10000240c: 52800768    	mov	w8, #59
100002410: 78336808    	strh	w8, [x0, x19]
100002414: aa1403e0    	mov	x0, x20
100002418: a9467bfd    	ldp	x29, x30, [sp, #96]
10000241c: a9454ff4    	ldp	x20, x19, [sp, #80]
100002420: a94457f6    	ldp	x22, x21, [sp, #64]
100002424: a9435ff8    	ldp	x24, x23, [sp, #48]
100002428: 9101c3ff    	add	sp, sp, #112
10000242c: d65f03c0    	ret
100002430: 528006a8    	mov	w8, #53
100002434: b0000049    	adrp	x9, 0x10000b000 <_barn_codegen_function_call+0x208>
100002438: 9105e129    	add	x9, x9, #376
10000243c: a90123e9    	stp	x9, x8, [sp, #16]
100002440: b0000048    	adrp	x8, 0x10000b000 <_barn_codegen_function_call+0x214>
100002444: 91045508    	add	x8, x8, #277
100002448: b0000049    	adrp	x9, 0x10000b000 <_barn_codegen_function_call+0x21c>
10000244c: 9105c129    	add	x9, x9, #368
100002450: 14000009    	b	0x100002474 <_barn_codegen_function_call+0x224>
100002454: 52800508    	mov	w8, #40
100002458: b0000049    	adrp	x9, 0x10000b000 <_barn_codegen_function_call+0x22c>
10000245c: 91052d29    	add	x9, x9, #331
100002460: a90123e9    	stp	x9, x8, [sp, #16]
100002464: b0000048    	adrp	x8, 0x10000b000 <_barn_codegen_function_call+0x238>
100002468: 91045508    	add	x8, x8, #277
10000246c: b0000049    	adrp	x9, 0x10000b000 <_barn_get_color_as_str_code>
100002470: 91051d29    	add	x9, x9, #327
100002474: a90023e9    	stp	x9, x8, [sp]
100002478: b0000041    	adrp	x1, 0x10000b000 <_barn_get_color_as_str_code+0xc>
10000247c: 910ea421    	add	x1, x1, #937
100002480: 528000e0    	mov	w0, #7
100002484: 9400014b    	bl	0x1000029b0 <_barn_error_show>
100002488: 52800020    	mov	w0, #1
10000248c: 94001bc8    	bl	0x1000093ac <_strlen+0x1000093ac>

0000000100002490 <_barn_get_color_as_str_code>:
100002490: d10183ff    	sub	sp, sp, #96
100002494: a9044ff4    	stp	x20, x19, [sp, #64]
100002498: a9057bfd    	stp	x29, x30, [sp, #80]
10000249c: f90003e0    	str	x0, [sp]
1000024a0: f0000023    	adrp	x3, 0x100009000 <_barn_get_color_as_str_code+0x2c>
1000024a4: 912ca063    	add	x3, x3, #2856
1000024a8: 91009fe0    	add	x0, sp, #39
1000024ac: 52800001    	mov	w1, #0
1000024b0: 52800322    	mov	w2, #25
1000024b4: 94001ba9    	bl	0x100009358 <_strlen+0x100009358>
1000024b8: 91009fe0    	add	x0, sp, #39
1000024bc: 94001be6    	bl	0x100009454 <_strlen+0x100009454>
1000024c0: 91000400    	add	x0, x0, #1
1000024c4: 52800021    	mov	w1, #1
1000024c8: 94001bb6    	bl	0x1000093a0 <_strlen+0x1000093a0>
1000024cc: b4000140    	cbz	x0, 0x1000024f4 <_barn_get_color_as_str_code+0x64>
1000024d0: aa0003f3    	mov	x19, x0
1000024d4: 91009fe1    	add	x1, sp, #39
1000024d8: 92800002    	mov	x2, #-1
1000024dc: 94001ba2    	bl	0x100009364 <_strlen+0x100009364>
1000024e0: aa1303e0    	mov	x0, x19
1000024e4: a9457bfd    	ldp	x29, x30, [sp, #80]
1000024e8: a9444ff4    	ldp	x20, x19, [sp, #64]
1000024ec: 910183ff    	add	sp, sp, #96
1000024f0: d65f03c0    	ret
1000024f4: 528003c8    	mov	w8, #30
1000024f8: b0000049    	adrp	x9, 0x10000b000 <_barn_get_color_as_str_code+0x8c>
1000024fc: 91048d29    	add	x9, x9, #291
100002500: a90123e9    	stp	x9, x8, [sp, #16]
100002504: b0000048    	adrp	x8, 0x10000b000 <_barn_get_color_as_str_code+0x98>
100002508: 91045508    	add	x8, x8, #277
10000250c: b0000049    	adrp	x9, 0x10000b000 <_barn_get_bold_color_as_str_code>
100002510: 91042929    	add	x9, x9, #266
100002514: a90023e9    	stp	x9, x8, [sp]
100002518: b0000041    	adrp	x1, 0x10000b000 <_barn_get_bold_color_as_str_code+0xc>
10000251c: 910ea421    	add	x1, x1, #937
100002520: 528000e0    	mov	w0, #7
100002524: 94000123    	bl	0x1000029b0 <_barn_error_show>
100002528: 52800020    	mov	w0, #1
10000252c: 94001ba0    	bl	0x1000093ac <_strlen+0x1000093ac>

0000000100002530 <_barn_get_bold_color_as_str_code>:
100002530: d10183ff    	sub	sp, sp, #96
100002534: a9044ff4    	stp	x20, x19, [sp, #64]
100002538: a9057bfd    	stp	x29, x30, [sp, #80]
10000253c: f90003e0    	str	x0, [sp]
100002540: f0000023    	adrp	x3, 0x100009000 <_barn_get_bold_color_as_str_code+0x2c>
100002544: 912cc063    	add	x3, x3, #2864
100002548: 91009fe0    	add	x0, sp, #39
10000254c: 52800001    	mov	w1, #0
100002550: 52800322    	mov	w2, #25
100002554: 94001b81    	bl	0x100009358 <_strlen+0x100009358>
100002558: 91009fe0    	add	x0, sp, #39
10000255c: 94001bbe    	bl	0x100009454 <_strlen+0x100009454>
100002560: 91000400    	add	x0, x0, #1
100002564: 52800021    	mov	w1, #1
100002568: 94001b8e    	bl	0x1000093a0 <_strlen+0x1000093a0>
10000256c: b4000140    	cbz	x0, 0x100002594 <_barn_get_bold_color_as_str_code+0x64>
100002570: aa0003f3    	mov	x19, x0
100002574: 91009fe1    	add	x1, sp, #39
100002578: 92800002    	mov	x2, #-1
10000257c: 94001b7a    	bl	0x100009364 <_strlen+0x100009364>
100002580: aa1303e0    	mov	x0, x19
100002584: a9457bfd    	ldp	x29, x30, [sp, #80]
100002588: a9444ff4    	ldp	x20, x19, [sp, #64]
10000258c: 910183ff    	add	sp, sp, #96
100002590: d65f03c0    	ret
100002594: 528003c8    	mov	w8, #30
100002598: b0000049    	adrp	x9, 0x10000b000 <_barn_get_bold_color_as_str_code+0x8c>
10000259c: 91048d29    	add	x9, x9, #291
1000025a0: a90123e9    	stp	x9, x8, [sp, #16]
1000025a4: b0000048    	adrp	x8, 0x10000b000 <_barn_get_bold_color_as_str_code+0x98>
1000025a8: 91045508    	add	x8, x8, #277
1000025ac: b0000049    	adrp	x9, 0x10000b000 <_barn_generate_tabs_to_buf>
1000025b0: 91042929    	add	x9, x9, #266
1000025b4: a90023e9    	stp	x9, x8, [sp]
1000025b8: b0000041    	adrp	x1, 0x10000b000 <_barn_generate_tabs_to_buf+0xc>
1000025bc: 910ea421    	add	x1, x1, #937
1000025c0: 528000e0    	mov	w0, #7
1000025c4: 940000fb    	bl	0x1000029b0 <_barn_error_show>
1000025c8: 52800020    	mov	w0, #1
1000025cc: 94001b78    	bl	0x1000093ac <_strlen+0x1000093ac>

00000001000025d0 <_barn_generate_tabs_to_buf>:
1000025d0: d10143ff    	sub	sp, sp, #80
1000025d4: a90257f6    	stp	x22, x21, [sp, #32]
1000025d8: a9034ff4    	stp	x20, x19, [sp, #48]
1000025dc: a9047bfd    	stp	x29, x30, [sp, #64]
1000025e0: aa0003f3    	mov	x19, x0
1000025e4: 52800020    	mov	w0, #1
1000025e8: 52800021    	mov	w1, #1
1000025ec: 94001b6d    	bl	0x1000093a0 <_strlen+0x1000093a0>
1000025f0: b40004c0    	cbz	x0, 0x100002688 <_barn_generate_tabs_to_buf+0xb8>
1000025f4: aa0003f4    	mov	x20, x0
1000025f8: 3900001f    	strb	wzr, [x0]
1000025fc: 7100067f    	cmp	w19, #1
100002600: 540001ab    	b.lt	0x100002634 <_barn_generate_tabs_to_buf+0x64>
100002604: 52800136    	mov	w22, #9
100002608: aa1403e0    	mov	x0, x20
10000260c: 94001b92    	bl	0x100009454 <_strlen+0x100009454>
100002610: aa0003f5    	mov	x21, x0
100002614: 91000801    	add	x1, x0, #2
100002618: aa1403e0    	mov	x0, x20
10000261c: 94001b88    	bl	0x10000943c <_strlen+0x10000943c>
100002620: b4000160    	cbz	x0, 0x10000264c <_barn_generate_tabs_to_buf+0x7c>
100002624: aa0003f4    	mov	x20, x0
100002628: 78356816    	strh	w22, [x0, x21]
10000262c: 71000673    	subs	w19, w19, #1
100002630: 54fffec1    	b.ne	0x100002608 <_barn_generate_tabs_to_buf+0x38>
100002634: aa1403e0    	mov	x0, x20
100002638: a9447bfd    	ldp	x29, x30, [sp, #64]
10000263c: a9434ff4    	ldp	x20, x19, [sp, #48]
100002640: a94257f6    	ldp	x22, x21, [sp, #32]
100002644: 910143ff    	add	sp, sp, #80
100002648: d65f03c0    	ret
10000264c: 528006a8    	mov	w8, #53
100002650: b0000049    	adrp	x9, 0x10000b000 <_barn_generate_tabs_to_buf+0xa4>
100002654: 9105e129    	add	x9, x9, #376
100002658: a90123e9    	stp	x9, x8, [sp, #16]
10000265c: b0000048    	adrp	x8, 0x10000b000 <_barn_generate_tabs_to_buf+0xb0>
100002660: 91045508    	add	x8, x8, #277
100002664: b0000049    	adrp	x9, 0x10000b000 <_barn_generate_tabs_to_buf+0xb8>
100002668: 9105c129    	add	x9, x9, #368
10000266c: a90023e9    	stp	x9, x8, [sp]
100002670: b0000041    	adrp	x1, 0x10000b000 <_barn_generate_tabs_to_buf+0xc4>
100002674: 910ea421    	add	x1, x1, #937
100002678: 528000e0    	mov	w0, #7
10000267c: 940000cd    	bl	0x1000029b0 <_barn_error_show>
100002680: 52800020    	mov	w0, #1
100002684: 94001b4a    	bl	0x1000093ac <_strlen+0x1000093ac>
100002688: 52800508    	mov	w8, #40
10000268c: b0000049    	adrp	x9, 0x10000b000 <_barn_error_show_with_line+0x4>
100002690: 91052d29    	add	x9, x9, #331
100002694: a90123e9    	stp	x9, x8, [sp, #16]
100002698: b0000048    	adrp	x8, 0x10000b000 <_barn_error_show_with_line+0x10>
10000269c: 91045508    	add	x8, x8, #277
1000026a0: b0000049    	adrp	x9, 0x10000b000 <_barn_error_show_with_line+0x18>
1000026a4: 91051d29    	add	x9, x9, #327
1000026a8: 17fffff1    	b	0x10000266c <_barn_generate_tabs_to_buf+0x9c>

00000001000026ac <_barn_error_show_with_line>:
1000026ac: a9ba6ffc    	stp	x28, x27, [sp, #-96]!
1000026b0: a90167fa    	stp	x26, x25, [sp, #16]
1000026b4: a9025ff8    	stp	x24, x23, [sp, #32]
1000026b8: a90357f6    	stp	x22, x21, [sp, #48]
1000026bc: a9044ff4    	stp	x20, x19, [sp, #64]
1000026c0: a9057bfd    	stp	x29, x30, [sp, #80]
1000026c4: d10943ff    	sub	sp, sp, #592
1000026c8: aa0603f4    	mov	x20, x6
1000026cc: aa0403f3    	mov	x19, x4
1000026d0: aa0303f5    	mov	x21, x3
1000026d4: aa0203f6    	mov	x22, x2
1000026d8: aa0103f7    	mov	x23, x1
1000026dc: 910ac3e8    	add	x8, sp, #688
1000026e0: f90127e8    	str	x8, [sp, #584]
1000026e4: 910103f9    	add	x25, sp, #64
1000026e8: 910103e0    	add	x0, sp, #64
1000026ec: 910ac3e5    	add	x5, sp, #688
1000026f0: 52804001    	mov	w1, #512
1000026f4: 52800002    	mov	w2, #0
1000026f8: aa0703e4    	mov	x4, x7
1000026fc: 52804003    	mov	w3, #512
100002700: 94001b1c    	bl	0x100009370 <_strlen+0x100009370>
100002704: 528003e0    	mov	w0, #31
100002708: 97ffff8a    	bl	0x100002530 <_barn_get_bold_color_as_str_code>
10000270c: aa0003f8    	mov	x24, x0
100002710: d0000048    	adrp	x8, 0x10000c000 <_barn_error_show_with_line+0x8c>
100002714: 91056108    	add	x8, x8, #344
100002718: f8775917    	ldr	x23, [x8, w23, uxtw  #3]
10000271c: 52800000    	mov	w0, #0
100002720: 97ffff5c    	bl	0x100002490 <_barn_get_color_as_str_code>
100002724: a902e7f3    	stp	x19, x25, [sp, #40]
100002728: a901d7f6    	stp	x22, x21, [sp, #24]
10000272c: a90083f7    	stp	x23, x0, [sp, #8]
100002730: f0000020    	adrp	x0, 0x100009000 <_barn_error_show_with_line+0xa0>
100002734: 912f9400    	add	x0, x0, #3045
100002738: f90003f8    	str	x24, [sp]
10000273c: 94001b3d    	bl	0x100009430 <_strlen+0x100009430>
100002740: 34000275    	cbz	w21, 0x10000278c <_barn_error_show_with_line+0xe0>
100002744: 52800400    	mov	w0, #32
100002748: 97ffff52    	bl	0x100002490 <_barn_get_color_as_str_code>
10000274c: aa0003f6    	mov	x22, x0
100002750: 52800000    	mov	w0, #0
100002754: 97ffff4f    	bl	0x100002490 <_barn_get_color_as_str_code>
100002758: aa0003f7    	mov	x23, x0
10000275c: 52800b40    	mov	w0, #90
100002760: 97ffff4c    	bl	0x100002490 <_barn_get_color_as_str_code>
100002764: aa0003f8    	mov	x24, x0
100002768: 52800000    	mov	w0, #0
10000276c: 97ffff49    	bl	0x100002490 <_barn_get_color_as_str_code>
100002770: a90183f8    	stp	x24, x0, [sp, #24]
100002774: aa1503e8    	mov	x8, x21
100002778: a900dfe8    	stp	x8, x23, [sp, #8]
10000277c: f90003f6    	str	x22, [sp]
100002780: f0000020    	adrp	x0, 0x100009000 <_barn_error_show_with_line+0xf0>
100002784: 912fec00    	add	x0, x0, #3067
100002788: 94001b2a    	bl	0x100009430 <_strlen+0x100009430>
10000278c: 52800400    	mov	w0, #32
100002790: 97ffff40    	bl	0x100002490 <_barn_get_color_as_str_code>
100002794: aa0003f6    	mov	x22, x0
100002798: 110006b8    	add	w24, w21, #1
10000279c: 52800000    	mov	w0, #0
1000027a0: 97ffff3c    	bl	0x100002490 <_barn_get_color_as_str_code>
1000027a4: aa0003f5    	mov	x21, x0
1000027a8: 52800b40    	mov	w0, #90
1000027ac: 97ffff39    	bl	0x100002490 <_barn_get_color_as_str_code>
1000027b0: a90103f5    	stp	x21, x0, [sp, #16]
1000027b4: a90063f6    	stp	x22, x24, [sp]
1000027b8: f0000020    	adrp	x0, 0x100009000 <_barn_error_show_with_line+0x128>
1000027bc: 91303400    	add	x0, x0, #3085
1000027c0: 94001b1c    	bl	0x100009430 <_strlen+0x100009430>
1000027c4: d2800019    	mov	x25, #0
1000027c8: 5280001a    	mov	w26, #0
1000027cc: 52800017    	mov	w23, #0
1000027d0: 2a1303fb    	mov	w27, w19
1000027d4: f0000035    	adrp	x21, 0x100009000 <_barn_error_show_with_line+0x144>
1000027d8: 913066b5    	add	x21, x21, #3097
1000027dc: f0000036    	adrp	x22, 0x100009000 <_barn_error_show_with_line+0x14c>
1000027e0: 913072d6    	add	x22, x22, #3100
1000027e4: f000003c    	adrp	x28, 0x100009000 <_barn_error_show_with_line+0x154>
1000027e8: 9111839c    	add	x28, x28, #1120
1000027ec: 14000003    	b	0x1000027f8 <_barn_error_show_with_line+0x14c>
1000027f0: 110006f7    	add	w23, w23, #1
1000027f4: 91000739    	add	x25, x25, #1
1000027f8: aa1403e0    	mov	x0, x20
1000027fc: 94001b16    	bl	0x100009454 <_strlen+0x100009454>
100002800: eb19001f    	cmp	x0, x25
100002804: 54000429    	b.ls	0x100002888 <_barn_error_show_with_line+0x1dc>
100002808: 38796a88    	ldrb	w8, [x20, x25]
10000280c: 7100811f    	cmp	w8, #32
100002810: 1a9f07e9    	cset	w9, ne
100002814: 2a1a013a    	orr	w26, w9, w26
100002818: 3607feda    	tbz	w26, #0, 0x1000027f0 <_barn_error_show_with_line+0x144>
10000281c: eb19037f    	cmp	x27, x25
100002820: 540000e1    	b.ne	0x10000283c <_barn_error_show_with_line+0x190>
100002824: 52800400    	mov	w0, #32
100002828: 97ffff1a    	bl	0x100002490 <_barn_get_color_as_str_code>
10000282c: f90003e0    	str	x0, [sp]
100002830: aa1503e0    	mov	x0, x21
100002834: 94001aff    	bl	0x100009430 <_strlen+0x100009430>
100002838: 38796a88    	ldrb	w8, [x20, x25]
10000283c: 51008109    	sub	w9, w8, #32
100002840: 7101753f    	cmp	w9, #93
100002844: 54000168    	b.hi	0x100002870 <_barn_error_show_with_line+0x1c4>
100002848: 1000008a    	adr	x10, #16
10000284c: 38696b8b    	ldrb	w11, [x28, x9]
100002850: 8b0b094a    	add	x10, x10, x11, lsl #2
100002854: d61f0140    	br	x10
100002858: 52800b40    	mov	w0, #90
10000285c: 97ffff0d    	bl	0x100002490 <_barn_get_color_as_str_code>
100002860: f90003e0    	str	x0, [sp]
100002864: aa1503e0    	mov	x0, x21
100002868: 94001af2    	bl	0x100009430 <_strlen+0x100009430>
10000286c: 38796a88    	ldrb	w8, [x20, x25]
100002870: 93401d08    	sxtb	x8, w8
100002874: f90003e8    	str	x8, [sp]
100002878: aa1603e0    	mov	x0, x22
10000287c: 94001aed    	bl	0x100009430 <_strlen+0x100009430>
100002880: 91000739    	add	x25, x25, #1
100002884: 17ffffdd    	b	0x1000027f8 <_barn_error_show_with_line+0x14c>
100002888: 6f00e400    	movi.2d	v0, #0000000000000000
10000288c: ad1103e0    	stp	q0, q0, [sp, #544]
100002890: ad1003e0    	stp	q0, q0, [sp, #512]
100002894: ad0f03e0    	stp	q0, q0, [sp, #480]
100002898: ad0e03e0    	stp	q0, q0, [sp, #448]
10000289c: ad0d03e0    	stp	q0, q0, [sp, #416]
1000028a0: ad0c03e0    	stp	q0, q0, [sp, #384]
1000028a4: ad0b03e0    	stp	q0, q0, [sp, #352]
1000028a8: ad0a03e0    	stp	q0, q0, [sp, #320]
1000028ac: ad0903e0    	stp	q0, q0, [sp, #288]
1000028b0: ad0803e0    	stp	q0, q0, [sp, #256]
1000028b4: ad0703e0    	stp	q0, q0, [sp, #224]
1000028b8: ad0603e0    	stp	q0, q0, [sp, #192]
1000028bc: ad0503e0    	stp	q0, q0, [sp, #160]
1000028c0: ad0403e0    	stp	q0, q0, [sp, #128]
1000028c4: ad0303e0    	stp	q0, q0, [sp, #96]
1000028c8: ad0203e0    	stp	q0, q0, [sp, #64]
1000028cc: f90003f8    	str	x24, [sp]
1000028d0: f0000023    	adrp	x3, 0x100009000 <_barn_error_show_with_line+0x240>
1000028d4: 91307c63    	add	x3, x3, #3103
1000028d8: 910103e0    	add	x0, sp, #64
1000028dc: 52800001    	mov	w1, #0
1000028e0: 52804002    	mov	w2, #512
1000028e4: 94001a9d    	bl	0x100009358 <_strlen+0x100009358>
1000028e8: f0000020    	adrp	x0, 0x100009000 <_barn_error_show_with_line+0x258>
1000028ec: 91308c00    	add	x0, x0, #3107
1000028f0: 94001ad0    	bl	0x100009430 <_strlen+0x100009430>
1000028f4: d2800015    	mov	x21, #0
1000028f8: f0000034    	adrp	x20, 0x100009000 <_barn_error_show_with_line+0x268>
1000028fc: 91309694    	add	x20, x20, #3109
100002900: 910103e0    	add	x0, sp, #64
100002904: 94001ad4    	bl	0x100009454 <_strlen+0x100009454>
100002908: eb15001f    	cmp	x0, x21
10000290c: 540000a9    	b.ls	0x100002920 <_barn_error_show_with_line+0x274>
100002910: aa1403e0    	mov	x0, x20
100002914: 94001ac7    	bl	0x100009430 <_strlen+0x100009430>
100002918: 910006b5    	add	x21, x21, #1
10000291c: 17fffff9    	b	0x100002900 <_barn_error_show_with_line+0x254>
100002920: 52800000    	mov	w0, #0
100002924: 97fffedb    	bl	0x100002490 <_barn_get_color_as_str_code>
100002928: aa0003f4    	mov	x20, x0
10000292c: 52800b40    	mov	w0, #90
100002930: 97fffed8    	bl	0x100002490 <_barn_get_color_as_str_code>
100002934: a90003f4    	stp	x20, x0, [sp]
100002938: f0000020    	adrp	x0, 0x100009000 <_barn_error_show_with_line+0x2a8>
10000293c: 91309c00    	add	x0, x0, #3111
100002940: 94001abc    	bl	0x100009430 <_strlen+0x100009430>
100002944: 4b170268    	sub	w8, w19, w23
100002948: 11000514    	add	w20, w8, #1
10000294c: 7100069f    	cmp	w20, #1
100002950: 540000eb    	b.lt	0x10000296c <_barn_error_show_with_line+0x2c0>
100002954: f0000033    	adrp	x19, 0x100009000 <_barn_error_show_with_line+0x2c4>
100002958: 91309673    	add	x19, x19, #3109
10000295c: aa1303e0    	mov	x0, x19
100002960: 94001ab4    	bl	0x100009430 <_strlen+0x100009430>
100002964: 71000694    	subs	w20, w20, #1
100002968: 54ffffa1    	b.ne	0x10000295c <_barn_error_show_with_line+0x2b0>
10000296c: 52800400    	mov	w0, #32
100002970: 97fffec8    	bl	0x100002490 <_barn_get_color_as_str_code>
100002974: aa0003f3    	mov	x19, x0
100002978: 528004a0    	mov	w0, #37
10000297c: 97fffec5    	bl	0x100002490 <_barn_get_color_as_str_code>
100002980: a90003f3    	stp	x19, x0, [sp]
100002984: f0000020    	adrp	x0, 0x100009000 <_barn_error_show_with_line+0x2f4>
100002988: 9130b400    	add	x0, x0, #3117
10000298c: 94001aa9    	bl	0x100009430 <_strlen+0x100009430>
100002990: 910943ff    	add	sp, sp, #592
100002994: a9457bfd    	ldp	x29, x30, [sp, #80]
100002998: a9444ff4    	ldp	x20, x19, [sp, #64]
10000299c: a94357f6    	ldp	x22, x21, [sp, #48]
1000029a0: a9425ff8    	ldp	x24, x23, [sp, #32]
1000029a4: a94167fa    	ldp	x26, x25, [sp, #16]
1000029a8: a8c66ffc    	ldp	x28, x27, [sp], #96
1000029ac: d65f03c0    	ret

00000001000029b0 <_barn_error_show>:
1000029b0: a9bd57f6    	stp	x22, x21, [sp, #-48]!
1000029b4: a9014ff4    	stp	x20, x19, [sp, #16]
1000029b8: a9027bfd    	stp	x29, x30, [sp, #32]
1000029bc: d10943ff    	sub	sp, sp, #592
1000029c0: aa0103e4    	mov	x4, x1
1000029c4: aa0003f4    	mov	x20, x0
1000029c8: 910a03e8    	add	x8, sp, #640
1000029cc: f90117e8    	str	x8, [sp, #552]
1000029d0: 9100a3e0    	add	x0, sp, #40
1000029d4: 910a03e5    	add	x5, sp, #640
1000029d8: 52804001    	mov	w1, #512
1000029dc: 52800002    	mov	w2, #0
1000029e0: 52804003    	mov	w3, #512
1000029e4: 94001a63    	bl	0x100009370 <_strlen+0x100009370>
1000029e8: 528003e8    	mov	w8, #31
1000029ec: f90003e8    	str	x8, [sp]
1000029f0: f0000023    	adrp	x3, 0x100009000 <_barn_error_show+0x5c>
1000029f4: 912cc063    	add	x3, x3, #2864
1000029f8: 9108dfe0    	add	x0, sp, #567
1000029fc: 52800001    	mov	w1, #0
100002a00: 52800322    	mov	w2, #25
100002a04: 94001a55    	bl	0x100009358 <_strlen+0x100009358>
100002a08: 9108dfe0    	add	x0, sp, #567
100002a0c: 94001a92    	bl	0x100009454 <_strlen+0x100009454>
100002a10: 91000400    	add	x0, x0, #1
100002a14: 52800021    	mov	w1, #1
100002a18: 94001a62    	bl	0x1000093a0 <_strlen+0x1000093a0>
100002a1c: b4000480    	cbz	x0, 0x100002aac <_barn_error_show+0xfc>
100002a20: aa0003f3    	mov	x19, x0
100002a24: 9108dfe1    	add	x1, sp, #567
100002a28: 92800002    	mov	x2, #-1
100002a2c: 94001a4e    	bl	0x100009364 <_strlen+0x100009364>
100002a30: d0000048    	adrp	x8, 0x10000c000 <_barn_error_show+0xa8>
100002a34: 91056108    	add	x8, x8, #344
100002a38: f8745915    	ldr	x21, [x8, w20, uxtw  #3]
100002a3c: f90003ff    	str	xzr, [sp]
100002a40: f0000023    	adrp	x3, 0x100009000 <_barn_error_show+0xac>
100002a44: 912ca063    	add	x3, x3, #2856
100002a48: 9108dfe0    	add	x0, sp, #567
100002a4c: 52800001    	mov	w1, #0
100002a50: 52800322    	mov	w2, #25
100002a54: 94001a41    	bl	0x100009358 <_strlen+0x100009358>
100002a58: 9108dfe0    	add	x0, sp, #567
100002a5c: 94001a7e    	bl	0x100009454 <_strlen+0x100009454>
100002a60: 91000400    	add	x0, x0, #1
100002a64: 52800021    	mov	w1, #1
100002a68: 94001a4e    	bl	0x1000093a0 <_strlen+0x1000093a0>
100002a6c: b4000200    	cbz	x0, 0x100002aac <_barn_error_show+0xfc>
100002a70: aa0003f4    	mov	x20, x0
100002a74: 9108dfe1    	add	x1, sp, #567
100002a78: 92800002    	mov	x2, #-1
100002a7c: 94001a3a    	bl	0x100009364 <_strlen+0x100009364>
100002a80: 9100a3e8    	add	x8, sp, #40
100002a84: a90123f4    	stp	x20, x8, [sp, #16]
100002a88: a90057f3    	stp	x19, x21, [sp]
100002a8c: f0000020    	adrp	x0, 0x100009000 <_barn_error_show+0xf8>
100002a90: 91312c00    	add	x0, x0, #3147
100002a94: 94001a67    	bl	0x100009430 <_strlen+0x100009430>
100002a98: 910943ff    	add	sp, sp, #592
100002a9c: a9427bfd    	ldp	x29, x30, [sp, #32]
100002aa0: a9414ff4    	ldp	x20, x19, [sp, #16]
100002aa4: a8c357f6    	ldp	x22, x21, [sp], #48
100002aa8: d65f03c0    	ret
100002aac: 528003c8    	mov	w8, #30
100002ab0: b0000049    	adrp	x9, 0x10000b000 <_barn_error_show+0x124>
100002ab4: 91048d29    	add	x9, x9, #291
100002ab8: a90123e9    	stp	x9, x8, [sp, #16]
100002abc: b0000048    	adrp	x8, 0x10000b000 <_barn_error_show+0x130>
100002ac0: 91045508    	add	x8, x8, #277
100002ac4: b0000049    	adrp	x9, 0x10000b000 <_barn_get_expr_value>
100002ac8: 91042929    	add	x9, x9, #266
100002acc: a90023e9    	stp	x9, x8, [sp]
100002ad0: b0000041    	adrp	x1, 0x10000b000 <_barn_get_expr_value+0xc>
100002ad4: 910ea421    	add	x1, x1, #937
100002ad8: 528000e0    	mov	w0, #7
100002adc: 97ffffb5    	bl	0x1000029b0 <_barn_error_show>
100002ae0: 52800020    	mov	w0, #1
100002ae4: 94001a32    	bl	0x1000093ac <_strlen+0x1000093ac>

0000000100002ae8 <_barn_get_expr_value>:
100002ae8: d10183ff    	sub	sp, sp, #96
100002aec: a9025ff8    	stp	x24, x23, [sp, #32]
100002af0: a90357f6    	stp	x22, x21, [sp, #48]
100002af4: a9044ff4    	stp	x20, x19, [sp, #64]
100002af8: a9057bfd    	stp	x29, x30, [sp, #80]
100002afc: aa0003f3    	mov	x19, x0
100002b00: d0000075    	adrp	x21, 0x100010000 <_barn_get_expr_value+0x50>
100002b04: f9401ab6    	ldr	x22, [x21, #48]
100002b08: 52800020    	mov	w0, #1
100002b0c: 52800401    	mov	w1, #32
100002b10: 94001a24    	bl	0x1000093a0 <_strlen+0x1000093a0>
100002b14: b4001200    	cbz	x0, 0x100002d54 <_barn_get_expr_value+0x26c>
100002b18: aa0003f4    	mov	x20, x0
100002b1c: a900581f    	stp	xzr, x22, [x0]
100002b20: f9400a68    	ldr	x8, [x19, #16]
100002b24: b9402109    	ldr	w9, [x8, #32]
100002b28: 51000529    	sub	w9, w9, #1
100002b2c: 7100713f    	cmp	w9, #28
100002b30: 540014a8    	b.hi	0x100002dc4 <_barn_get_expr_value+0x2dc>
100002b34: d2800000    	mov	x0, #0
100002b38: f000002a    	adrp	x10, 0x100009000 <_barn_get_expr_value+0x6c>
100002b3c: 9112f94a    	add	x10, x10, #1214
100002b40: 1000008b    	adr	x11, #16
100002b44: 3869694c    	ldrb	w12, [x10, x9]
100002b48: 8b0c096b    	add	x11, x11, x12, lsl #2
100002b4c: d61f0160    	br	x11
100002b50: f9401aa9    	ldr	x9, [x21, #48]
100002b54: a9002688    	stp	x8, x9, [x20]
100002b58: f9400a68    	ldr	x8, [x19, #16]
100002b5c: f9400108    	ldr	x8, [x8]
100002b60: f90003e8    	str	x8, [sp]
100002b64: b0000040    	adrp	x0, 0x10000b000 <_barn_get_expr_value+0xa0>
100002b68: 911b0000    	add	x0, x0, #1728
100002b6c: 94001a31    	bl	0x100009430 <_strlen+0x100009430>
100002b70: 14000018    	b	0x100002bd0 <_barn_get_expr_value+0xe8>
100002b74: f9000288    	str	x8, [x20]
100002b78: 52800035    	mov	w21, #1
100002b7c: 52800020    	mov	w0, #1
100002b80: 52800301    	mov	w1, #24
100002b84: 94001a07    	bl	0x1000093a0 <_strlen+0x1000093a0>
100002b88: aa0003e8    	mov	x8, x0
100002b8c: 52800089    	mov	w9, #4
100002b90: b9000009    	str	w9, [x0]
100002b94: f9000415    	str	x21, [x0, #8]
100002b98: 52802009    	mov	w9, #256
100002b9c: b9001009    	str	w9, [x0, #16]
100002ba0: 3900501f    	strb	wzr, [x0, #20]
100002ba4: 3900581f    	strb	wzr, [x0, #22]
100002ba8: f9000680    	str	x0, [x20, #8]
100002bac: aa1403e0    	mov	x0, x20
100002bb0: 39005515    	strb	w21, [x8, #21]
100002bb4: 14000008    	b	0x100002bd4 <_barn_get_expr_value+0xec>
100002bb8: d0000069    	adrp	x9, 0x100010000 <_barn_get_expr_value+0x108>
100002bbc: f9402d29    	ldr	x9, [x9, #88]
100002bc0: 14000003    	b	0x100002bcc <_barn_get_expr_value+0xe4>
100002bc4: d0000069    	adrp	x9, 0x100010000 <_barn_get_expr_value+0x114>
100002bc8: f9402529    	ldr	x9, [x9, #72]
100002bcc: a9002688    	stp	x8, x9, [x20]
100002bd0: aa1403e0    	mov	x0, x20
100002bd4: b9801e68    	ldrsw	x8, [x19, #28]
100002bd8: 91000508    	add	x8, x8, #1
100002bdc: b9001e68    	str	w8, [x19, #28]
100002be0: f9400669    	ldr	x9, [x19, #8]
100002be4: f9400d29    	ldr	x9, [x9, #24]
100002be8: b40000e9    	cbz	x9, 0x100002c04 <_barn_get_expr_value+0x11c>
100002bec: f940052a    	ldr	x10, [x9, #8]
100002bf0: eb08015f    	cmp	x10, x8
100002bf4: 54000089    	b.ls	0x100002c04 <_barn_get_expr_value+0x11c>
100002bf8: f9400929    	ldr	x9, [x9, #16]
100002bfc: f8687928    	ldr	x8, [x9, x8, lsl  #3]
100002c00: 14000002    	b	0x100002c08 <_barn_get_expr_value+0x120>
100002c04: d2800008    	mov	x8, #0
100002c08: f9000a68    	str	x8, [x19, #16]
100002c0c: a9457bfd    	ldp	x29, x30, [sp, #80]
100002c10: a9444ff4    	ldp	x20, x19, [sp, #64]
100002c14: a94357f6    	ldp	x22, x21, [sp, #48]
100002c18: a9425ff8    	ldp	x24, x23, [sp, #32]
100002c1c: 910183ff    	add	sp, sp, #96
100002c20: d65f03c0    	ret
100002c24: aa1303e0    	mov	x0, x19
100002c28: 528003a1    	mov	w1, #29
100002c2c: 9400156a    	bl	0x1000081d4 <_barn_parser_is_next_token>
100002c30: 34000180    	cbz	w0, 0x100002c60 <_barn_get_expr_value+0x178>
100002c34: aa1303e0    	mov	x0, x19
100002c38: 94000243    	bl	0x100003544 <___barn_parser_func_call>
100002c3c: f9403408    	ldr	x8, [x0, #104]
100002c40: f9400d08    	ldr	x8, [x8, #24]
100002c44: f9000688    	str	x8, [x20, #8]
100002c48: f9402808    	ldr	x8, [x0, #80]
100002c4c: f9000288    	str	x8, [x20]
100002c50: f9000e80    	str	x0, [x20, #24]
100002c54: 52800028    	mov	w8, #1
100002c58: 39004688    	strb	w8, [x20, #17]
100002c5c: 17ffffdd    	b	0x100002bd0 <_barn_get_expr_value+0xe8>
100002c60: f9400a68    	ldr	x8, [x19, #16]
100002c64: f9400101    	ldr	x1, [x8]
100002c68: aa1303e0    	mov	x0, x19
100002c6c: 94001984    	bl	0x10000927c <_barn_parser_is_variable_defined_lg>
100002c70: f9400a68    	ldr	x8, [x19, #16]
100002c74: f9400115    	ldr	x21, [x8]
100002c78: 340003a0    	cbz	w0, 0x100002cec <_barn_get_expr_value+0x204>
100002c7c: aa1303f6    	mov	x22, x19
100002c80: f8430ec8    	ldr	x8, [x22, #48]!
100002c84: f9400509    	ldr	x9, [x8, #8]
100002c88: b40001a9    	cbz	x9, 0x100002cbc <_barn_get_expr_value+0x1d4>
100002c8c: d2800017    	mov	x23, #0
100002c90: f9400908    	ldr	x8, [x8, #16]
100002c94: f8777908    	ldr	x8, [x8, x23, lsl  #3]
100002c98: f9400900    	ldr	x0, [x8, #16]
100002c9c: aa1503e1    	mov	x1, x21
100002ca0: 940019ea    	bl	0x100009448 <_strlen+0x100009448>
100002ca4: 34000440    	cbz	w0, 0x100002d2c <_barn_get_expr_value+0x244>
100002ca8: 910006f7    	add	x23, x23, #1
100002cac: f94002c8    	ldr	x8, [x22]
100002cb0: f9400509    	ldr	x9, [x8, #8]
100002cb4: eb17013f    	cmp	x9, x23
100002cb8: 54fffec8    	b.hi	0x100002c90 <_barn_get_expr_value+0x1a8>
100002cbc: d2800017    	mov	x23, #0
100002cc0: aa1303f6    	mov	x22, x19
100002cc4: f8428ec8    	ldr	x8, [x22, #40]!
100002cc8: f9400908    	ldr	x8, [x8, #16]
100002ccc: f8777908    	ldr	x8, [x8, x23, lsl  #3]
100002cd0: f9400900    	ldr	x0, [x8, #16]
100002cd4: aa1503e1    	mov	x1, x21
100002cd8: 940019dc    	bl	0x100009448 <_strlen+0x100009448>
100002cdc: 34000280    	cbz	w0, 0x100002d2c <_barn_get_expr_value+0x244>
100002ce0: 910006f7    	add	x23, x23, #1
100002ce4: f94002c8    	ldr	x8, [x22]
100002ce8: 17fffff8    	b	0x100002cc8 <_barn_get_expr_value+0x1e0>
100002cec: f0000021    	adrp	x1, 0x100009000 <_barn_get_expr_value+0x220>
100002cf0: 9135f421    	add	x1, x1, #3453
100002cf4: aa1503e0    	mov	x0, x21
100002cf8: 940019d4    	bl	0x100009448 <_strlen+0x100009448>
100002cfc: 340000e0    	cbz	w0, 0x100002d18 <_barn_get_expr_value+0x230>
100002d00: f9400a68    	ldr	x8, [x19, #16]
100002d04: f9400100    	ldr	x0, [x8]
100002d08: f0000021    	adrp	x1, 0x100009000 <_barn_get_expr_value+0x23c>
100002d0c: 91360821    	add	x1, x1, #3458
100002d10: 940019ce    	bl	0x100009448 <_strlen+0x100009448>
100002d14: 35000720    	cbnz	w0, 0x100002df8 <_barn_get_expr_value+0x310>
100002d18: f9400a68    	ldr	x8, [x19, #16]
100002d1c: d0000069    	adrp	x9, 0x100010000 <_barn_get_expr_value+0x26c>
100002d20: f9402929    	ldr	x9, [x9, #80]
100002d24: a9002688    	stp	x8, x9, [x20]
100002d28: 14000008    	b	0x100002d48 <_barn_get_expr_value+0x260>
100002d2c: f94002c8    	ldr	x8, [x22]
100002d30: f9400908    	ldr	x8, [x8, #16]
100002d34: f8775908    	ldr	x8, [x8, w23, uxtw  #3]
100002d38: f9400a69    	ldr	x9, [x19, #16]
100002d3c: f9000289    	str	x9, [x20]
100002d40: f9400508    	ldr	x8, [x8, #8]
100002d44: f9000688    	str	x8, [x20, #8]
100002d48: 52800028    	mov	w8, #1
100002d4c: 79002288    	strh	w8, [x20, #16]
100002d50: 17ffffa0    	b	0x100002bd0 <_barn_get_expr_value+0xe8>
100002d54: 52800428    	mov	w8, #33
100002d58: f0000029    	adrp	x9, 0x100009000 <_barn_get_expr_value+0x28c>
100002d5c: 9131d529    	add	x9, x9, #3189
100002d60: a90123e9    	stp	x9, x8, [sp, #16]
100002d64: f0000028    	adrp	x8, 0x100009000 <_barn_get_expr_value+0x298>
100002d68: 91318908    	add	x8, x8, #3170
100002d6c: f0000029    	adrp	x9, 0x100009000 <_barn_get_expr_value+0x2a0>
100002d70: 91315d29    	add	x9, x9, #3159
100002d74: a90023e9    	stp	x9, x8, [sp]
100002d78: b0000041    	adrp	x1, 0x10000b000 <_barn_get_expr_value+0x2b4>
100002d7c: 910ea421    	add	x1, x1, #937
100002d80: 528000e0    	mov	w0, #7
100002d84: 97ffff0b    	bl	0x1000029b0 <_barn_error_show>
100002d88: 52800020    	mov	w0, #1
100002d8c: 94001988    	bl	0x1000093ac <_strlen+0x1000093ac>
100002d90: aa1303e0    	mov	x0, x19
100002d94: 12800001    	mov	w1, #-1
100002d98: 94001500    	bl	0x100008198 <_barn_parser_skip>
100002d9c: f9400a68    	ldr	x8, [x19, #16]
100002da0: 2943250a    	ldp	w10, w9, [x8, #24]
100002da4: 51000523    	sub	w3, w9, #1
100002da8: 51000544    	sub	w4, w10, #1
100002dac: a9409902    	ldp	x2, x6, [x8, #8]
100002db0: f9400108    	ldr	x8, [x8]
100002db4: f90003e8    	str	x8, [sp]
100002db8: f0000027    	adrp	x7, 0x100009000 <_barn_get_expr_value+0x2ec>
100002dbc: 913580e7    	add	x7, x7, #3424
100002dc0: 14000009    	b	0x100002de4 <_barn_get_expr_value+0x2fc>
100002dc4: 2943250a    	ldp	w10, w9, [x8, #24]
100002dc8: 51000523    	sub	w3, w9, #1
100002dcc: 51000544    	sub	w4, w10, #1
100002dd0: a9409902    	ldp	x2, x6, [x8, #8]
100002dd4: f9400108    	ldr	x8, [x8]
100002dd8: f90003e8    	str	x8, [sp]
100002ddc: f0000027    	adrp	x7, 0x100009000 <_barn_get_expr_value+0x310>
100002de0: 9136ace7    	add	x7, x7, #3499
100002de4: 52800041    	mov	w1, #2
100002de8: 52800005    	mov	w5, #0
100002dec: 97fffe30    	bl	0x1000026ac <_barn_error_show_with_line>
100002df0: 52800020    	mov	w0, #1
100002df4: 9400196e    	bl	0x1000093ac <_strlen+0x1000093ac>
100002df8: f9400a68    	ldr	x8, [x19, #16]
100002dfc: 2943250a    	ldp	w10, w9, [x8, #24]
100002e00: 51000523    	sub	w3, w9, #1
100002e04: 51000544    	sub	w4, w10, #1
100002e08: a9409902    	ldp	x2, x6, [x8, #8]
100002e0c: f9400108    	ldr	x8, [x8]
100002e10: f90003e8    	str	x8, [sp]
100002e14: f0000027    	adrp	x7, 0x100009000 <_barn_expression_division_by_zero+0xc>
100002e18: 913620e7    	add	x7, x7, #3464
100002e1c: 52800121    	mov	w1, #9
100002e20: 17fffff2    	b	0x100002de8 <_barn_get_expr_value+0x300>

0000000100002e24 <_barn_expression_division_by_zero>:
100002e24: d100c3ff    	sub	sp, sp, #48
100002e28: a9014ff4    	stp	x20, x19, [sp, #16]
100002e2c: a9027bfd    	stp	x29, x30, [sp, #32]
100002e30: b40003c1    	cbz	x1, 0x100002ea8 <_barn_expression_division_by_zero+0x84>
100002e34: aa0003f3    	mov	x19, x0
100002e38: b9402028    	ldr	w8, [x1, #32]
100002e3c: 7100151f    	cmp	w8, #5
100002e40: 540002c0    	b.eq	0x100002e98 <_barn_expression_division_by_zero+0x74>
100002e44: 71000d1f    	cmp	w8, #3
100002e48: 54000301    	b.ne	0x100002ea8 <_barn_expression_division_by_zero+0x84>
100002e4c: f9400020    	ldr	x0, [x1]
100002e50: 9400194e    	bl	0x100009388 <_strlen+0x100009388>
100002e54: b50002a0    	cbnz	x0, 0x100002ea8 <_barn_expression_division_by_zero+0x84>
100002e58: aa1303e0    	mov	x0, x19
100002e5c: 12800001    	mov	w1, #-1
100002e60: 940014ce    	bl	0x100008198 <_barn_parser_skip>
100002e64: f9400a68    	ldr	x8, [x19, #16]
100002e68: 2943250a    	ldp	w10, w9, [x8, #24]
100002e6c: 51000523    	sub	w3, w9, #1
100002e70: 51000544    	sub	w4, w10, #1
100002e74: a9409902    	ldp	x2, x6, [x8, #8]
100002e78: f90003ff    	str	xzr, [sp]
100002e7c: f0000027    	adrp	x7, 0x100009000 <_barn_expression_division_by_zero+0x74>
100002e80: 91395ce7    	add	x7, x7, #3671
100002e84: 52800141    	mov	w1, #10
100002e88: 52800005    	mov	w5, #0
100002e8c: 97fffe08    	bl	0x1000026ac <_barn_error_show_with_line>
100002e90: 52800020    	mov	w0, #1
100002e94: 94001946    	bl	0x1000093ac <_strlen+0x1000093ac>
100002e98: f9400020    	ldr	x0, [x1]
100002e9c: 94001938    	bl	0x10000937c <_strlen+0x10000937c>
100002ea0: 1e602008    	fcmp	d0, #0.0
100002ea4: 54fffda0    	b.eq	0x100002e58 <_barn_expression_division_by_zero+0x34>
100002ea8: a9427bfd    	ldp	x29, x30, [sp, #32]
100002eac: a9414ff4    	ldp	x20, x19, [sp, #16]
100002eb0: 9100c3ff    	add	sp, sp, #48
100002eb4: d65f03c0    	ret

0000000100002eb8 <_barn_parse_expression>:
100002eb8: d10243ff    	sub	sp, sp, #144
100002ebc: a9036ffc    	stp	x28, x27, [sp, #48]
100002ec0: a90467fa    	stp	x26, x25, [sp, #64]
100002ec4: a9055ff8    	stp	x24, x23, [sp, #80]
100002ec8: a90657f6    	stp	x22, x21, [sp, #96]
100002ecc: a9074ff4    	stp	x20, x19, [sp, #112]
100002ed0: a9087bfd    	stp	x29, x30, [sp, #128]
100002ed4: aa0303f8    	mov	x24, x3
100002ed8: aa0203f3    	mov	x19, x2
100002edc: aa0103f4    	mov	x20, x1
100002ee0: aa0003f5    	mov	x21, x0
100002ee4: 52800020    	mov	w0, #1
100002ee8: 52800e01    	mov	w1, #112
100002eec: 9400192d    	bl	0x1000093a0 <_strlen+0x1000093a0>
100002ef0: aa0003f6    	mov	x22, x0
100002ef4: 52800088    	mov	w8, #4
100002ef8: b9000008    	str	w8, [x0]
100002efc: 52800100    	mov	w0, #8
100002f00: 97fffb29    	bl	0x100001ba4 <_barn_create_array>
100002f04: f90017f6    	str	x22, [sp, #40]
100002f08: f90026c0    	str	x0, [x22, #72]
100002f0c: f9400aa8    	ldr	x8, [x21, #16]
100002f10: b9402109    	ldr	w9, [x8, #32]
100002f14: 6b14013f    	cmp	w9, w20
100002f18: 7a531124    	ccmp	w9, w19, #4, ne
100002f1c: 540027a0    	b.eq	0x100003410 <_barn_parse_expression+0x558>
100002f20: 7100053f    	cmp	w9, #1
100002f24: 540029a0    	b.eq	0x100003458 <_barn_parse_expression+0x5a0>
100002f28: 52800020    	mov	w0, #1
100002f2c: 52800501    	mov	w1, #40
100002f30: 9400191c    	bl	0x1000093a0 <_strlen+0x1000093a0>
100002f34: aa0003f7    	mov	x23, x0
100002f38: d2800008    	mov	x8, #0
100002f3c: 39006018    	strb	w24, [x0, #24]
100002f40: b0000058    	adrp	x24, 0x10000b000 <_barn_parse_expression+0xac>
100002f44: 911b0318    	add	x24, x24, #1728
100002f48: f94017e9    	ldr	x9, [sp, #40]
100002f4c: f9001009    	str	x9, [x0, #32]
100002f50: 29024c14    	stp	w20, w19, [x0, #16]
100002f54: f900041f    	str	xzr, [x0, #8]
100002f58: 14000005    	b	0x100002f6c <_barn_parse_expression+0xb4>
100002f5c: d2800008    	mov	x8, #0
100002f60: f9000abf    	str	xzr, [x21, #16]
100002f64: f94002e8    	ldr	x8, [x23]
100002f68: 91000508    	add	x8, x8, #1
100002f6c: f90002e8    	str	x8, [x23]
100002f70: f9400aa8    	ldr	x8, [x21, #16]
100002f74: f9400108    	ldr	x8, [x8]
100002f78: f90003e8    	str	x8, [sp]
100002f7c: aa1803e0    	mov	x0, x24
100002f80: 9400192c    	bl	0x100009430 <_strlen+0x100009430>
100002f84: f9400aa8    	ldr	x8, [x21, #16]
100002f88: b9402119    	ldr	w25, [x8, #32]
100002f8c: 71007b3f    	cmp	w25, #30
100002f90: 54000200    	b.eq	0x100002fd0 <_barn_parse_expression+0x118>
100002f94: 71007729    	subs	w9, w25, #29
100002f98: 54000461    	b.ne	0x100003024 <_barn_parse_expression+0x16c>
100002f9c: f94002e8    	ldr	x8, [x23]
100002fa0: b5000068    	cbnz	x8, 0x100002fac <_barn_parse_expression+0xf4>
100002fa4: 92800008    	mov	x8, #-1
100002fa8: f90002e8    	str	x8, [x23]
100002fac: 52801688    	mov	w8, #180
100002fb0: f90003e8    	str	x8, [sp]
100002fb4: f0000020    	adrp	x0, 0x100009000 <_barn_parse_expression+0x118>
100002fb8: 91374000    	add	x0, x0, #3536
100002fbc: 9400191d    	bl	0x100009430 <_strlen+0x100009430>
100002fc0: f94006e8    	ldr	x8, [x23, #8]
100002fc4: 91000508    	add	x8, x8, #1
100002fc8: f90006e8    	str	x8, [x23, #8]
100002fcc: 14000009    	b	0x100002ff0 <_barn_parse_expression+0x138>
100002fd0: f94006e9    	ldr	x9, [x23, #8]
100002fd4: b40021a9    	cbz	x9, 0x100003408 <_barn_parse_expression+0x550>
100002fd8: d1000528    	sub	x8, x9, #1
100002fdc: f90006e8    	str	x8, [x23, #8]
100002fe0: f90003e8    	str	x8, [sp]
100002fe4: f0000020    	adrp	x0, 0x100009000 <_barn_parse_expression+0x148>
100002fe8: 9137fc00    	add	x0, x0, #3583
100002fec: 94001911    	bl	0x100009430 <_strlen+0x100009430>
100002ff0: b9801ea8    	ldrsw	x8, [x21, #28]
100002ff4: 91000508    	add	x8, x8, #1
100002ff8: b9001ea8    	str	w8, [x21, #28]
100002ffc: f94006a9    	ldr	x9, [x21, #8]
100003000: f9400d29    	ldr	x9, [x9, #24]
100003004: b4fffac9    	cbz	x9, 0x100002f5c <_barn_parse_expression+0xa4>
100003008: f940052a    	ldr	x10, [x9, #8]
10000300c: eb08015f    	cmp	x10, x8
100003010: 54fffa69    	b.ls	0x100002f5c <_barn_parse_expression+0xa4>
100003014: f9400929    	ldr	x9, [x9, #16]
100003018: f8687928    	ldr	x8, [x9, x8, lsl  #3]
10000301c: f9000aa8    	str	x8, [x21, #16]
100003020: 17ffffd1    	b	0x100002f64 <_barn_parse_expression+0xac>
100003024: 5100072a    	sub	w10, w25, #1
100003028: 7100095f    	cmp	w10, #2
10000302c: 7a532324    	ccmp	w25, w19, #4, hs
100003030: 7a541324    	ccmp	w25, w20, #4, ne
100003034: 54001ee0    	b.eq	0x100003410 <_barn_parse_expression+0x558>
100003038: f94002ea    	ldr	x10, [x23]
10000303c: b40003ca    	cbz	x10, 0x1000030b4 <_barn_parse_expression+0x1fc>
100003040: 5100232a    	sub	w10, w25, #8
100003044: 7100115f    	cmp	w10, #4
100003048: 54000063    	b.lo	0x100003054 <_barn_parse_expression+0x19c>
10000304c: 7100093f    	cmp	w9, #2
100003050: 540023a2    	b.hs	0x1000034c4 <_barn_parse_expression+0x60c>
100003054: b9801ea8    	ldrsw	x8, [x21, #28]
100003058: 91000508    	add	x8, x8, #1
10000305c: b9001ea8    	str	w8, [x21, #28]
100003060: f94006a9    	ldr	x9, [x21, #8]
100003064: f9400d29    	ldr	x9, [x9, #24]
100003068: b40000e9    	cbz	x9, 0x100003084 <_barn_parse_expression+0x1cc>
10000306c: f940052a    	ldr	x10, [x9, #8]
100003070: eb08015f    	cmp	x10, x8
100003074: 54000089    	b.ls	0x100003084 <_barn_parse_expression+0x1cc>
100003078: f9400929    	ldr	x9, [x9, #16]
10000307c: f8687928    	ldr	x8, [x9, x8, lsl  #3]
100003080: 14000002    	b	0x100003088 <_barn_parse_expression+0x1d0>
100003084: d2800008    	mov	x8, #0
100003088: f9000aa8    	str	x8, [x21, #16]
10000308c: 71002f3f    	cmp	w25, #11
100003090: 540005e1    	b.ne	0x10000314c <_barn_parse_expression+0x294>
100003094: f94012e8    	ldr	x8, [x23, #32]
100003098: f9402508    	ldr	x8, [x8, #72]
10000309c: f9400509    	ldr	x9, [x8, #8]
1000030a0: b4000689    	cbz	x9, 0x100003170 <_barn_parse_expression+0x2b8>
1000030a4: f9400908    	ldr	x8, [x8, #16]
1000030a8: 8b090d08    	add	x8, x8, x9, lsl #3
1000030ac: f85f8116    	ldur	x22, [x8, #-8]
1000030b0: 14000031    	b	0x100003174 <_barn_parse_expression+0x2bc>
1000030b4: aa1503e0    	mov	x0, x21
1000030b8: 97fffe8c    	bl	0x100002ae8 <_barn_get_expr_value>
1000030bc: aa0003fc    	mov	x28, x0
1000030c0: f9400aa8    	ldr	x8, [x21, #16]
1000030c4: b940211a    	ldr	w26, [x8, #32]
1000030c8: 51000749    	sub	w9, w26, #1
1000030cc: 7100093f    	cmp	w9, #2
1000030d0: 540000e3    	b.lo	0x1000030ec <_barn_parse_expression+0x234>
1000030d4: b94012e9    	ldr	w9, [x23, #16]
1000030d8: 6b09035f    	cmp	w26, w9
1000030dc: 54000080    	b.eq	0x1000030ec <_barn_parse_expression+0x234>
1000030e0: b94016e9    	ldr	w9, [x23, #20]
1000030e4: 6b09035f    	cmp	w26, w9
1000030e8: 54000cc1    	b.ne	0x100003280 <_barn_parse_expression+0x3c8>
1000030ec: f94006f6    	ldr	x22, [x23, #8]
1000030f0: 52800020    	mov	w0, #1
1000030f4: 52800401    	mov	w1, #32
1000030f8: 940018aa    	bl	0x1000093a0 <_strlen+0x1000093a0>
1000030fc: b40019c0    	cbz	x0, 0x100003434 <_barn_parse_expression+0x57c>
100003100: aa0003fb    	mov	x27, x0
100003104: a9007c1c    	stp	x28, xzr, [x0]
100003108: b900101f    	str	wzr, [x0, #16]
10000310c: f9000c16    	str	x22, [x0, #24]
100003110: f94012e8    	ldr	x8, [x23, #32]
100003114: f9402519    	ldr	x25, [x8, #72]
100003118: b4fff279    	cbz	x25, 0x100002f64 <_barn_parse_expression+0xac>
10000311c: a9408328    	ldp	x8, x0, [x25, #8]
100003120: d37df108    	lsl	x8, x8, #3
100003124: 91002101    	add	x1, x8, #8
100003128: 940018c5    	bl	0x10000943c <_strlen+0x10000943c>
10000312c: b4001ae0    	cbz	x0, 0x100003488 <_barn_parse_expression+0x5d0>
100003130: f9000b20    	str	x0, [x25, #16]
100003134: f9400728    	ldr	x8, [x25, #8]
100003138: f828781b    	str	x27, [x0, x8, lsl  #3]
10000313c: f9400728    	ldr	x8, [x25, #8]
100003140: 91000508    	add	x8, x8, #1
100003144: f9000728    	str	x8, [x25, #8]
100003148: 17ffff87    	b	0x100002f64 <_barn_parse_expression+0xac>
10000314c: b9402109    	ldr	w9, [x8, #32]
100003150: 7100053f    	cmp	w9, #1
100003154: 54001820    	b.eq	0x100003458 <_barn_parse_expression+0x5a0>
100003158: aa1503e0    	mov	x0, x21
10000315c: 97fffe63    	bl	0x100002ae8 <_barn_get_expr_value>
100003160: aa0003fc    	mov	x28, x0
100003164: b4000300    	cbz	x0, 0x1000031c4 <_barn_parse_expression+0x30c>
100003168: 5280001a    	mov	w26, #0
10000316c: 14000027    	b	0x100003208 <_barn_parse_expression+0x350>
100003170: d2800016    	mov	x22, #0
100003174: f94002c8    	ldr	x8, [x22]
100003178: f90003e8    	str	x8, [sp]
10000317c: d0000020    	adrp	x0, 0x100009000 <_barn_parse_expression+0x2dc>
100003180: 9138c400    	add	x0, x0, #3633
100003184: 940018ab    	bl	0x100009430 <_strlen+0x100009430>
100003188: f94002c1    	ldr	x1, [x22]
10000318c: aa1503e0    	mov	x0, x21
100003190: 97ffff25    	bl	0x100002e24 <_barn_expression_division_by_zero>
100003194: f9400aa8    	ldr	x8, [x21, #16]
100003198: b9402109    	ldr	w9, [x8, #32]
10000319c: 7100053f    	cmp	w9, #1
1000031a0: 540015c0    	b.eq	0x100003458 <_barn_parse_expression+0x5a0>
1000031a4: aa1503e0    	mov	x0, x21
1000031a8: 97fffe50    	bl	0x100002ae8 <_barn_get_expr_value>
1000031ac: aa0003fc    	mov	x28, x0
1000031b0: f9400001    	ldr	x1, [x0]
1000031b4: aa1503e0    	mov	x0, x21
1000031b8: 97ffff1b    	bl	0x100002e24 <_barn_expression_division_by_zero>
1000031bc: 5280001a    	mov	w26, #0
1000031c0: 14000012    	b	0x100003208 <_barn_parse_expression+0x350>
1000031c4: 92800008    	mov	x8, #-1
1000031c8: f90002e8    	str	x8, [x23]
1000031cc: b9801ea8    	ldrsw	x8, [x21, #28]
1000031d0: d1000508    	sub	x8, x8, #1
1000031d4: b9001ea8    	str	w8, [x21, #28]
1000031d8: f94006a9    	ldr	x9, [x21, #8]
1000031dc: f9400d29    	ldr	x9, [x9, #24]
1000031e0: b40000e9    	cbz	x9, 0x1000031fc <_barn_parse_expression+0x344>
1000031e4: f940052a    	ldr	x10, [x9, #8]
1000031e8: eb08015f    	cmp	x10, x8
1000031ec: 54000089    	b.ls	0x1000031fc <_barn_parse_expression+0x344>
1000031f0: f9400929    	ldr	x9, [x9, #16]
1000031f4: f8687928    	ldr	x8, [x9, x8, lsl  #3]
1000031f8: 14000002    	b	0x100003200 <_barn_parse_expression+0x348>
1000031fc: d2800008    	mov	x8, #0
100003200: f9000aa8    	str	x8, [x21, #16]
100003204: 5280003a    	mov	w26, #1
100003208: f94006f6    	ldr	x22, [x23, #8]
10000320c: 52800020    	mov	w0, #1
100003210: 52800401    	mov	w1, #32
100003214: 94001863    	bl	0x1000093a0 <_strlen+0x1000093a0>
100003218: b40010e0    	cbz	x0, 0x100003434 <_barn_parse_expression+0x57c>
10000321c: aa0003fb    	mov	x27, x0
100003220: a900701f    	stp	xzr, x28, [x0]
100003224: b9001019    	str	w25, [x0, #16]
100003228: f9000c16    	str	x22, [x0, #24]
10000322c: f94012e8    	ldr	x8, [x23, #32]
100003230: f9402519    	ldr	x25, [x8, #72]
100003234: b4000199    	cbz	x25, 0x100003264 <_barn_parse_expression+0x3ac>
100003238: a9408328    	ldp	x8, x0, [x25, #8]
10000323c: d37df108    	lsl	x8, x8, #3
100003240: 91002101    	add	x1, x8, #8
100003244: 9400187e    	bl	0x10000943c <_strlen+0x10000943c>
100003248: b4001200    	cbz	x0, 0x100003488 <_barn_parse_expression+0x5d0>
10000324c: f9000b20    	str	x0, [x25, #16]
100003250: f9400728    	ldr	x8, [x25, #8]
100003254: f828781b    	str	x27, [x0, x8, lsl  #3]
100003258: f9400728    	ldr	x8, [x25, #8]
10000325c: 91000508    	add	x8, x8, #1
100003260: f9000728    	str	x8, [x25, #8]
100003264: 34ffe81a    	cbz	w26, 0x100002f64 <_barn_parse_expression+0xac>
100003268: 52801f48    	mov	w8, #250
10000326c: f90003e8    	str	x8, [sp]
100003270: d0000020    	adrp	x0, 0x100009000 <_barn_parse_expression+0x3d0>
100003274: 91374000    	add	x0, x0, #3536
100003278: 9400186e    	bl	0x100009430 <_strlen+0x100009430>
10000327c: 17ffff3a    	b	0x100002f64 <_barn_parse_expression+0xac>
100003280: 51002349    	sub	w9, w26, #8
100003284: 7100113f    	cmp	w9, #4
100003288: 54000083    	b.lo	0x100003298 <_barn_parse_expression+0x3e0>
10000328c: 51007749    	sub	w9, w26, #29
100003290: 7100093f    	cmp	w9, #2
100003294: 54001382    	b.hs	0x100003504 <_barn_parse_expression+0x64c>
100003298: b9801ea8    	ldrsw	x8, [x21, #28]
10000329c: 91000508    	add	x8, x8, #1
1000032a0: b9001ea8    	str	w8, [x21, #28]
1000032a4: f94006a9    	ldr	x9, [x21, #8]
1000032a8: f9400d29    	ldr	x9, [x9, #24]
1000032ac: b40000e9    	cbz	x9, 0x1000032c8 <_barn_parse_expression+0x410>
1000032b0: f940052a    	ldr	x10, [x9, #8]
1000032b4: eb08015f    	cmp	x10, x8
1000032b8: 54000089    	b.ls	0x1000032c8 <_barn_parse_expression+0x410>
1000032bc: f9400929    	ldr	x9, [x9, #16]
1000032c0: f8687928    	ldr	x8, [x9, x8, lsl  #3]
1000032c4: 14000002    	b	0x1000032cc <_barn_parse_expression+0x414>
1000032c8: d2800008    	mov	x8, #0
1000032cc: f9000aa8    	str	x8, [x21, #16]
1000032d0: 71002f5f    	cmp	w26, #11
1000032d4: 54000201    	b.ne	0x100003314 <_barn_parse_expression+0x45c>
1000032d8: f9400381    	ldr	x1, [x28]
1000032dc: aa1503e0    	mov	x0, x21
1000032e0: 97fffed1    	bl	0x100002e24 <_barn_expression_division_by_zero>
1000032e4: f9400aa8    	ldr	x8, [x21, #16]
1000032e8: b9402109    	ldr	w9, [x8, #32]
1000032ec: 7100053f    	cmp	w9, #1
1000032f0: 54000b40    	b.eq	0x100003458 <_barn_parse_expression+0x5a0>
1000032f4: aa1503e0    	mov	x0, x21
1000032f8: 97fffdfc    	bl	0x100002ae8 <_barn_get_expr_value>
1000032fc: aa0003fb    	mov	x27, x0
100003300: f9400001    	ldr	x1, [x0]
100003304: aa1503e0    	mov	x0, x21
100003308: 97fffec7    	bl	0x100002e24 <_barn_expression_division_by_zero>
10000330c: b90027ff    	str	wzr, [sp, #36]
100003310: 1400001c    	b	0x100003380 <_barn_parse_expression+0x4c8>
100003314: b9402109    	ldr	w9, [x8, #32]
100003318: 7100053f    	cmp	w9, #1
10000331c: 540009e0    	b.eq	0x100003458 <_barn_parse_expression+0x5a0>
100003320: aa1503e0    	mov	x0, x21
100003324: 97fffdf1    	bl	0x100002ae8 <_barn_get_expr_value>
100003328: aa0003fb    	mov	x27, x0
10000332c: b4000060    	cbz	x0, 0x100003338 <_barn_parse_expression+0x480>
100003330: b90027ff    	str	wzr, [sp, #36]
100003334: 14000013    	b	0x100003380 <_barn_parse_expression+0x4c8>
100003338: 92800008    	mov	x8, #-1
10000333c: f90002e8    	str	x8, [x23]
100003340: b9801ea8    	ldrsw	x8, [x21, #28]
100003344: d1000508    	sub	x8, x8, #1
100003348: b9001ea8    	str	w8, [x21, #28]
10000334c: f94006a9    	ldr	x9, [x21, #8]
100003350: f9400d29    	ldr	x9, [x9, #24]
100003354: b40000e9    	cbz	x9, 0x100003370 <_barn_parse_expression+0x4b8>
100003358: f940052a    	ldr	x10, [x9, #8]
10000335c: eb08015f    	cmp	x10, x8
100003360: 54000089    	b.ls	0x100003370 <_barn_parse_expression+0x4b8>
100003364: f9400929    	ldr	x9, [x9, #16]
100003368: f8687928    	ldr	x8, [x9, x8, lsl  #3]
10000336c: 14000002    	b	0x100003374 <_barn_parse_expression+0x4bc>
100003370: d2800008    	mov	x8, #0
100003374: f9000aa8    	str	x8, [x21, #16]
100003378: 52800028    	mov	w8, #1
10000337c: b90027e8    	str	w8, [sp, #36]
100003380: f94006f6    	ldr	x22, [x23, #8]
100003384: 52800020    	mov	w0, #1
100003388: 52800401    	mov	w1, #32
10000338c: 94001805    	bl	0x1000093a0 <_strlen+0x1000093a0>
100003390: b4000520    	cbz	x0, 0x100003434 <_barn_parse_expression+0x57c>
100003394: aa0003f9    	mov	x25, x0
100003398: a9006c1c    	stp	x28, x27, [x0]
10000339c: b900101a    	str	w26, [x0, #16]
1000033a0: f9000c16    	str	x22, [x0, #24]
1000033a4: f94012e8    	ldr	x8, [x23, #32]
1000033a8: f940251a    	ldr	x26, [x8, #72]
1000033ac: b400019a    	cbz	x26, 0x1000033dc <_barn_parse_expression+0x524>
1000033b0: a9408348    	ldp	x8, x0, [x26, #8]
1000033b4: d37df108    	lsl	x8, x8, #3
1000033b8: 91002101    	add	x1, x8, #8
1000033bc: 94001820    	bl	0x10000943c <_strlen+0x10000943c>
1000033c0: b4000640    	cbz	x0, 0x100003488 <_barn_parse_expression+0x5d0>
1000033c4: f9000b40    	str	x0, [x26, #16]
1000033c8: f9400748    	ldr	x8, [x26, #8]
1000033cc: f8287819    	str	x25, [x0, x8, lsl  #3]
1000033d0: f9400748    	ldr	x8, [x26, #8]
1000033d4: 91000508    	add	x8, x8, #1
1000033d8: f9000748    	str	x8, [x26, #8]
1000033dc: f100039f    	cmp	x28, #0
1000033e0: 1a9f17e8    	cset	w8, eq
1000033e4: b94027e9    	ldr	w9, [sp, #36]
1000033e8: 2a080128    	orr	w8, w9, w8
1000033ec: 7100051f    	cmp	w8, #1
1000033f0: 54ffdba1    	b.ne	0x100002f64 <_barn_parse_expression+0xac>
1000033f4: f94006e8    	ldr	x8, [x23, #8]
1000033f8: 91000508    	add	x8, x8, #1
1000033fc: f90006e8    	str	x8, [x23, #8]
100003400: 52802948    	mov	w8, #330
100003404: 17ffff9a    	b	0x10000326c <_barn_parse_expression+0x3b4>
100003408: 394062e9    	ldrb	w9, [x23, #24]
10000340c: 340006c9    	cbz	w9, 0x1000034e4 <_barn_parse_expression+0x62c>
100003410: f94017e0    	ldr	x0, [sp, #40]
100003414: a9487bfd    	ldp	x29, x30, [sp, #128]
100003418: a9474ff4    	ldp	x20, x19, [sp, #112]
10000341c: a94657f6    	ldp	x22, x21, [sp, #96]
100003420: a9455ff8    	ldp	x24, x23, [sp, #80]
100003424: a94467fa    	ldp	x26, x25, [sp, #64]
100003428: a9436ffc    	ldp	x28, x27, [sp, #48]
10000342c: 910243ff    	add	sp, sp, #144
100003430: d65f03c0    	ret
100003434: 528005a8    	mov	w8, #45
100003438: d0000029    	adrp	x9, 0x100009000 <_barn_parse_expression+0x598>
10000343c: 91335129    	add	x9, x9, #3284
100003440: a90123e9    	stp	x9, x8, [sp, #16]
100003444: d0000028    	adrp	x8, 0x100009000 <_barn_parse_expression+0x5a4>
100003448: 91318908    	add	x8, x8, #3170
10000344c: d0000029    	adrp	x9, 0x100009000 <_barn_parse_expression+0x5ac>
100003450: 91332929    	add	x9, x9, #3274
100003454: 14000015    	b	0x1000034a8 <_barn_parse_expression+0x5f0>
100003458: 2943250a    	ldp	w10, w9, [x8, #24]
10000345c: 51000523    	sub	w3, w9, #1
100003460: 51000544    	sub	w4, w10, #1
100003464: a9409902    	ldp	x2, x6, [x8, #8]
100003468: f90003ff    	str	xzr, [sp]
10000346c: d0000027    	adrp	x7, 0x100009000 <_barn_parse_expression+0x5cc>
100003470: 9138d4e7    	add	x7, x7, #3637
100003474: 52800041    	mov	w1, #2
100003478: 52800005    	mov	w5, #0
10000347c: 97fffc8c    	bl	0x1000026ac <_barn_error_show_with_line>
100003480: 52800020    	mov	w0, #1
100003484: 940017ca    	bl	0x1000093ac <_strlen+0x1000093ac>
100003488: 52800b88    	mov	w8, #92
10000348c: d0000029    	adrp	x9, 0x100009000 <_barn_parse_expression+0x5ec>
100003490: 911dd529    	add	x9, x9, #1909
100003494: a90123e9    	stp	x9, x8, [sp, #16]
100003498: d0000028    	adrp	x8, 0x100009000 <_barn_parse_expression+0x5f8>
10000349c: 911cc908    	add	x8, x8, #1842
1000034a0: d0000029    	adrp	x9, 0x100009000 <_barn_parse_expression+0x600>
1000034a4: 911db529    	add	x9, x9, #1901
1000034a8: a90023e9    	stp	x9, x8, [sp]
1000034ac: 90000041    	adrp	x1, 0x10000b000 <_barn_parse_expression+0x614>
1000034b0: 910ea421    	add	x1, x1, #937
1000034b4: 528000e0    	mov	w0, #7
1000034b8: 97fffd3e    	bl	0x1000029b0 <_barn_error_show>
1000034bc: 52800020    	mov	w0, #1
1000034c0: 940017bb    	bl	0x1000093ac <_strlen+0x1000093ac>
1000034c4: 2943250a    	ldp	w10, w9, [x8, #24]
1000034c8: a9409902    	ldp	x2, x6, [x8, #8]
1000034cc: 7100a33f    	cmp	w25, #40
1000034d0: 540002a8    	b.hi	0x100003524 <_barn_parse_expression+0x66c>
1000034d4: b0000048    	adrp	x8, 0x10000c000 <_barn_parse_expression+0x640>
1000034d8: 91076108    	add	x8, x8, #472
1000034dc: f8797908    	ldr	x8, [x8, x25, lsl  #3]
1000034e0: 14000013    	b	0x10000352c <_barn_parse_expression+0x674>
1000034e4: 2943250a    	ldp	w10, w9, [x8, #24]
1000034e8: 51000523    	sub	w3, w9, #1
1000034ec: 51000544    	sub	w4, w10, #1
1000034f0: a9409902    	ldp	x2, x6, [x8, #8]
1000034f4: f90003ff    	str	xzr, [sp]
1000034f8: d0000027    	adrp	x7, 0x100009000 <_barn_parse_expression+0x658>
1000034fc: 913780e7    	add	x7, x7, #3552
100003500: 17ffffdd    	b	0x100003474 <_barn_parse_expression+0x5bc>
100003504: 2943250a    	ldp	w10, w9, [x8, #24]
100003508: a9409902    	ldp	x2, x6, [x8, #8]
10000350c: 7100a35f    	cmp	w26, #40
100003510: 540000a8    	b.hi	0x100003524 <_barn_parse_expression+0x66c>
100003514: b0000048    	adrp	x8, 0x10000c000 <_barn_parse_expression+0x680>
100003518: 91076108    	add	x8, x8, #472
10000351c: f87a7908    	ldr	x8, [x8, x26, lsl  #3]
100003520: 14000003    	b	0x10000352c <_barn_parse_expression+0x674>
100003524: 90000048    	adrp	x8, 0x10000b000 <___barn_parser_func_call>
100003528: 91083108    	add	x8, x8, #524
10000352c: 51000544    	sub	w4, w10, #1
100003530: 51000523    	sub	w3, w9, #1
100003534: f90003e8    	str	x8, [sp]
100003538: d0000027    	adrp	x7, 0x100009000 <___barn_parser_func_call+0xc>
10000353c: 913858e7    	add	x7, x7, #3606
100003540: 17ffffcd    	b	0x100003474 <_barn_parse_expression+0x5bc>

0000000100003544 <___barn_parser_func_call>:
100003544: d10183ff    	sub	sp, sp, #96
100003548: a9025ff8    	stp	x24, x23, [sp, #32]
10000354c: a90357f6    	stp	x22, x21, [sp, #48]
100003550: a9044ff4    	stp	x20, x19, [sp, #64]
100003554: a9057bfd    	stp	x29, x30, [sp, #80]
100003558: aa0003f4    	mov	x20, x0
10000355c: f9400817    	ldr	x23, [x0, #16]
100003560: f94002f3    	ldr	x19, [x23]
100003564: f0000021    	adrp	x1, 0x10000a000 <___barn_parser_func_call+0x3c>
100003568: 91016021    	add	x1, x1, #88
10000356c: aa1303e0    	mov	x0, x19
100003570: 940017b6    	bl	0x100009448 <_strlen+0x100009448>
100003574: 34000060    	cbz	w0, 0x100003580 <___barn_parser_func_call+0x3c>
100003578: f9402688    	ldr	x8, [x20, #72]
10000357c: b4001ca8    	cbz	x8, 0x100003910 <___barn_parser_func_call+0x3cc>
100003580: f9401288    	ldr	x8, [x20, #32]
100003584: f9400509    	ldr	x9, [x8, #8]
100003588: b4000269    	cbz	x9, 0x1000035d4 <___barn_parser_func_call+0x90>
10000358c: d2800015    	mov	x21, #0
100003590: eb15013f    	cmp	x9, x21
100003594: 54000089    	b.ls	0x1000035a4 <___barn_parser_func_call+0x60>
100003598: f9400908    	ldr	x8, [x8, #16]
10000359c: f8757918    	ldr	x24, [x8, x21, lsl  #3]
1000035a0: 14000002    	b	0x1000035a8 <___barn_parser_func_call+0x64>
1000035a4: d2800018    	mov	x24, #0
1000035a8: b9400308    	ldr	w8, [x24]
1000035ac: 35001428    	cbnz	w8, 0x100003830 <___barn_parser_func_call+0x2ec>
1000035b0: f9401300    	ldr	x0, [x24, #32]
1000035b4: aa1303e1    	mov	x1, x19
1000035b8: 940017a4    	bl	0x100009448 <_strlen+0x100009448>
1000035bc: 34000260    	cbz	w0, 0x100003608 <___barn_parser_func_call+0xc4>
1000035c0: 910006b5    	add	x21, x21, #1
1000035c4: f9401288    	ldr	x8, [x20, #32]
1000035c8: f9400509    	ldr	x9, [x8, #8]
1000035cc: eb15013f    	cmp	x9, x21
1000035d0: 54fffe08    	b.hi	0x100003590 <___barn_parser_func_call+0x4c>
1000035d4: f9400a88    	ldr	x8, [x20, #16]
1000035d8: 2943250a    	ldp	w10, w9, [x8, #24]
1000035dc: 51000523    	sub	w3, w9, #1
1000035e0: 51000544    	sub	w4, w10, #1
1000035e4: a9409902    	ldp	x2, x6, [x8, #8]
1000035e8: f90003f3    	str	x19, [sp]
1000035ec: d0000027    	adrp	x7, 0x100009000 <___barn_parser_func_call+0xc0>
1000035f0: 913dece7    	add	x7, x7, #3963
1000035f4: 52800041    	mov	w1, #2
1000035f8: 52800005    	mov	w5, #0
1000035fc: 97fffc2c    	bl	0x1000026ac <_barn_error_show_with_line>
100003600: 52800020    	mov	w0, #1
100003604: 9400176a    	bl	0x1000093ac <_strlen+0x1000093ac>
100003608: b9801e88    	ldrsw	x8, [x20, #28]
10000360c: 91000508    	add	x8, x8, #1
100003610: b9001e88    	str	w8, [x20, #28]
100003614: f9400689    	ldr	x9, [x20, #8]
100003618: f9400d29    	ldr	x9, [x9, #24]
10000361c: f9400929    	ldr	x9, [x9, #16]
100003620: f8687928    	ldr	x8, [x9, x8, lsl  #3]
100003624: f9000a88    	str	x8, [x20, #16]
100003628: b9402108    	ldr	w8, [x8, #32]
10000362c: 7100751f    	cmp	w8, #29
100003630: 54001461    	b.ne	0x1000038bc <___barn_parser_func_call+0x378>
100003634: aa1403e0    	mov	x0, x20
100003638: 528003c1    	mov	w1, #30
10000363c: 940012e6    	bl	0x1000081d4 <_barn_parser_is_next_token>
100003640: aa0003f6    	mov	x22, x0
100003644: 52800100    	mov	w0, #8
100003648: 97fff957    	bl	0x100001ba4 <_barn_create_array>
10000364c: aa0003f5    	mov	x21, x0
100003650: b9801e88    	ldrsw	x8, [x20, #28]
100003654: 91000508    	add	x8, x8, #1
100003658: b9001e88    	str	w8, [x20, #28]
10000365c: f9400689    	ldr	x9, [x20, #8]
100003660: f9400d29    	ldr	x9, [x9, #24]
100003664: 34000116    	cbz	w22, 0x100003684 <___barn_parser_func_call+0x140>
100003668: b40001c9    	cbz	x9, 0x1000036a0 <___barn_parser_func_call+0x15c>
10000366c: f940052a    	ldr	x10, [x9, #8]
100003670: eb08015f    	cmp	x10, x8
100003674: 54000169    	b.ls	0x1000036a0 <___barn_parser_func_call+0x15c>
100003678: f9400929    	ldr	x9, [x9, #16]
10000367c: f8687928    	ldr	x8, [x9, x8, lsl  #3]
100003680: 14000009    	b	0x1000036a4 <___barn_parser_func_call+0x160>
100003684: b4000369    	cbz	x9, 0x1000036f0 <___barn_parser_func_call+0x1ac>
100003688: f940052a    	ldr	x10, [x9, #8]
10000368c: eb08015f    	cmp	x10, x8
100003690: 54000349    	b.ls	0x1000036f8 <___barn_parser_func_call+0x1b4>
100003694: f9400929    	ldr	x9, [x9, #16]
100003698: f8687928    	ldr	x8, [x9, x8, lsl  #3]
10000369c: 1400001b    	b	0x100003708 <___barn_parser_func_call+0x1c4>
1000036a0: d2800008    	mov	x8, #0
1000036a4: f9000a88    	str	x8, [x20, #16]
1000036a8: f94006a9    	ldr	x9, [x21, #8]
1000036ac: f940070a    	ldr	x10, [x24, #8]
1000036b0: f940054a    	ldr	x10, [x10, #8]
1000036b4: eb0a013f    	cmp	x9, x10
1000036b8: 54001141    	b.ne	0x1000038e0 <___barn_parser_func_call+0x39c>
1000036bc: 52800020    	mov	w0, #1
1000036c0: 52800e01    	mov	w1, #112
1000036c4: 94001737    	bl	0x1000093a0 <_strlen+0x1000093a0>
1000036c8: 52800048    	mov	w8, #2
1000036cc: b9000008    	str	w8, [x0]
1000036d0: a9055417    	stp	x23, x21, [x0, #80]
1000036d4: a9066013    	stp	x19, x24, [x0, #96]
1000036d8: a9457bfd    	ldp	x29, x30, [sp, #80]
1000036dc: a9444ff4    	ldp	x20, x19, [sp, #64]
1000036e0: a94357f6    	ldp	x22, x21, [sp, #48]
1000036e4: a9425ff8    	ldp	x24, x23, [sp, #32]
1000036e8: 910183ff    	add	sp, sp, #96
1000036ec: d65f03c0    	ret
1000036f0: d2800008    	mov	x8, #0
1000036f4: 14000005    	b	0x100003708 <___barn_parser_func_call+0x1c4>
1000036f8: d2800008    	mov	x8, #0
1000036fc: 14000003    	b	0x100003708 <___barn_parser_func_call+0x1c4>
100003700: f9400908    	ldr	x8, [x8, #16]
100003704: f8697908    	ldr	x8, [x8, x9, lsl  #3]
100003708: f9000a88    	str	x8, [x20, #16]
10000370c: b9402109    	ldr	w9, [x8, #32]
100003710: 7100793f    	cmp	w9, #30
100003714: 54fffca0    	b.eq	0x1000036a8 <___barn_parser_func_call+0x164>
100003718: 7100053f    	cmp	w9, #1
10000371c: 54000a80    	b.eq	0x10000386c <___barn_parser_func_call+0x328>
100003720: aa1403e0    	mov	x0, x20
100003724: 52800461    	mov	w1, #35
100003728: 528003c2    	mov	w2, #30
10000372c: 52800023    	mov	w3, #1
100003730: 97fffde2    	bl	0x100002eb8 <_barn_parse_expression>
100003734: b40001d5    	cbz	x21, 0x10000376c <___barn_parser_func_call+0x228>
100003738: aa0003f6    	mov	x22, x0
10000373c: b4000180    	cbz	x0, 0x10000376c <___barn_parser_func_call+0x228>
100003740: a94082a8    	ldp	x8, x0, [x21, #8]
100003744: d37df108    	lsl	x8, x8, #3
100003748: 91002101    	add	x1, x8, #8
10000374c: 9400173c    	bl	0x10000943c <_strlen+0x10000943c>
100003750: b40009e0    	cbz	x0, 0x10000388c <___barn_parser_func_call+0x348>
100003754: f9000aa0    	str	x0, [x21, #16]
100003758: f94006a8    	ldr	x8, [x21, #8]
10000375c: f8287816    	str	x22, [x0, x8, lsl  #3]
100003760: f94006a8    	ldr	x8, [x21, #8]
100003764: 91000508    	add	x8, x8, #1
100003768: f90006a8    	str	x8, [x21, #8]
10000376c: f9400a88    	ldr	x8, [x20, #16]
100003770: b9402109    	ldr	w9, [x8, #32]
100003774: 7100093f    	cmp	w9, #2
100003778: 540000c0    	b.eq	0x100003790 <___barn_parser_func_call+0x24c>
10000377c: 71008d3f    	cmp	w9, #35
100003780: 540003e1    	b.ne	0x1000037fc <___barn_parser_func_call+0x2b8>
100003784: b9401e89    	ldr	w9, [x20, #28]
100003788: f940068a    	ldr	x10, [x20, #8]
10000378c: 14000012    	b	0x1000037d4 <___barn_parser_func_call+0x290>
100003790: b9801e88    	ldrsw	x8, [x20, #28]
100003794: d1000509    	sub	x9, x8, #1
100003798: b9001e89    	str	w9, [x20, #28]
10000379c: f940068a    	ldr	x10, [x20, #8]
1000037a0: f9400d48    	ldr	x8, [x10, #24]
1000037a4: b4000108    	cbz	x8, 0x1000037c4 <___barn_parser_func_call+0x280>
1000037a8: f940050b    	ldr	x11, [x8, #8]
1000037ac: eb09017f    	cmp	x11, x9
1000037b0: 54000089    	b.ls	0x1000037c0 <___barn_parser_func_call+0x27c>
1000037b4: f9400908    	ldr	x8, [x8, #16]
1000037b8: f8697908    	ldr	x8, [x8, x9, lsl  #3]
1000037bc: 14000002    	b	0x1000037c4 <___barn_parser_func_call+0x280>
1000037c0: d2800008    	mov	x8, #0
1000037c4: f9000a88    	str	x8, [x20, #16]
1000037c8: b940210b    	ldr	w11, [x8, #32]
1000037cc: 71008d7f    	cmp	w11, #35
1000037d0: 540001c1    	b.ne	0x100003808 <___barn_parser_func_call+0x2c4>
1000037d4: 11000529    	add	w9, w9, #1
1000037d8: b9001e89    	str	w9, [x20, #28]
1000037dc: f9400d48    	ldr	x8, [x10, #24]
1000037e0: b4fff948    	cbz	x8, 0x100003708 <___barn_parser_func_call+0x1c4>
1000037e4: 93407d29    	sxtw	x9, w9
1000037e8: f940050a    	ldr	x10, [x8, #8]
1000037ec: eb09015f    	cmp	x10, x9
1000037f0: 54fff888    	b.hi	0x100003700 <___barn_parser_func_call+0x1bc>
1000037f4: d2800008    	mov	x8, #0
1000037f8: 17ffffc4    	b	0x100003708 <___barn_parser_func_call+0x1c4>
1000037fc: 7100793f    	cmp	w9, #30
100003800: 54fff540    	b.eq	0x1000036a8 <___barn_parser_func_call+0x164>
100003804: 14000003    	b	0x100003810 <___barn_parser_func_call+0x2cc>
100003808: 7100797f    	cmp	w11, #30
10000380c: 54fff4e0    	b.eq	0x1000036a8 <___barn_parser_func_call+0x164>
100003810: 2943250a    	ldp	w10, w9, [x8, #24]
100003814: 51000523    	sub	w3, w9, #1
100003818: 51000544    	sub	w4, w10, #1
10000381c: a9409902    	ldp	x2, x6, [x8, #8]
100003820: f90003ff    	str	xzr, [sp]
100003824: d0000027    	adrp	x7, 0x100009000 <___barn_parser_func_call+0x2f8>
100003828: 913aa8e7    	add	x7, x7, #3754
10000382c: 17ffff72    	b	0x1000035f4 <___barn_parser_func_call+0xb0>
100003830: f0000028    	adrp	x8, 0x10000a000 <___barn_parser_func_call+0x308>
100003834: 91033108    	add	x8, x8, #204
100003838: 52800a09    	mov	w9, #80
10000383c: a90123e9    	stp	x9, x8, [sp, #16]
100003840: f0000028    	adrp	x8, 0x10000a000 <___barn_parser_func_call+0x318>
100003844: 91021508    	add	x8, x8, #133
100003848: f0000029    	adrp	x9, 0x10000a000 <___barn_parser_func_call+0x320>
10000384c: 9101d129    	add	x9, x9, #116
100003850: a90023e9    	stp	x9, x8, [sp]
100003854: 90000041    	adrp	x1, 0x10000b000 <___barn_parser_func_call+0x330>
100003858: 91159421    	add	x1, x1, #1381
10000385c: 528000e0    	mov	w0, #7
100003860: 97fffc54    	bl	0x1000029b0 <_barn_error_show>
100003864: 52800020    	mov	w0, #1
100003868: 940016d1    	bl	0x1000093ac <_strlen+0x1000093ac>
10000386c: 2943250a    	ldp	w10, w9, [x8, #24]
100003870: 51000523    	sub	w3, w9, #1
100003874: 51000544    	sub	w4, w10, #1
100003878: a9409902    	ldp	x2, x6, [x8, #8]
10000387c: f90003ff    	str	xzr, [sp]
100003880: d0000027    	adrp	x7, 0x100009000 <___barn_parser_func_call+0x354>
100003884: 9139d0e7    	add	x7, x7, #3700
100003888: 17ffff5b    	b	0x1000035f4 <___barn_parser_func_call+0xb0>
10000388c: 52800b88    	mov	w8, #92
100003890: d0000029    	adrp	x9, 0x100009000 <___barn_parser_func_call+0x364>
100003894: 911dd529    	add	x9, x9, #1909
100003898: a90123e9    	stp	x9, x8, [sp, #16]
10000389c: d0000028    	adrp	x8, 0x100009000 <___barn_parser_func_call+0x370>
1000038a0: 911cc908    	add	x8, x8, #1842
1000038a4: d0000029    	adrp	x9, 0x100009000 <___barn_parser_func_call+0x378>
1000038a8: 911db529    	add	x9, x9, #1901
1000038ac: a90023e9    	stp	x9, x8, [sp]
1000038b0: 90000041    	adrp	x1, 0x10000b000 <___barn_parser_func_call+0x38c>
1000038b4: 910ea421    	add	x1, x1, #937
1000038b8: 17ffffe9    	b	0x10000385c <___barn_parser_func_call+0x318>
1000038bc: d0000028    	adrp	x8, 0x100009000 <___barn_parser_func_call+0x390>
1000038c0: 913f9508    	add	x8, x8, #4069
1000038c4: 52800ee9    	mov	w9, #119
1000038c8: a90123e9    	stp	x9, x8, [sp, #16]
1000038cc: d0000028    	adrp	x8, 0x100009000 <___barn_parser_func_call+0x3a0>
1000038d0: 913ebd08    	add	x8, x8, #4015
1000038d4: d0000029    	adrp	x9, 0x100009000 <___barn_parser_func_call+0x3a8>
1000038d8: 913e7929    	add	x9, x9, #3998
1000038dc: 17ffffdd    	b	0x100003850 <___barn_parser_func_call+0x30c>
1000038e0: 29432d0c    	ldp	w12, w11, [x8, #24]
1000038e4: 51000563    	sub	w3, w11, #1
1000038e8: 51000584    	sub	w4, w12, #1
1000038ec: a9409902    	ldp	x2, x6, [x8, #8]
1000038f0: f9401308    	ldr	x8, [x24, #32]
1000038f4: eb0a013f    	cmp	x9, x10
1000038f8: 540001e2    	b.hs	0x100003934 <___barn_parser_func_call+0x3f0>
1000038fc: a900a7ea    	stp	x10, x9, [sp, #8]
100003900: f90003e8    	str	x8, [sp]
100003904: d0000027    	adrp	x7, 0x100009000 <___barn_parser_func_call+0x3d8>
100003908: 913b4ce7    	add	x7, x7, #3795
10000390c: 17ffff3a    	b	0x1000035f4 <___barn_parser_func_call+0xb0>
100003910: f9400a88    	ldr	x8, [x20, #16]
100003914: 2943250a    	ldp	w10, w9, [x8, #24]
100003918: 51000523    	sub	w3, w9, #1
10000391c: 51000544    	sub	w4, w10, #1
100003920: a9409902    	ldp	x2, x6, [x8, #8]
100003924: f90003ff    	str	xzr, [sp]
100003928: d0000027    	adrp	x7, 0x100009000 <___barn_parser_func_call+0x3fc>
10000392c: 913d38e7    	add	x7, x7, #3918
100003930: 17ffff31    	b	0x1000035f4 <___barn_parser_func_call+0xb0>
100003934: a900a7ea    	stp	x10, x9, [sp, #8]
100003938: f90003e8    	str	x8, [sp]
10000393c: d0000027    	adrp	x7, 0x100009000 <_barn_read_whole_file+0xc>
100003940: 913c40e7    	add	x7, x7, #3856
100003944: 17ffff2c    	b	0x1000035f4 <___barn_parser_func_call+0xb0>

0000000100003948 <_barn_read_whole_file>:
100003948: d10143ff    	sub	sp, sp, #80
10000394c: a90257f6    	stp	x22, x21, [sp, #32]
100003950: a9034ff4    	stp	x20, x19, [sp, #48]
100003954: a9047bfd    	stp	x29, x30, [sp, #64]
100003958: f0000021    	adrp	x1, 0x10000a000 <_barn_read_whole_file+0x2c>
10000395c: 91139c21    	add	x1, x1, #1255
100003960: 9400169c    	bl	0x1000093d0 <_strlen+0x1000093d0>
100003964: b4000500    	cbz	x0, 0x100003a04 <_barn_read_whole_file+0xbc>
100003968: aa0003f3    	mov	x19, x0
10000396c: d2800001    	mov	x1, #0
100003970: 52800042    	mov	w2, #2
100003974: 940016a3    	bl	0x100009400 <_strlen+0x100009400>
100003978: aa1303e0    	mov	x0, x19
10000397c: 940016a4    	bl	0x10000940c <_strlen+0x10000940c>
100003980: aa0003f4    	mov	x20, x0
100003984: aa1303e0    	mov	x0, x19
100003988: d2800001    	mov	x1, #0
10000398c: 52800002    	mov	w2, #0
100003990: 9400169c    	bl	0x100009400 <_strlen+0x100009400>
100003994: 91000681    	add	x1, x20, #1
100003998: 52800020    	mov	w0, #1
10000399c: 94001681    	bl	0x1000093a0 <_strlen+0x1000093a0>
1000039a0: b4000440    	cbz	x0, 0x100003a28 <_barn_read_whole_file+0xe0>
1000039a4: aa0003f5    	mov	x21, x0
1000039a8: 52800021    	mov	w1, #1
1000039ac: aa1403e2    	mov	x2, x20
1000039b0: aa1303e3    	mov	x3, x19
1000039b4: 9400168d    	bl	0x1000093e8 <_strlen+0x1000093e8>
1000039b8: eb14001f    	cmp	x0, x20
1000039bc: 54000141    	b.ne	0x1000039e4 <_barn_read_whole_file+0x9c>
1000039c0: 38346abf    	strb	wzr, [x21, x20]
1000039c4: aa1303e0    	mov	x0, x19
1000039c8: 9400167c    	bl	0x1000093b8 <_strlen+0x1000093b8>
1000039cc: aa1503e0    	mov	x0, x21
1000039d0: a9447bfd    	ldp	x29, x30, [sp, #64]
1000039d4: a9434ff4    	ldp	x20, x19, [sp, #48]
1000039d8: a94257f6    	ldp	x22, x21, [sp, #32]
1000039dc: 910143ff    	add	sp, sp, #80
1000039e0: d65f03c0    	ret
1000039e4: f0000020    	adrp	x0, 0x10000a000 <_barn_read_whole_file+0xb8>
1000039e8: 912ce400    	add	x0, x0, #2873
1000039ec: f0000021    	adrp	x1, 0x10000a000 <_barn_read_whole_file+0xc0>
1000039f0: 91110821    	add	x1, x1, #1090
1000039f4: f0000023    	adrp	x3, 0x10000a000 <_barn_read_whole_file+0xc8>
1000039f8: 9111f063    	add	x3, x3, #1148
1000039fc: 528009a2    	mov	w2, #77
100003a00: 94001653    	bl	0x10000934c <_strlen+0x10000934c>
100003a04: 52800888    	mov	w8, #68
100003a08: f0000029    	adrp	x9, 0x10000a000 <_barn_read_whole_file+0xdc>
100003a0c: 91113129    	add	x9, x9, #1100
100003a10: a90123e9    	stp	x9, x8, [sp, #16]
100003a14: f0000028    	adrp	x8, 0x10000a000 <_barn_read_whole_file+0xe8>
100003a18: 91110908    	add	x8, x8, #1090
100003a1c: f0000029    	adrp	x9, 0x10000a000 <_barn_read_whole_file+0xf0>
100003a20: 9113a929    	add	x9, x9, #1258
100003a24: 14000009    	b	0x100003a48 <_barn_read_whole_file+0x100>
100003a28: 52800908    	mov	w8, #72
100003a2c: f0000029    	adrp	x9, 0x10000a000 <_barn_read_whole_file+0x100>
100003a30: 91113129    	add	x9, x9, #1100
100003a34: a90123e9    	stp	x9, x8, [sp, #16]
100003a38: f0000028    	adrp	x8, 0x10000a000 <_barn_read_whole_file+0x10c>
100003a3c: 91110908    	add	x8, x8, #1090
100003a40: f0000029    	adrp	x9, 0x10000a000 <_barn_read_whole_file+0x114>
100003a44: 9111d529    	add	x9, x9, #1141
100003a48: a90023e9    	stp	x9, x8, [sp]
100003a4c: 90000041    	adrp	x1, 0x10000b000 <_barn_start_lexer+0x8>
100003a50: 910ea421    	add	x1, x1, #937
100003a54: 528000e0    	mov	w0, #7
100003a58: 97fffbd6    	bl	0x1000029b0 <_barn_error_show>
100003a5c: 52800020    	mov	w0, #1
100003a60: 94001653    	bl	0x1000093ac <_strlen+0x1000093ac>

0000000100003a64 <_barn_start_lexer>:
100003a64: a9ba6ffc    	stp	x28, x27, [sp, #-96]!
100003a68: a90167fa    	stp	x26, x25, [sp, #16]
100003a6c: a9025ff8    	stp	x24, x23, [sp, #32]
100003a70: a90357f6    	stp	x22, x21, [sp, #48]
100003a74: a9044ff4    	stp	x20, x19, [sp, #64]
100003a78: a9057bfd    	stp	x29, x30, [sp, #80]
100003a7c: 52900809    	mov	w9, #32832
100003a80: b0000050    	adrp	x16, 0x10000c000 <_barn_start_lexer+0x40>
100003a84: f9400610    	ldr	x16, [x16, #8]
100003a88: d63f0200    	blr	x16
100003a8c: d14023ff    	sub	sp, sp, #8, lsl #12     ; =32768
100003a90: d10103ff    	sub	sp, sp, #64
100003a94: aa0103f4    	mov	x20, x1
100003a98: aa0003f5    	mov	x21, x0
100003a9c: 52800036    	mov	w22, #1
100003aa0: 52800020    	mov	w0, #1
100003aa4: 52800901    	mov	w1, #72
100003aa8: 9400163e    	bl	0x1000093a0 <_strlen+0x1000093a0>
100003aac: aa0003f3    	mov	x19, x0
100003ab0: f9000415    	str	x21, [x0, #8]
100003ab4: f9400a88    	ldr	x8, [x20, #16]
100003ab8: f9000008    	str	x8, [x0]
100003abc: f9000814    	str	x20, [x0, #16]
100003ac0: 52800100    	mov	w0, #8
100003ac4: 97fff838    	bl	0x100001ba4 <_barn_create_array>
100003ac8: f9000e60    	str	x0, [x19, #24]
100003acc: 52800100    	mov	w0, #8
100003ad0: 97fff835    	bl	0x100001ba4 <_barn_create_array>
100003ad4: a9027e60    	stp	x0, xzr, [x19, #32]
100003ad8: 7900627f    	strh	wzr, [x19, #48]
100003adc: 3901127f    	strb	wzr, [x19, #68]
100003ae0: f803c276    	stur	x22, [x19, #60]
100003ae4: 2906fe7f    	stp	wzr, wzr, [x19, #52]
100003ae8: d0000020    	adrp	x0, 0x100009000 <_barn_start_lexer+0x9c>
100003aec: 912d1400    	add	x0, x0, #2885
100003af0: 94001650    	bl	0x100009430 <_strlen+0x100009430>
100003af4: f0000029    	adrp	x9, 0x10000a000 <_barn_start_lexer+0xac>
100003af8: 91132929    	add	x9, x9, #1226
100003afc: 528006c8    	mov	w8, #54
100003b00: a90023e9    	stp	x9, x8, [sp]
100003b04: d0000020    	adrp	x0, 0x100009000 <_barn_start_lexer+0xb8>
100003b08: 912ce800    	add	x0, x0, #2874
100003b0c: 94001649    	bl	0x100009430 <_strlen+0x100009430>
100003b10: f0000028    	adrp	x8, 0x10000a000 <_barn_start_lexer+0xc8>
100003b14: 9112b908    	add	x8, x8, #1198
100003b18: f90003e8    	str	x8, [sp]
100003b1c: 90000040    	adrp	x0, 0x10000b000 <_barn_start_lexer+0xd8>
100003b20: 911b0000    	add	x0, x0, #1728
100003b24: 94001643    	bl	0x100009430 <_strlen+0x100009430>
100003b28: f9400260    	ldr	x0, [x19]
100003b2c: f0000021    	adrp	x1, 0x10000a000 <_barn_start_lexer+0xe4>
100003b30: 91139c21    	add	x1, x1, #1255
100003b34: 94001627    	bl	0x1000093d0 <_strlen+0x1000093d0>
100003b38: b4008a20    	cbz	x0, 0x100004c7c <_barn_start_lexer+0x1218>
100003b3c: aa0003f4    	mov	x20, x0
100003b40: 52800017    	mov	w23, #0
100003b44: 52bfe018    	mov	w24, #-16777216
100003b48: 52a14019    	mov	w25, #167772160
100003b4c: 910103fa    	add	x26, sp, #64
100003b50: 528fffdb    	mov	w27, #32766
100003b54: f0000035    	adrp	x21, 0x10000a000 <_barn_start_lexer+0x10c>
100003b58: 9114aeb5    	add	x21, x21, #1323
100003b5c: d2800016    	mov	x22, #0
100003b60: aa1403e0    	mov	x0, x20
100003b64: 94001618    	bl	0x1000093c4 <_strlen+0x1000093c4>
100003b68: 53081c08    	lsl	w8, w0, #24
100003b6c: 6b18011f    	cmp	w8, w24
100003b70: 54000540    	b.eq	0x100003c18 <_barn_start_lexer+0x1b4>
100003b74: 6b19011f    	cmp	w8, w25
100003b78: 54000160    	b.eq	0x100003ba4 <_barn_start_lexer+0x140>
100003b7c: eb1b02df    	cmp	x22, x27
100003b80: 540000c9    	b.ls	0x100003b98 <_barn_start_lexer+0x134>
100003b84: f90003f7    	str	x23, [sp]
100003b88: 52800100    	mov	w0, #8
100003b8c: aa1503e1    	mov	x1, x21
100003b90: 97fffb88    	bl	0x1000029b0 <_barn_error_show>
100003b94: 17fffff3    	b	0x100003b60 <_barn_start_lexer+0xfc>
100003b98: 38366b40    	strb	w0, [x26, x22]
100003b9c: 910006d6    	add	x22, x22, #1
100003ba0: 17fffff0    	b	0x100003b60 <_barn_start_lexer+0xfc>
100003ba4: 38364b5f    	strb	wzr, [x26, w22, uxtw]
100003ba8: 910103e0    	add	x0, sp, #64
100003bac: 9400162a    	bl	0x100009454 <_strlen+0x100009454>
100003bb0: 91000400    	add	x0, x0, #1
100003bb4: 52800021    	mov	w1, #1
100003bb8: 940015fa    	bl	0x1000093a0 <_strlen+0x1000093a0>
100003bbc: b4008420    	cbz	x0, 0x100004c40 <_barn_start_lexer+0x11dc>
100003bc0: aa0003f6    	mov	x22, x0
100003bc4: 910103e1    	add	x1, sp, #64
100003bc8: 92800002    	mov	x2, #-1
100003bcc: 940015e6    	bl	0x100009364 <_strlen+0x100009364>
100003bd0: f940127c    	ldr	x28, [x19, #32]
100003bd4: b400019c    	cbz	x28, 0x100003c04 <_barn_start_lexer+0x1a0>
100003bd8: a9408388    	ldp	x8, x0, [x28, #8]
100003bdc: d37df108    	lsl	x8, x8, #3
100003be0: 91002101    	add	x1, x8, #8
100003be4: 94001616    	bl	0x10000943c <_strlen+0x10000943c>
100003be8: b4008020    	cbz	x0, 0x100004bec <_barn_start_lexer+0x1188>
100003bec: f9000b80    	str	x0, [x28, #16]
100003bf0: f9400788    	ldr	x8, [x28, #8]
100003bf4: f8287816    	str	x22, [x0, x8, lsl  #3]
100003bf8: f9400788    	ldr	x8, [x28, #8]
100003bfc: 91000508    	add	x8, x8, #1
100003c00: f9000788    	str	x8, [x28, #8]
100003c04: 110006f7    	add	w23, w23, #1
100003c08: 910103e0    	add	x0, sp, #64
100003c0c: 52900001    	mov	w1, #32768
100003c10: 940015e1    	bl	0x100009394 <_strlen+0x100009394>
100003c14: 17ffffd2    	b	0x100003b5c <_barn_start_lexer+0xf8>
100003c18: 910103e0    	add	x0, sp, #64
100003c1c: 9400160e    	bl	0x100009454 <_strlen+0x100009454>
100003c20: 91000400    	add	x0, x0, #1
100003c24: 52800021    	mov	w1, #1
100003c28: 940015de    	bl	0x1000093a0 <_strlen+0x1000093a0>
100003c2c: b40080a0    	cbz	x0, 0x100004c40 <_barn_start_lexer+0x11dc>
100003c30: aa0003f5    	mov	x21, x0
100003c34: 910103e1    	add	x1, sp, #64
100003c38: 92800002    	mov	x2, #-1
100003c3c: 940015ca    	bl	0x100009364 <_strlen+0x100009364>
100003c40: f9401276    	ldr	x22, [x19, #32]
100003c44: b4000196    	cbz	x22, 0x100003c74 <_barn_start_lexer+0x210>
100003c48: a94082c8    	ldp	x8, x0, [x22, #8]
100003c4c: d37df108    	lsl	x8, x8, #3
100003c50: 91002101    	add	x1, x8, #8
100003c54: 940015fa    	bl	0x10000943c <_strlen+0x10000943c>
100003c58: b4007ca0    	cbz	x0, 0x100004bec <_barn_start_lexer+0x1188>
100003c5c: f9000ac0    	str	x0, [x22, #16]
100003c60: f94006c8    	ldr	x8, [x22, #8]
100003c64: f8287815    	str	x21, [x0, x8, lsl  #3]
100003c68: f94006c8    	ldr	x8, [x22, #8]
100003c6c: 91000508    	add	x8, x8, #1
100003c70: f90006c8    	str	x8, [x22, #8]
100003c74: aa1403e0    	mov	x0, x20
100003c78: 940015d0    	bl	0x1000093b8 <_strlen+0x1000093b8>
100003c7c: d0000020    	adrp	x0, 0x100009000 <_barn_start_lexer+0x230>
100003c80: 912d1400    	add	x0, x0, #2885
100003c84: 940015eb    	bl	0x100009430 <_strlen+0x100009430>
100003c88: 52800709    	mov	w9, #56
100003c8c: f0000028    	adrp	x8, 0x10000a000 <_barn_start_lexer+0x244>
100003c90: 91132908    	add	x8, x8, #1226
100003c94: a90027e8    	stp	x8, x9, [sp]
100003c98: d0000020    	adrp	x0, 0x100009000 <_barn_start_lexer+0x24c>
100003c9c: 912ce800    	add	x0, x0, #2874
100003ca0: 940015e4    	bl	0x100009430 <_strlen+0x100009430>
100003ca4: f0000028    	adrp	x8, 0x10000a000 <_barn_start_lexer+0x25c>
100003ca8: 91135d08    	add	x8, x8, #1239
100003cac: f90003e8    	str	x8, [sp]
100003cb0: 90000040    	adrp	x0, 0x10000b000 <_barn_start_lexer+0x26c>
100003cb4: 911b0000    	add	x0, x0, #1728
100003cb8: 940015de    	bl	0x100009430 <_strlen+0x100009430>
100003cbc: 52800017    	mov	w23, #0
100003cc0: f0000034    	adrp	x20, 0x10000a000 <_barn_start_lexer+0x278>
100003cc4: 911d3294    	add	x20, x20, #1868
100003cc8: 5280003c    	mov	w28, #1
100003ccc: f0000035    	adrp	x21, 0x10000a000 <_barn_start_lexer+0x284>
100003cd0: 911e0eb5    	add	x21, x21, #1923
100003cd4: d000003b    	adrp	x27, 0x100009000 <_barn_start_lexer+0x288>
100003cd8: 91136f7b    	add	x27, x27, #1243
100003cdc: 52800419    	mov	w25, #32
100003ce0: f0000036    	adrp	x22, 0x10000a000 <_barn_start_lexer+0x298>
100003ce4: 9115b6d6    	add	x22, x22, #1389
100003ce8: 14000005    	b	0x100003cfc <_barn_start_lexer+0x298>
100003cec: 39010e7c    	strb	w28, [x19, #67]
100003cf0: 3901067c    	strb	w28, [x19, #65]
100003cf4: b9403668    	ldr	w8, [x19, #52]
100003cf8: 11000517    	add	w23, w8, #1
100003cfc: b9003677    	str	w23, [x19, #52]
100003d00: f9400660    	ldr	x0, [x19, #8]
100003d04: 940015d4    	bl	0x100009454 <_strlen+0x100009454>
100003d08: eb37c01f    	cmp	x0, w23, sxtw
100003d0c: 54006d29    	b.ls	0x100004ab0 <_barn_start_lexer+0x104c>
100003d10: b9803668    	ldrsw	x8, [x19, #52]
100003d14: f9400660    	ldr	x0, [x19, #8]
100003d18: 38686808    	ldrb	w8, [x0, x8]
100003d1c: 3900c268    	strb	w8, [x19, #48]
100003d20: 940015cd    	bl	0x100009454 <_strlen+0x100009454>
100003d24: d1000409    	sub	x9, x0, #1
100003d28: b9803668    	ldrsw	x8, [x19, #52]
100003d2c: eb08013f    	cmp	x9, x8
100003d30: 54000061    	b.ne	0x100003d3c <_barn_start_lexer+0x2d8>
100003d34: 52800009    	mov	w9, #0
100003d38: 14000004    	b	0x100003d48 <_barn_start_lexer+0x2e4>
100003d3c: f9400669    	ldr	x9, [x19, #8]
100003d40: 8b090109    	add	x9, x8, x9
100003d44: 39400529    	ldrb	w9, [x9, #1]
100003d48: 3900c669    	strb	w9, [x19, #49]
100003d4c: f9400e6a    	ldr	x10, [x19, #24]
100003d50: f940054b    	ldr	x11, [x10, #8]
100003d54: b40000ab    	cbz	x11, 0x100003d68 <_barn_start_lexer+0x304>
100003d58: f940094a    	ldr	x10, [x10, #16]
100003d5c: 8b0b0d4a    	add	x10, x10, x11, lsl #3
100003d60: f85f8158    	ldur	x24, [x10, #-8]
100003d64: 14000002    	b	0x100003d6c <_barn_start_lexer+0x308>
100003d68: d2800018    	mov	x24, #0
100003d6c: f9001678    	str	x24, [x19, #40]
100003d70: b9403a64    	ldr	w4, [x19, #56]
100003d74: 1100048a    	add	w10, w4, #1
100003d78: b9003a6a    	str	w10, [x19, #56]
100003d7c: 3940c27a    	ldrb	w26, [x19, #48]
100003d80: 5100274a    	sub	w10, w26, #9
100003d84: 7100995f    	cmp	w10, #38
100003d88: 54000608    	b.hi	0x100003e48 <_barn_start_lexer+0x3e4>
100003d8c: 10fffb4b    	adr	x11, #-152
100003d90: 386a6b6c    	ldrb	w12, [x27, x10]
100003d94: 8b0c096b    	add	x11, x11, x12, lsl #2
100003d98: d61f0160    	br	x11
100003d9c: 39410a68    	ldrb	w8, [x19, #66]
100003da0: 34fffa88    	cbz	w8, 0x100003cf0 <_barn_start_lexer+0x28c>
100003da4: f9400300    	ldr	x0, [x24]
100003da8: b4000900    	cbz	x0, 0x100003ec8 <_barn_start_lexer+0x464>
100003dac: 940015aa    	bl	0x100009454 <_strlen+0x100009454>
100003db0: aa0003f7    	mov	x23, x0
100003db4: f9400300    	ldr	x0, [x24]
100003db8: 14000045    	b	0x100003ecc <_barn_start_lexer+0x468>
100003dbc: 7100a93f    	cmp	w9, #42
100003dc0: 54000920    	b.eq	0x100003ee4 <_barn_start_lexer+0x480>
100003dc4: 7100bd3f    	cmp	w9, #47
100003dc8: 54000401    	b.ne	0x100003e48 <_barn_start_lexer+0x3e4>
100003dcc: 39410a68    	ldrb	w8, [x19, #66]
100003dd0: 34fff8e8    	cbz	w8, 0x100003cec <_barn_start_lexer+0x288>
100003dd4: f9400300    	ldr	x0, [x24]
100003dd8: b40008e0    	cbz	x0, 0x100003ef4 <_barn_start_lexer+0x490>
100003ddc: 9400159e    	bl	0x100009454 <_strlen+0x100009454>
100003de0: aa0003f7    	mov	x23, x0
100003de4: f9400300    	ldr	x0, [x24]
100003de8: 14000044    	b	0x100003ef8 <_barn_start_lexer+0x494>
100003dec: b9803e68    	ldrsw	x8, [x19, #60]
100003df0: 11000504    	add	w4, w8, #1
100003df4: 2907127f    	stp	wzr, w4, [x19, #56]
100003df8: 3901067c    	strb	w28, [x19, #65]
100003dfc: 39010e7f    	strb	wzr, [x19, #67]
100003e00: f9401269    	ldr	x9, [x19, #32]
100003e04: b4000369    	cbz	x9, 0x100003e70 <_barn_start_lexer+0x40c>
100003e08: f940052a    	ldr	x10, [x9, #8]
100003e0c: eb08015f    	cmp	x10, x8
100003e10: 54000309    	b.ls	0x100003e70 <_barn_start_lexer+0x40c>
100003e14: f9400929    	ldr	x9, [x9, #16]
100003e18: f8687922    	ldr	x2, [x9, x8, lsl  #3]
100003e1c: 14000016    	b	0x100003e74 <_barn_start_lexer+0x410>
100003e20: 7100bd3f    	cmp	w9, #47
100003e24: 54000121    	b.ne	0x100003e48 <_barn_start_lexer+0x3e4>
100003e28: 39410a69    	ldrb	w9, [x19, #66]
100003e2c: 34000709    	cbz	w9, 0x100003f0c <_barn_start_lexer+0x4a8>
100003e30: f9400300    	ldr	x0, [x24]
100003e34: b4000c60    	cbz	x0, 0x100003fc0 <_barn_start_lexer+0x55c>
100003e38: 94001587    	bl	0x100009454 <_strlen+0x100009454>
100003e3c: aa0003f7    	mov	x23, x0
100003e40: f9400300    	ldr	x0, [x24]
100003e44: 14000060    	b	0x100003fc4 <_barn_start_lexer+0x560>
100003e48: 39410e6a    	ldrb	w10, [x19, #67]
100003e4c: 35fff54a    	cbnz	w10, 0x100003cf4 <_barn_start_lexer+0x290>
100003e50: 3941126a    	ldrb	w10, [x19, #68]
100003e54: 35fff50a    	cbnz	w10, 0x100003cf4 <_barn_start_lexer+0x290>
100003e58: 39410a6a    	ldrb	w10, [x19, #66]
100003e5c: 71008b5f    	cmp	w26, #34
100003e60: 540008a1    	b.ne	0x100003f74 <_barn_start_lexer+0x510>
100003e64: 34000caa    	cbz	w10, 0x100003ff8 <_barn_start_lexer+0x594>
100003e68: 39010a7f    	strb	wzr, [x19, #66]
100003e6c: 17ffffa2    	b	0x100003cf4 <_barn_start_lexer+0x290>
100003e70: d2800002    	mov	x2, #0
100003e74: f9400261    	ldr	x1, [x19]
100003e78: aa1603e0    	mov	x0, x22
100003e7c: 52800003    	mov	w3, #0
100003e80: 52800045    	mov	w5, #2
100003e84: 940011c7    	bl	0x1000085a0 <_barn_create_token>
100003e88: f9400e78    	ldr	x24, [x19, #24]
100003e8c: b4006c38    	cbz	x24, 0x100004c10 <_barn_start_lexer+0x11ac>
100003e90: aa0003f7    	mov	x23, x0
100003e94: b4006be0    	cbz	x0, 0x100004c10 <_barn_start_lexer+0x11ac>
100003e98: a9408308    	ldp	x8, x0, [x24, #8]
100003e9c: d37df108    	lsl	x8, x8, #3
100003ea0: 91002101    	add	x1, x8, #8
100003ea4: 94001566    	bl	0x10000943c <_strlen+0x10000943c>
100003ea8: b4006a20    	cbz	x0, 0x100004bec <_barn_start_lexer+0x1188>
100003eac: f9000b00    	str	x0, [x24, #16]
100003eb0: f9400708    	ldr	x8, [x24, #8]
100003eb4: f8287817    	str	x23, [x0, x8, lsl  #3]
100003eb8: f9400708    	ldr	x8, [x24, #8]
100003ebc: 91000508    	add	x8, x8, #1
100003ec0: f9000708    	str	x8, [x24, #8]
100003ec4: 17ffff8c    	b	0x100003cf4 <_barn_start_lexer+0x290>
100003ec8: d2800017    	mov	x23, #0
100003ecc: 91000ae1    	add	x1, x23, #2
100003ed0: 9400155b    	bl	0x10000943c <_strlen+0x10000943c>
100003ed4: b40067a0    	cbz	x0, 0x100004bc8 <_barn_start_lexer+0x1164>
100003ed8: 78376819    	strh	w25, [x0, x23]
100003edc: f9000300    	str	x0, [x24]
100003ee0: 17ffff84    	b	0x100003cf0 <_barn_start_lexer+0x28c>
100003ee4: 39410a68    	ldrb	w8, [x19, #66]
100003ee8: 34000648    	cbz	w8, 0x100003fb0 <_barn_start_lexer+0x54c>
100003eec: f9400300    	ldr	x0, [x24]
100003ef0: b5fff760    	cbnz	x0, 0x100003ddc <_barn_start_lexer+0x378>
100003ef4: d2800017    	mov	x23, #0
100003ef8: 91000ae1    	add	x1, x23, #2
100003efc: 94001550    	bl	0x10000943c <_strlen+0x10000943c>
100003f00: b4006640    	cbz	x0, 0x100004bc8 <_barn_start_lexer+0x1164>
100003f04: 528005e8    	mov	w8, #47
100003f08: 14000033    	b	0x100003fd4 <_barn_start_lexer+0x570>
100003f0c: 39411269    	ldrb	w9, [x19, #68]
100003f10: 34006d29    	cbz	w9, 0x100004cb4 <_barn_start_lexer+0x1250>
100003f14: 3901127f    	strb	wzr, [x19, #68]
100003f18: 3901067c    	strb	w28, [x19, #65]
100003f1c: 91000508    	add	x8, x8, #1
100003f20: b9003668    	str	w8, [x19, #52]
100003f24: f9400660    	ldr	x0, [x19, #8]
100003f28: 38686808    	ldrb	w8, [x0, x8]
100003f2c: 3900c268    	strb	w8, [x19, #48]
100003f30: 94001549    	bl	0x100009454 <_strlen+0x100009454>
100003f34: 52800008    	mov	w8, #0
100003f38: d100040a    	sub	x10, x0, #1
100003f3c: b9803669    	ldrsw	x9, [x19, #52]
100003f40: eb09015f    	cmp	x10, x9
100003f44: 54000080    	b.eq	0x100003f54 <_barn_start_lexer+0x4f0>
100003f48: f9400668    	ldr	x8, [x19, #8]
100003f4c: 8b080128    	add	x8, x9, x8
100003f50: 39400508    	ldrb	w8, [x8, #1]
100003f54: 3900c668    	strb	w8, [x19, #49]
100003f58: f9400e68    	ldr	x8, [x19, #24]
100003f5c: f9400509    	ldr	x9, [x8, #8]
100003f60: b4000409    	cbz	x9, 0x100003fe0 <_barn_start_lexer+0x57c>
100003f64: f9400908    	ldr	x8, [x8, #16]
100003f68: 8b090d08    	add	x8, x8, x9, lsl #3
100003f6c: f85f8108    	ldur	x8, [x8, #-8]
100003f70: 1400001d    	b	0x100003fe4 <_barn_start_lexer+0x580>
100003f74: 3400058a    	cbz	w10, 0x100004024 <_barn_start_lexer+0x5c0>
100003f78: 7101735f    	cmp	w26, #92
100003f7c: 540021a1    	b.ne	0x1000043b0 <_barn_start_lexer+0x94c>
100003f80: 91000508    	add	x8, x8, #1
100003f84: b9003668    	str	w8, [x19, #52]
100003f88: f9400660    	ldr	x0, [x19, #8]
100003f8c: 38686808    	ldrb	w8, [x0, x8]
100003f90: 3900c268    	strb	w8, [x19, #48]
100003f94: 94001530    	bl	0x100009454 <_strlen+0x100009454>
100003f98: d1000409    	sub	x9, x0, #1
100003f9c: b9803668    	ldrsw	x8, [x19, #52]
100003fa0: eb08013f    	cmp	x9, x8
100003fa4: 54000c01    	b.ne	0x100004124 <_barn_start_lexer+0x6c0>
100003fa8: 52800008    	mov	w8, #0
100003fac: 14000061    	b	0x100004130 <_barn_start_lexer+0x6cc>
100003fb0: 39411268    	ldrb	w8, [x19, #68]
100003fb4: 350069e8    	cbnz	w8, 0x100004cf0 <_barn_start_lexer+0x128c>
100003fb8: 3901127c    	strb	w28, [x19, #68]
100003fbc: 17ffff4e    	b	0x100003cf4 <_barn_start_lexer+0x290>
100003fc0: d2800017    	mov	x23, #0
100003fc4: 91000ae1    	add	x1, x23, #2
100003fc8: 9400151d    	bl	0x10000943c <_strlen+0x10000943c>
100003fcc: b4005fe0    	cbz	x0, 0x100004bc8 <_barn_start_lexer+0x1164>
100003fd0: 52800548    	mov	w8, #42
100003fd4: 78376808    	strh	w8, [x0, x23]
100003fd8: f9000300    	str	x0, [x24]
100003fdc: 17ffff46    	b	0x100003cf4 <_barn_start_lexer+0x290>
100003fe0: d2800008    	mov	x8, #0
100003fe4: f9001668    	str	x8, [x19, #40]
100003fe8: b9403a68    	ldr	w8, [x19, #56]
100003fec: 11000508    	add	w8, w8, #1
100003ff0: b9003a68    	str	w8, [x19, #56]
100003ff4: 17ffff40    	b	0x100003cf4 <_barn_start_lexer+0x290>
100003ff8: 39010a7c    	strb	w28, [x19, #66]
100003ffc: f9401268    	ldr	x8, [x19, #32]
100004000: b4000328    	cbz	x8, 0x100004064 <_barn_start_lexer+0x600>
100004004: b9803e69    	ldrsw	x9, [x19, #60]
100004008: d1000529    	sub	x9, x9, #1
10000400c: f940050a    	ldr	x10, [x8, #8]
100004010: eb09015f    	cmp	x10, x9
100004014: 54000289    	b.ls	0x100004064 <_barn_start_lexer+0x600>
100004018: f9400908    	ldr	x8, [x8, #16]
10000401c: f8697917    	ldr	x23, [x8, x9, lsl  #3]
100004020: 14000012    	b	0x100004068 <_barn_start_lexer+0x604>
100004024: 71009f5f    	cmp	w26, #39
100004028: 540003e1    	b.ne	0x1000040a4 <_barn_start_lexer+0x640>
10000402c: 71009d3f    	cmp	w9, #39
100004030: 54006960    	b.eq	0x100004d5c <_barn_start_lexer+0x12f8>
100004034: 91000508    	add	x8, x8, #1
100004038: b9003668    	str	w8, [x19, #52]
10000403c: f9400660    	ldr	x0, [x19, #8]
100004040: 38686808    	ldrb	w8, [x0, x8]
100004044: 3900c268    	strb	w8, [x19, #48]
100004048: 94001503    	bl	0x100009454 <_strlen+0x100009454>
10000404c: d1000409    	sub	x9, x0, #1
100004050: b9803668    	ldrsw	x8, [x19, #52]
100004054: eb08013f    	cmp	x9, x8
100004058: 54000a61    	b.ne	0x1000041a4 <_barn_start_lexer+0x740>
10000405c: 52800008    	mov	w8, #0
100004060: 14000054    	b	0x1000041b0 <_barn_start_lexer+0x74c>
100004064: d2800017    	mov	x23, #0
100004068: 52800020    	mov	w0, #1
10000406c: 52800021    	mov	w1, #1
100004070: 940014cc    	bl	0x1000093a0 <_strlen+0x1000093a0>
100004074: b4006640    	cbz	x0, 0x100004d3c <_barn_start_lexer+0x12d8>
100004078: 3900001f    	strb	wzr, [x0]
10000407c: f9400261    	ldr	x1, [x19]
100004080: 29471263    	ldp	w3, w4, [x19, #56]
100004084: aa1703e2    	mov	x2, x23
100004088: 528000c5    	mov	w5, #6
10000408c: 94001145    	bl	0x1000085a0 <_barn_create_token>
100004090: f9400e78    	ldr	x24, [x19, #24]
100004094: b40065d8    	cbz	x24, 0x100004d4c <_barn_start_lexer+0x12e8>
100004098: aa0003f7    	mov	x23, x0
10000409c: b5ffefe0    	cbnz	x0, 0x100003e98 <_barn_start_lexer+0x434>
1000040a0: 1400032b    	b	0x100004d4c <_barn_start_lexer+0x12e8>
1000040a4: d2800017    	mov	x23, #0
1000040a8: aa1403e0    	mov	x0, x20
1000040ac: 940014ea    	bl	0x100009454 <_strlen+0x100009454>
1000040b0: eb17001f    	cmp	x0, x23
1000040b4: 54000109    	b.ls	0x1000040d4 <_barn_start_lexer+0x670>
1000040b8: 38776a98    	ldrb	w24, [x20, x23]
1000040bc: 3940c268    	ldrb	w8, [x19, #48]
1000040c0: 910006f7    	add	x23, x23, #1
1000040c4: 6b08031f    	cmp	w24, w8
1000040c8: 54ffff01    	b.ne	0x1000040a8 <_barn_start_lexer+0x644>
1000040cc: 39410a68    	ldrb	w8, [x19, #66]
1000040d0: 34001c88    	cbz	w8, 0x100004460 <_barn_start_lexer+0x9fc>
1000040d4: d2800017    	mov	x23, #0
1000040d8: aa1503e0    	mov	x0, x21
1000040dc: 940014de    	bl	0x100009454 <_strlen+0x100009454>
1000040e0: eb17001f    	cmp	x0, x23
1000040e4: 54000769    	b.ls	0x1000041d0 <_barn_start_lexer+0x76c>
1000040e8: 38776ab8    	ldrb	w24, [x21, x23]
1000040ec: 3940c268    	ldrb	w8, [x19, #48]
1000040f0: 910006f7    	add	x23, x23, #1
1000040f4: 6b08031f    	cmp	w24, w8
1000040f8: 54ffff01    	b.ne	0x1000040d8 <_barn_start_lexer+0x674>
1000040fc: f9401268    	ldr	x8, [x19, #32]
100004100: b4001288    	cbz	x8, 0x100004350 <_barn_start_lexer+0x8ec>
100004104: b9803e69    	ldrsw	x9, [x19, #60]
100004108: d1000529    	sub	x9, x9, #1
10000410c: f940050a    	ldr	x10, [x8, #8]
100004110: eb09015f    	cmp	x10, x9
100004114: 540011e9    	b.ls	0x100004350 <_barn_start_lexer+0x8ec>
100004118: f9400908    	ldr	x8, [x8, #16]
10000411c: f8697917    	ldr	x23, [x8, x9, lsl  #3]
100004120: 1400008d    	b	0x100004354 <_barn_start_lexer+0x8f0>
100004124: f9400669    	ldr	x9, [x19, #8]
100004128: 8b090108    	add	x8, x8, x9
10000412c: 39400508    	ldrb	w8, [x8, #1]
100004130: 3900c668    	strb	w8, [x19, #49]
100004134: f9400e68    	ldr	x8, [x19, #24]
100004138: f9400509    	ldr	x9, [x8, #8]
10000413c: b40000a9    	cbz	x9, 0x100004150 <_barn_start_lexer+0x6ec>
100004140: f9400908    	ldr	x8, [x8, #16]
100004144: 8b090d08    	add	x8, x8, x9, lsl #3
100004148: f85f8108    	ldur	x8, [x8, #-8]
10000414c: 14000002    	b	0x100004154 <_barn_start_lexer+0x6f0>
100004150: d2800008    	mov	x8, #0
100004154: f9001668    	str	x8, [x19, #40]
100004158: b9403a68    	ldr	w8, [x19, #56]
10000415c: 11000509    	add	w9, w8, #1
100004160: b9003a69    	str	w9, [x19, #56]
100004164: 39c0c27a    	ldrsb	w26, [x19, #48]
100004168: 51017349    	sub	w9, w26, #92
10000416c: 7100613f    	cmp	w9, #24
100004170: 540011a8    	b.hi	0x1000043a4 <_barn_start_lexer+0x940>
100004174: b000002c    	adrp	x12, 0x100009000 <_barn_start_lexer+0x724>
100004178: 9114098c    	add	x12, x12, #1282
10000417c: 1000008a    	adr	x10, #16
100004180: 7869798b    	ldrh	w11, [x12, x9, lsl  #1]
100004184: 8b0b094a    	add	x10, x10, x11, lsl #2
100004188: d61f0140    	br	x10
10000418c: f9400300    	ldr	x0, [x24]
100004190: b4002320    	cbz	x0, 0x1000045f4 <_barn_start_lexer+0xb90>
100004194: 940014b0    	bl	0x100009454 <_strlen+0x100009454>
100004198: aa0003f7    	mov	x23, x0
10000419c: f9400300    	ldr	x0, [x24]
1000041a0: 14000116    	b	0x1000045f8 <_barn_start_lexer+0xb94>
1000041a4: f9400669    	ldr	x9, [x19, #8]
1000041a8: 8b090108    	add	x8, x8, x9
1000041ac: 39400508    	ldrb	w8, [x8, #1]
1000041b0: 3900c668    	strb	w8, [x19, #49]
1000041b4: f9400e68    	ldr	x8, [x19, #24]
1000041b8: f9400509    	ldr	x9, [x8, #8]
1000041bc: b4000249    	cbz	x9, 0x100004204 <_barn_start_lexer+0x7a0>
1000041c0: f9400908    	ldr	x8, [x8, #16]
1000041c4: 8b090d08    	add	x8, x8, x9, lsl #3
1000041c8: f85f8108    	ldur	x8, [x8, #-8]
1000041cc: 1400000f    	b	0x100004208 <_barn_start_lexer+0x7a4>
1000041d0: 3940c268    	ldrb	w8, [x19, #48]
1000041d4: 7100b91f    	cmp	w8, #46
1000041d8: 54001241    	b.ne	0x100004420 <_barn_start_lexer+0x9bc>
1000041dc: f9401268    	ldr	x8, [x19, #32]
1000041e0: b9803e63    	ldrsw	x3, [x19, #60]
1000041e4: d1000469    	sub	x9, x3, #1
1000041e8: b4001708    	cbz	x8, 0x1000044c8 <_barn_start_lexer+0xa64>
1000041ec: f940050a    	ldr	x10, [x8, #8]
1000041f0: eb09015f    	cmp	x10, x9
1000041f4: 540016a9    	b.ls	0x1000044c8 <_barn_start_lexer+0xa64>
1000041f8: f940090a    	ldr	x10, [x8, #16]
1000041fc: f8697957    	ldr	x23, [x10, x9, lsl  #3]
100004200: 140000b3    	b	0x1000044cc <_barn_start_lexer+0xa68>
100004204: d2800008    	mov	x8, #0
100004208: f9001668    	str	x8, [x19, #40]
10000420c: b9403a64    	ldr	w4, [x19, #56]
100004210: 11000488    	add	w8, w4, #1
100004214: b9003a68    	str	w8, [x19, #56]
100004218: 3940c268    	ldrb	w8, [x19, #48]
10000421c: 390103e8    	strb	w8, [sp, #64]
100004220: 390107ff    	strb	wzr, [sp, #65]
100004224: 34005b28    	cbz	w8, 0x100004d88 <_barn_start_lexer+0x1324>
100004228: 910103e0    	add	x0, sp, #64
10000422c: 9400148a    	bl	0x100009454 <_strlen+0x100009454>
100004230: 91000400    	add	x0, x0, #1
100004234: 52800021    	mov	w1, #1
100004238: 9400145a    	bl	0x1000093a0 <_strlen+0x1000093a0>
10000423c: b4005020    	cbz	x0, 0x100004c40 <_barn_start_lexer+0x11dc>
100004240: aa0003f7    	mov	x23, x0
100004244: 910103e1    	add	x1, sp, #64
100004248: 92800002    	mov	x2, #-1
10000424c: 94001446    	bl	0x100009364 <_strlen+0x100009364>
100004250: b9803668    	ldrsw	x8, [x19, #52]
100004254: 91000508    	add	x8, x8, #1
100004258: b9003668    	str	w8, [x19, #52]
10000425c: f9400660    	ldr	x0, [x19, #8]
100004260: 38686808    	ldrb	w8, [x0, x8]
100004264: 3900c268    	strb	w8, [x19, #48]
100004268: 9400147b    	bl	0x100009454 <_strlen+0x100009454>
10000426c: d1000409    	sub	x9, x0, #1
100004270: b9803668    	ldrsw	x8, [x19, #52]
100004274: eb08013f    	cmp	x9, x8
100004278: 54000061    	b.ne	0x100004284 <_barn_start_lexer+0x820>
10000427c: 52800008    	mov	w8, #0
100004280: 14000004    	b	0x100004290 <_barn_start_lexer+0x82c>
100004284: f9400669    	ldr	x9, [x19, #8]
100004288: 8b090108    	add	x8, x8, x9
10000428c: 39400508    	ldrb	w8, [x8, #1]
100004290: 3900c668    	strb	w8, [x19, #49]
100004294: f9400e68    	ldr	x8, [x19, #24]
100004298: f9400509    	ldr	x9, [x8, #8]
10000429c: b40000a9    	cbz	x9, 0x1000042b0 <_barn_start_lexer+0x84c>
1000042a0: f9400908    	ldr	x8, [x8, #16]
1000042a4: 8b090d08    	add	x8, x8, x9, lsl #3
1000042a8: f85f8108    	ldur	x8, [x8, #-8]
1000042ac: 14000002    	b	0x1000042b4 <_barn_start_lexer+0x850>
1000042b0: d2800008    	mov	x8, #0
1000042b4: f9001668    	str	x8, [x19, #40]
1000042b8: 29471268    	ldp	w8, w4, [x19, #56]
1000042bc: 93407c84    	sxtw	x4, w4
1000042c0: 11000503    	add	w3, w8, #1
1000042c4: b9003a63    	str	w3, [x19, #56]
1000042c8: 3940c269    	ldrb	w9, [x19, #48]
1000042cc: 71009d3f    	cmp	w9, #39
1000042d0: 54005721    	b.ne	0x100004db4 <_barn_start_lexer+0x1350>
1000042d4: f9401268    	ldr	x8, [x19, #32]
1000042d8: b4000108    	cbz	x8, 0x1000042f8 <_barn_start_lexer+0x894>
1000042dc: d1000489    	sub	x9, x4, #1
1000042e0: f940050a    	ldr	x10, [x8, #8]
1000042e4: eb09015f    	cmp	x10, x9
1000042e8: 54000089    	b.ls	0x1000042f8 <_barn_start_lexer+0x894>
1000042ec: f9400908    	ldr	x8, [x8, #16]
1000042f0: f8697902    	ldr	x2, [x8, x9, lsl  #3]
1000042f4: 14000002    	b	0x1000042fc <_barn_start_lexer+0x898>
1000042f8: d2800002    	mov	x2, #0
1000042fc: f9400261    	ldr	x1, [x19]
100004300: aa1703e0    	mov	x0, x23
100004304: 52800085    	mov	w5, #4
100004308: 940010a6    	bl	0x1000085a0 <_barn_create_token>
10000430c: f9400e78    	ldr	x24, [x19, #24]
100004310: b4005678    	cbz	x24, 0x100004ddc <_barn_start_lexer+0x1378>
100004314: aa0003f7    	mov	x23, x0
100004318: b4005620    	cbz	x0, 0x100004ddc <_barn_start_lexer+0x1378>
10000431c: a9408308    	ldp	x8, x0, [x24, #8]
100004320: d37df108    	lsl	x8, x8, #3
100004324: 91002101    	add	x1, x8, #8
100004328: 94001445    	bl	0x10000943c <_strlen+0x10000943c>
10000432c: b4004600    	cbz	x0, 0x100004bec <_barn_start_lexer+0x1188>
100004330: f9000b00    	str	x0, [x24, #16]
100004334: f9400708    	ldr	x8, [x24, #8]
100004338: f8287817    	str	x23, [x0, x8, lsl  #3]
10000433c: f9400708    	ldr	x8, [x24, #8]
100004340: 91000508    	add	x8, x8, #1
100004344: f9000708    	str	x8, [x24, #8]
100004348: 3901067f    	strb	wzr, [x19, #65]
10000434c: 17fffe6a    	b	0x100003cf4 <_barn_start_lexer+0x290>
100004350: d2800017    	mov	x23, #0
100004354: f940167a    	ldr	x26, [x19, #40]
100004358: b400099a    	cbz	x26, 0x100004488 <_barn_start_lexer+0xa24>
10000435c: 39410668    	ldrb	w8, [x19, #65]
100004360: 340012a8    	cbz	w8, 0x1000045b4 <_barn_start_lexer+0xb50>
100004364: 52800040    	mov	w0, #2
100004368: 52800021    	mov	w1, #1
10000436c: 9400140d    	bl	0x1000093a0 <_strlen+0x1000093a0>
100004370: b40055c0    	cbz	x0, 0x100004e28 <_barn_start_lexer+0x13c4>
100004374: 39000018    	strb	w24, [x0]
100004378: 3900041f    	strb	wzr, [x0, #1]
10000437c: f9400261    	ldr	x1, [x19]
100004380: 29471263    	ldp	w3, w4, [x19, #56]
100004384: aa1703e2    	mov	x2, x23
100004388: 52800065    	mov	w5, #3
10000438c: 94001085    	bl	0x1000085a0 <_barn_create_token>
100004390: f9400e7a    	ldr	x26, [x19, #24]
100004394: b4005a9a    	cbz	x26, 0x100004ee4 <_barn_start_lexer+0x1480>
100004398: aa0003f7    	mov	x23, x0
10000439c: b5001d40    	cbnz	x0, 0x100004744 <_barn_start_lexer+0xce0>
1000043a0: 140002d1    	b	0x100004ee4 <_barn_start_lexer+0x1480>
1000043a4: 71008b5f    	cmp	w26, #34
1000043a8: 54005521    	b.ne	0x100004e4c <_barn_start_lexer+0x13e8>
1000043ac: 5280045a    	mov	w26, #34
1000043b0: f9400300    	ldr	x0, [x24]
1000043b4: b50016e0    	cbnz	x0, 0x100004690 <_barn_start_lexer+0xc2c>
1000043b8: d2800017    	mov	x23, #0
1000043bc: 140000b8    	b	0x10000469c <_barn_start_lexer+0xc38>
1000043c0: f9400300    	ldr	x0, [x24]
1000043c4: b4001260    	cbz	x0, 0x100004610 <_barn_start_lexer+0xbac>
1000043c8: 94001423    	bl	0x100009454 <_strlen+0x100009454>
1000043cc: aa0003f7    	mov	x23, x0
1000043d0: f9400300    	ldr	x0, [x24]
1000043d4: 14000090    	b	0x100004614 <_barn_start_lexer+0xbb0>
1000043d8: f9400300    	ldr	x0, [x24]
1000043dc: b4001280    	cbz	x0, 0x10000462c <_barn_start_lexer+0xbc8>
1000043e0: 9400141d    	bl	0x100009454 <_strlen+0x100009454>
1000043e4: aa0003f7    	mov	x23, x0
1000043e8: f9400300    	ldr	x0, [x24]
1000043ec: 14000091    	b	0x100004630 <_barn_start_lexer+0xbcc>
1000043f0: f9400300    	ldr	x0, [x24]
1000043f4: b40012a0    	cbz	x0, 0x100004648 <_barn_start_lexer+0xbe4>
1000043f8: 94001417    	bl	0x100009454 <_strlen+0x100009454>
1000043fc: aa0003f7    	mov	x23, x0
100004400: f9400300    	ldr	x0, [x24]
100004404: 14000092    	b	0x10000464c <_barn_start_lexer+0xbe8>
100004408: f9400300    	ldr	x0, [x24]
10000440c: b40012c0    	cbz	x0, 0x100004664 <_barn_start_lexer+0xc00>
100004410: 94001411    	bl	0x100009454 <_strlen+0x100009454>
100004414: aa0003f7    	mov	x23, x0
100004418: f9400300    	ldr	x0, [x24]
10000441c: 14000093    	b	0x100004668 <_barn_start_lexer+0xc04>
100004420: aa1303e0    	mov	x0, x19
100004424: 940002e2    	bl	0x100004fac <_barn_lexer_create_symbol>
100004428: aa0003f7    	mov	x23, x0
10000442c: 34005337    	cbz	w23, 0x100004e90 <_barn_start_lexer+0x142c>
100004430: aa0103f8    	mov	x24, x1
100004434: f9401268    	ldr	x8, [x19, #32]
100004438: b4000688    	cbz	x8, 0x100004508 <_barn_start_lexer+0xaa4>
10000443c: b9803e69    	ldrsw	x9, [x19, #60]
100004440: d1000529    	sub	x9, x9, #1
100004444: f940050a    	ldr	x10, [x8, #8]
100004448: eb09015f    	cmp	x10, x9
10000444c: 540005e9    	b.ls	0x100004508 <_barn_start_lexer+0xaa4>
100004450: f9400908    	ldr	x8, [x8, #16]
100004454: f8697908    	ldr	x8, [x8, x9, lsl  #3]
100004458: f9001fe8    	str	x8, [sp, #56]
10000445c: 1400002c    	b	0x10000450c <_barn_start_lexer+0xaa8>
100004460: f9401268    	ldr	x8, [x19, #32]
100004464: b40007e8    	cbz	x8, 0x100004560 <_barn_start_lexer+0xafc>
100004468: b9803e69    	ldrsw	x9, [x19, #60]
10000446c: d1000529    	sub	x9, x9, #1
100004470: f940050a    	ldr	x10, [x8, #8]
100004474: eb09015f    	cmp	x10, x9
100004478: 54000749    	b.ls	0x100004560 <_barn_start_lexer+0xafc>
10000447c: f9400908    	ldr	x8, [x8, #16]
100004480: f8697917    	ldr	x23, [x8, x9, lsl  #3]
100004484: 14000038    	b	0x100004564 <_barn_start_lexer+0xb00>
100004488: 52800040    	mov	w0, #2
10000448c: 52800021    	mov	w1, #1
100004490: 940013c4    	bl	0x1000093a0 <_strlen+0x1000093a0>
100004494: b4004ca0    	cbz	x0, 0x100004e28 <_barn_start_lexer+0x13c4>
100004498: 39000018    	strb	w24, [x0]
10000449c: 3900041f    	strb	wzr, [x0, #1]
1000044a0: f9400261    	ldr	x1, [x19]
1000044a4: 29471263    	ldp	w3, w4, [x19, #56]
1000044a8: aa1703e2    	mov	x2, x23
1000044ac: 52800065    	mov	w5, #3
1000044b0: 9400103c    	bl	0x1000085a0 <_barn_create_token>
1000044b4: f9400e7a    	ldr	x26, [x19, #24]
1000044b8: b40051fa    	cbz	x26, 0x100004ef4 <_barn_start_lexer+0x1490>
1000044bc: aa0003f7    	mov	x23, x0
1000044c0: b5001420    	cbnz	x0, 0x100004744 <_barn_start_lexer+0xce0>
1000044c4: 1400028c    	b	0x100004ef4 <_barn_start_lexer+0x1490>
1000044c8: d2800017    	mov	x23, #0
1000044cc: f9401678    	ldr	x24, [x19, #40]
1000044d0: b4000f78    	cbz	x24, 0x1000046bc <_barn_start_lexer+0xc58>
1000044d4: b940230a    	ldr	w10, [x24, #32]
1000044d8: 7100155f    	cmp	w10, #5
1000044dc: 54001620    	b.eq	0x1000047a0 <_barn_start_lexer+0xd3c>
1000044e0: 71000d5f    	cmp	w10, #3
1000044e4: 54001621    	b.ne	0x1000047a8 <_barn_start_lexer+0xd44>
1000044e8: 39410668    	ldrb	w8, [x19, #65]
1000044ec: 350015e8    	cbnz	w8, 0x1000047a8 <_barn_start_lexer+0xd44>
1000044f0: f9400300    	ldr	x0, [x24]
1000044f4: b4002960    	cbz	x0, 0x100004a20 <_barn_start_lexer+0xfbc>
1000044f8: 940013d7    	bl	0x100009454 <_strlen+0x100009454>
1000044fc: aa0003f7    	mov	x23, x0
100004500: f9400300    	ldr	x0, [x24]
100004504: 14000148    	b	0x100004a24 <_barn_start_lexer+0xfc0>
100004508: f9001fff    	str	xzr, [sp, #56]
10000450c: aa1803e0    	mov	x0, x24
100004510: 940013d1    	bl	0x100009454 <_strlen+0x100009454>
100004514: 91000400    	add	x0, x0, #1
100004518: 52800021    	mov	w1, #1
10000451c: 940013a1    	bl	0x1000093a0 <_strlen+0x1000093a0>
100004520: b4003900    	cbz	x0, 0x100004c40 <_barn_start_lexer+0x11dc>
100004524: aa0003fa    	mov	x26, x0
100004528: aa1803e1    	mov	x1, x24
10000452c: 92800002    	mov	x2, #-1
100004530: 9400138d    	bl	0x100009364 <_strlen+0x100009364>
100004534: f9400261    	ldr	x1, [x19]
100004538: 29471263    	ldp	w3, w4, [x19, #56]
10000453c: aa1a03e0    	mov	x0, x26
100004540: f9401fe2    	ldr	x2, [sp, #56]
100004544: aa1703e5    	mov	x5, x23
100004548: 94001016    	bl	0x1000085a0 <_barn_create_token>
10000454c: f9400e78    	ldr	x24, [x19, #24]
100004550: b4004b98    	cbz	x24, 0x100004ec0 <_barn_start_lexer+0x145c>
100004554: aa0003f7    	mov	x23, x0
100004558: b5ffee20    	cbnz	x0, 0x10000431c <_barn_start_lexer+0x8b8>
10000455c: 14000259    	b	0x100004ec0 <_barn_start_lexer+0x145c>
100004560: d2800017    	mov	x23, #0
100004564: f940167a    	ldr	x26, [x19, #40]
100004568: b4000d1a    	cbz	x26, 0x100004708 <_barn_start_lexer+0xca4>
10000456c: 39410668    	ldrb	w8, [x19, #65]
100004570: 34001068    	cbz	w8, 0x10000477c <_barn_start_lexer+0xd18>
100004574: 52800040    	mov	w0, #2
100004578: 52800021    	mov	w1, #1
10000457c: 94001389    	bl	0x1000093a0 <_strlen+0x1000093a0>
100004580: b4004540    	cbz	x0, 0x100004e28 <_barn_start_lexer+0x13c4>
100004584: 39000018    	strb	w24, [x0]
100004588: 3900041f    	strb	wzr, [x0, #1]
10000458c: f9400261    	ldr	x1, [x19]
100004590: 29471263    	ldp	w3, w4, [x19, #56]
100004594: aa1703e2    	mov	x2, x23
100004598: 528000e5    	mov	w5, #7
10000459c: 94001001    	bl	0x1000085a0 <_barn_create_token>
1000045a0: f9400e7a    	ldr	x26, [x19, #24]
1000045a4: b4004b1a    	cbz	x26, 0x100004f04 <_barn_start_lexer+0x14a0>
1000045a8: aa0003f7    	mov	x23, x0
1000045ac: b5000cc0    	cbnz	x0, 0x100004744 <_barn_start_lexer+0xce0>
1000045b0: 14000255    	b	0x100004f04 <_barn_start_lexer+0x14a0>
1000045b4: b9402348    	ldr	w8, [x26, #32]
1000045b8: 51000d08    	sub	w8, w8, #3
1000045bc: 7100891f    	cmp	w8, #34
1000045c0: 54001e68    	b.hi	0x10000498c <_barn_start_lexer+0xf28>
1000045c4: b000002b    	adrp	x11, 0x100009000 <_barn_start_lexer+0xb74>
1000045c8: 9114d16b    	add	x11, x11, #1332
1000045cc: 10000089    	adr	x9, #16
1000045d0: 7868796a    	ldrh	w10, [x11, x8, lsl  #1]
1000045d4: 8b0a0929    	add	x9, x9, x10, lsl #2
1000045d8: d61f0120    	br	x9
1000045dc: f9400340    	ldr	x0, [x26]
1000045e0: b4001960    	cbz	x0, 0x10000490c <_barn_start_lexer+0xea8>
1000045e4: 9400139c    	bl	0x100009454 <_strlen+0x100009454>
1000045e8: aa0003f7    	mov	x23, x0
1000045ec: f9400340    	ldr	x0, [x26]
1000045f0: 140000c8    	b	0x100004910 <_barn_start_lexer+0xeac>
1000045f4: d2800017    	mov	x23, #0
1000045f8: 91000ae1    	add	x1, x23, #2
1000045fc: 94001390    	bl	0x10000943c <_strlen+0x10000943c>
100004600: b4002e40    	cbz	x0, 0x100004bc8 <_barn_start_lexer+0x1164>
100004604: 8b170008    	add	x8, x0, x23
100004608: 52800c5a    	mov	w26, #98
10000460c: 1400001c    	b	0x10000467c <_barn_start_lexer+0xc18>
100004610: d2800017    	mov	x23, #0
100004614: 91000ae1    	add	x1, x23, #2
100004618: 94001389    	bl	0x10000943c <_strlen+0x10000943c>
10000461c: b4002d60    	cbz	x0, 0x100004bc8 <_barn_start_lexer+0x1164>
100004620: 8b170008    	add	x8, x0, x23
100004624: 52800cba    	mov	w26, #101
100004628: 14000015    	b	0x10000467c <_barn_start_lexer+0xc18>
10000462c: d2800017    	mov	x23, #0
100004630: 91000ae1    	add	x1, x23, #2
100004634: 94001382    	bl	0x10000943c <_strlen+0x10000943c>
100004638: b4002c80    	cbz	x0, 0x100004bc8 <_barn_start_lexer+0x1164>
10000463c: 8b170008    	add	x8, x0, x23
100004640: 52800dda    	mov	w26, #110
100004644: 1400000e    	b	0x10000467c <_barn_start_lexer+0xc18>
100004648: d2800017    	mov	x23, #0
10000464c: 91000ae1    	add	x1, x23, #2
100004650: 9400137b    	bl	0x10000943c <_strlen+0x10000943c>
100004654: b4002ba0    	cbz	x0, 0x100004bc8 <_barn_start_lexer+0x1164>
100004658: 8b170008    	add	x8, x0, x23
10000465c: 52800e5a    	mov	w26, #114
100004660: 14000007    	b	0x10000467c <_barn_start_lexer+0xc18>
100004664: d2800017    	mov	x23, #0
100004668: 91000ae1    	add	x1, x23, #2
10000466c: 94001374    	bl	0x10000943c <_strlen+0x10000943c>
100004670: b4002ac0    	cbz	x0, 0x100004bc8 <_barn_start_lexer+0x1164>
100004674: 8b170008    	add	x8, x0, x23
100004678: 52800e9a    	mov	w26, #116
10000467c: 52800b89    	mov	w9, #92
100004680: 39000109    	strb	w9, [x8]
100004684: 8b0002e8    	add	x8, x23, x0
100004688: 3900051f    	strb	wzr, [x8, #1]
10000468c: f9000300    	str	x0, [x24]
100004690: 94001371    	bl	0x100009454 <_strlen+0x100009454>
100004694: aa0003f7    	mov	x23, x0
100004698: f9400300    	ldr	x0, [x24]
10000469c: 91000ae1    	add	x1, x23, #2
1000046a0: 94001367    	bl	0x10000943c <_strlen+0x10000943c>
1000046a4: b4002920    	cbz	x0, 0x100004bc8 <_barn_start_lexer+0x1164>
1000046a8: 8b170008    	add	x8, x0, x23
1000046ac: 3900011a    	strb	w26, [x8]
1000046b0: 3900051f    	strb	wzr, [x8, #1]
1000046b4: f9000300    	str	x0, [x24]
1000046b8: 17fffd8f    	b	0x100003cf4 <_barn_start_lexer+0x290>
1000046bc: 3940c668    	ldrb	w8, [x19, #49]
1000046c0: 7100b91f    	cmp	w8, #46
1000046c4: 54000b81    	b.ne	0x100004834 <_barn_start_lexer+0xdd0>
1000046c8: aa1303e0    	mov	x0, x19
1000046cc: 94000238    	bl	0x100004fac <_barn_lexer_create_symbol>
1000046d0: aa0003f7    	mov	x23, x0
1000046d4: 34ffb117    	cbz	w23, 0x100003cf4 <_barn_start_lexer+0x290>
1000046d8: aa0103f8    	mov	x24, x1
1000046dc: f9401268    	ldr	x8, [x19, #32]
1000046e0: b40012a8    	cbz	x8, 0x100004934 <_barn_start_lexer+0xed0>
1000046e4: b9803e69    	ldrsw	x9, [x19, #60]
1000046e8: d1000529    	sub	x9, x9, #1
1000046ec: f940050a    	ldr	x10, [x8, #8]
1000046f0: eb09015f    	cmp	x10, x9
1000046f4: 54001209    	b.ls	0x100004934 <_barn_start_lexer+0xed0>
1000046f8: f9400908    	ldr	x8, [x8, #16]
1000046fc: f8697908    	ldr	x8, [x8, x9, lsl  #3]
100004700: f9001fe8    	str	x8, [sp, #56]
100004704: 1400008d    	b	0x100004938 <_barn_start_lexer+0xed4>
100004708: 52800040    	mov	w0, #2
10000470c: 52800021    	mov	w1, #1
100004710: 94001324    	bl	0x1000093a0 <_strlen+0x1000093a0>
100004714: b40038a0    	cbz	x0, 0x100004e28 <_barn_start_lexer+0x13c4>
100004718: 39000018    	strb	w24, [x0]
10000471c: 3900041f    	strb	wzr, [x0, #1]
100004720: f9400261    	ldr	x1, [x19]
100004724: 29471263    	ldp	w3, w4, [x19, #56]
100004728: aa1703e2    	mov	x2, x23
10000472c: 528000e5    	mov	w5, #7
100004730: 94000f9c    	bl	0x1000085a0 <_barn_create_token>
100004734: f9400e7a    	ldr	x26, [x19, #24]
100004738: b4003efa    	cbz	x26, 0x100004f14 <_barn_start_lexer+0x14b0>
10000473c: aa0003f7    	mov	x23, x0
100004740: b4003ea0    	cbz	x0, 0x100004f14 <_barn_start_lexer+0x14b0>
100004744: aa1a03f8    	mov	x24, x26
100004748: a9c08308    	ldp	x8, x0, [x24, #8]!
10000474c: d37df108    	lsl	x8, x8, #3
100004750: 91002101    	add	x1, x8, #8
100004754: 9400133a    	bl	0x10000943c <_strlen+0x10000943c>
100004758: b40024a0    	cbz	x0, 0x100004bec <_barn_start_lexer+0x1188>
10000475c: f9000b40    	str	x0, [x26, #16]
100004760: f9400308    	ldr	x8, [x24]
100004764: f8287817    	str	x23, [x0, x8, lsl  #3]
100004768: f9400308    	ldr	x8, [x24]
10000476c: 91000508    	add	x8, x8, #1
100004770: f9000308    	str	x8, [x24]
100004774: 3901067f    	strb	wzr, [x19, #65]
100004778: 17fffd5f    	b	0x100003cf4 <_barn_start_lexer+0x290>
10000477c: b9402348    	ldr	w8, [x26, #32]
100004780: 71001d1f    	cmp	w8, #7
100004784: 54000a41    	b.ne	0x1000048cc <_barn_start_lexer+0xe68>
100004788: f9400340    	ldr	x0, [x26]
10000478c: b4001380    	cbz	x0, 0x1000049fc <_barn_start_lexer+0xf98>
100004790: 94001331    	bl	0x100009454 <_strlen+0x100009454>
100004794: aa0003f7    	mov	x23, x0
100004798: f9400340    	ldr	x0, [x26]
10000479c: 14000099    	b	0x100004a00 <_barn_start_lexer+0xf9c>
1000047a0: 3941066a    	ldrb	w10, [x19, #65]
1000047a4: 34003c4a    	cbz	w10, 0x100004f2c <_barn_start_lexer+0x14c8>
1000047a8: 3940c668    	ldrb	w8, [x19, #49]
1000047ac: 7100b91f    	cmp	w8, #46
1000047b0: 54000221    	b.ne	0x1000047f4 <_barn_start_lexer+0xd90>
1000047b4: aa1303e0    	mov	x0, x19
1000047b8: 940001fd    	bl	0x100004fac <_barn_lexer_create_symbol>
1000047bc: aa0003f7    	mov	x23, x0
1000047c0: 34001457    	cbz	w23, 0x100004a48 <_barn_start_lexer+0xfe4>
1000047c4: aa0103f8    	mov	x24, x1
1000047c8: f9401268    	ldr	x8, [x19, #32]
1000047cc: b4000548    	cbz	x8, 0x100004874 <_barn_start_lexer+0xe10>
1000047d0: b9803e69    	ldrsw	x9, [x19, #60]
1000047d4: d1000529    	sub	x9, x9, #1
1000047d8: f940050a    	ldr	x10, [x8, #8]
1000047dc: eb09015f    	cmp	x10, x9
1000047e0: 540004a9    	b.ls	0x100004874 <_barn_start_lexer+0xe10>
1000047e4: f9400908    	ldr	x8, [x8, #16]
1000047e8: f8697908    	ldr	x8, [x8, x9, lsl  #3]
1000047ec: f9001fe8    	str	x8, [sp, #56]
1000047f0: 14000022    	b	0x100004878 <_barn_start_lexer+0xe14>
1000047f4: 52800040    	mov	w0, #2
1000047f8: 52800021    	mov	w1, #1
1000047fc: 940012e9    	bl	0x1000093a0 <_strlen+0x1000093a0>
100004800: b4003140    	cbz	x0, 0x100004e28 <_barn_start_lexer+0x13c4>
100004804: 528005c8    	mov	w8, #46
100004808: 79000008    	strh	w8, [x0]
10000480c: f9400261    	ldr	x1, [x19]
100004810: 29471263    	ldp	w3, w4, [x19, #56]
100004814: aa1703e2    	mov	x2, x23
100004818: 528004a5    	mov	w5, #37
10000481c: 94000f61    	bl	0x1000085a0 <_barn_create_token>
100004820: f9400e78    	ldr	x24, [x19, #24]
100004824: b4003818    	cbz	x24, 0x100004f24 <_barn_start_lexer+0x14c0>
100004828: aa0003f7    	mov	x23, x0
10000482c: b5ffd780    	cbnz	x0, 0x10000431c <_barn_start_lexer+0x8b8>
100004830: 140001bd    	b	0x100004f24 <_barn_start_lexer+0x14c0>
100004834: 52800040    	mov	w0, #2
100004838: 52800021    	mov	w1, #1
10000483c: 940012d9    	bl	0x1000093a0 <_strlen+0x1000093a0>
100004840: b4002f40    	cbz	x0, 0x100004e28 <_barn_start_lexer+0x13c4>
100004844: 528005c8    	mov	w8, #46
100004848: 79000008    	strh	w8, [x0]
10000484c: f9400261    	ldr	x1, [x19]
100004850: 29471263    	ldp	w3, w4, [x19, #56]
100004854: aa1703e2    	mov	x2, x23
100004858: 528004a5    	mov	w5, #37
10000485c: 94000f51    	bl	0x1000085a0 <_barn_create_token>
100004860: f9400e78    	ldr	x24, [x19, #24]
100004864: b4003778    	cbz	x24, 0x100004f50 <_barn_start_lexer+0x14ec>
100004868: aa0003f7    	mov	x23, x0
10000486c: b5ffd580    	cbnz	x0, 0x10000431c <_barn_start_lexer+0x8b8>
100004870: 140001b8    	b	0x100004f50 <_barn_start_lexer+0x14ec>
100004874: f9001fff    	str	xzr, [sp, #56]
100004878: aa1803e0    	mov	x0, x24
10000487c: 940012f6    	bl	0x100009454 <_strlen+0x100009454>
100004880: 91000400    	add	x0, x0, #1
100004884: 52800021    	mov	w1, #1
100004888: 940012c6    	bl	0x1000093a0 <_strlen+0x1000093a0>
10000488c: b4001da0    	cbz	x0, 0x100004c40 <_barn_start_lexer+0x11dc>
100004890: aa0003fa    	mov	x26, x0
100004894: aa1803e1    	mov	x1, x24
100004898: 92800002    	mov	x2, #-1
10000489c: 940012b2    	bl	0x100009364 <_strlen+0x100009364>
1000048a0: f9400261    	ldr	x1, [x19]
1000048a4: 29471263    	ldp	w3, w4, [x19, #56]
1000048a8: aa1a03e0    	mov	x0, x26
1000048ac: f9401fe2    	ldr	x2, [sp, #56]
1000048b0: aa1703e5    	mov	x5, x23
1000048b4: 94000f3b    	bl	0x1000085a0 <_barn_create_token>
1000048b8: f9400e78    	ldr	x24, [x19, #24]
1000048bc: b40034f8    	cbz	x24, 0x100004f58 <_barn_start_lexer+0x14f4>
1000048c0: aa0003f7    	mov	x23, x0
1000048c4: b5ffd2c0    	cbnz	x0, 0x10000431c <_barn_start_lexer+0x8b8>
1000048c8: 140001a4    	b	0x100004f58 <_barn_start_lexer+0x14f4>
1000048cc: 52800040    	mov	w0, #2
1000048d0: 52800021    	mov	w1, #1
1000048d4: 940012b3    	bl	0x1000093a0 <_strlen+0x1000093a0>
1000048d8: b4002a80    	cbz	x0, 0x100004e28 <_barn_start_lexer+0x13c4>
1000048dc: 39000018    	strb	w24, [x0]
1000048e0: 3900041f    	strb	wzr, [x0, #1]
1000048e4: f9400261    	ldr	x1, [x19]
1000048e8: 29471263    	ldp	w3, w4, [x19, #56]
1000048ec: aa1703e2    	mov	x2, x23
1000048f0: 528000e5    	mov	w5, #7
1000048f4: 94000f2b    	bl	0x1000085a0 <_barn_create_token>
1000048f8: f9400e78    	ldr	x24, [x19, #24]
1000048fc: b4003498    	cbz	x24, 0x100004f8c <_barn_start_lexer+0x1528>
100004900: aa0003f7    	mov	x23, x0
100004904: b5ffd0c0    	cbnz	x0, 0x10000431c <_barn_start_lexer+0x8b8>
100004908: 140001a1    	b	0x100004f8c <_barn_start_lexer+0x1528>
10000490c: d2800017    	mov	x23, #0
100004910: 91000ae1    	add	x1, x23, #2
100004914: 940012ca    	bl	0x10000943c <_strlen+0x10000943c>
100004918: b4001580    	cbz	x0, 0x100004bc8 <_barn_start_lexer+0x1164>
10000491c: 8b170008    	add	x8, x0, x23
100004920: 39000118    	strb	w24, [x8]
100004924: 3900051f    	strb	wzr, [x8, #1]
100004928: f9000340    	str	x0, [x26]
10000492c: 3901067f    	strb	wzr, [x19, #65]
100004930: 17fffcf1    	b	0x100003cf4 <_barn_start_lexer+0x290>
100004934: f9001fff    	str	xzr, [sp, #56]
100004938: aa1803e0    	mov	x0, x24
10000493c: 940012c6    	bl	0x100009454 <_strlen+0x100009454>
100004940: 91000400    	add	x0, x0, #1
100004944: 52800021    	mov	w1, #1
100004948: 94001296    	bl	0x1000093a0 <_strlen+0x1000093a0>
10000494c: b40017a0    	cbz	x0, 0x100004c40 <_barn_start_lexer+0x11dc>
100004950: aa0003fa    	mov	x26, x0
100004954: aa1803e1    	mov	x1, x24
100004958: 92800002    	mov	x2, #-1
10000495c: 94001282    	bl	0x100009364 <_strlen+0x100009364>
100004960: f9400261    	ldr	x1, [x19]
100004964: 29471263    	ldp	w3, w4, [x19, #56]
100004968: aa1a03e0    	mov	x0, x26
10000496c: f9401fe2    	ldr	x2, [sp, #56]
100004970: aa1703e5    	mov	x5, x23
100004974: 94000f0b    	bl	0x1000085a0 <_barn_create_token>
100004978: f9400e78    	ldr	x24, [x19, #24]
10000497c: b4003018    	cbz	x24, 0x100004f7c <_barn_start_lexer+0x1518>
100004980: aa0003f7    	mov	x23, x0
100004984: b5ffa8a0    	cbnz	x0, 0x100003e98 <_barn_start_lexer+0x434>
100004988: 1400017d    	b	0x100004f7c <_barn_start_lexer+0x1518>
10000498c: 52800040    	mov	w0, #2
100004990: 52800021    	mov	w1, #1
100004994: 94001283    	bl	0x1000093a0 <_strlen+0x1000093a0>
100004998: b4002480    	cbz	x0, 0x100004e28 <_barn_start_lexer+0x13c4>
10000499c: 39000018    	strb	w24, [x0]
1000049a0: 3900041f    	strb	wzr, [x0, #1]
1000049a4: f9400261    	ldr	x1, [x19]
1000049a8: 29471263    	ldp	w3, w4, [x19, #56]
1000049ac: aa1703e2    	mov	x2, x23
1000049b0: 52800065    	mov	w5, #3
1000049b4: 94000efb    	bl	0x1000085a0 <_barn_create_token>
1000049b8: f9400e78    	ldr	x24, [x19, #24]
1000049bc: b4002f18    	cbz	x24, 0x100004f9c <_barn_start_lexer+0x1538>
1000049c0: aa0003f7    	mov	x23, x0
1000049c4: b5ffcac0    	cbnz	x0, 0x10000431c <_barn_start_lexer+0x8b8>
1000049c8: 14000175    	b	0x100004f9c <_barn_start_lexer+0x1538>
1000049cc: f9400340    	ldr	x0, [x26]
1000049d0: b4000400    	cbz	x0, 0x100004a50 <_barn_start_lexer+0xfec>
1000049d4: 940012a0    	bl	0x100009454 <_strlen+0x100009454>
1000049d8: aa0003f7    	mov	x23, x0
1000049dc: f9400340    	ldr	x0, [x26]
1000049e0: 1400001d    	b	0x100004a54 <_barn_start_lexer+0xff0>
1000049e4: f9400340    	ldr	x0, [x26]
1000049e8: b40004a0    	cbz	x0, 0x100004a7c <_barn_start_lexer+0x1018>
1000049ec: 9400129a    	bl	0x100009454 <_strlen+0x100009454>
1000049f0: aa0003f7    	mov	x23, x0
1000049f4: f9400340    	ldr	x0, [x26]
1000049f8: 14000022    	b	0x100004a80 <_barn_start_lexer+0x101c>
1000049fc: d2800017    	mov	x23, #0
100004a00: 91000ae1    	add	x1, x23, #2
100004a04: 9400128e    	bl	0x10000943c <_strlen+0x10000943c>
100004a08: b4000e00    	cbz	x0, 0x100004bc8 <_barn_start_lexer+0x1164>
100004a0c: 8b170008    	add	x8, x0, x23
100004a10: 39000118    	strb	w24, [x8]
100004a14: 3900051f    	strb	wzr, [x8, #1]
100004a18: f9000340    	str	x0, [x26]
100004a1c: 17fffcb6    	b	0x100003cf4 <_barn_start_lexer+0x290>
100004a20: d2800017    	mov	x23, #0
100004a24: 91000ae1    	add	x1, x23, #2
100004a28: 94001285    	bl	0x10000943c <_strlen+0x10000943c>
100004a2c: b4000ce0    	cbz	x0, 0x100004bc8 <_barn_start_lexer+0x1164>
100004a30: 528005c8    	mov	w8, #46
100004a34: 78376808    	strh	w8, [x0, x23]
100004a38: f9000300    	str	x0, [x24]
100004a3c: f9401668    	ldr	x8, [x19, #40]
100004a40: 528000a9    	mov	w9, #5
100004a44: b9002109    	str	w9, [x8, #32]
100004a48: 3901067f    	strb	wzr, [x19, #65]
100004a4c: 17fffcaa    	b	0x100003cf4 <_barn_start_lexer+0x290>
100004a50: d2800017    	mov	x23, #0
100004a54: 91000ae1    	add	x1, x23, #2
100004a58: 94001279    	bl	0x10000943c <_strlen+0x10000943c>
100004a5c: b4000b60    	cbz	x0, 0x100004bc8 <_barn_start_lexer+0x1164>
100004a60: 8b170008    	add	x8, x0, x23
100004a64: 39000118    	strb	w24, [x8]
100004a68: 3900051f    	strb	wzr, [x8, #1]
100004a6c: f9000340    	str	x0, [x26]
100004a70: f9401668    	ldr	x8, [x19, #40]
100004a74: 52800069    	mov	w9, #3
100004a78: 1400000b    	b	0x100004aa4 <_barn_start_lexer+0x1040>
100004a7c: d2800017    	mov	x23, #0
100004a80: 91000ae1    	add	x1, x23, #2
100004a84: 9400126e    	bl	0x10000943c <_strlen+0x10000943c>
100004a88: b4000a00    	cbz	x0, 0x100004bc8 <_barn_start_lexer+0x1164>
100004a8c: 8b170008    	add	x8, x0, x23
100004a90: 39000118    	strb	w24, [x8]
100004a94: 3900051f    	strb	wzr, [x8, #1]
100004a98: f9000340    	str	x0, [x26]
100004a9c: f9401668    	ldr	x8, [x19, #40]
100004aa0: 528000a9    	mov	w9, #5
100004aa4: b9002109    	str	w9, [x8, #32]
100004aa8: 3901067f    	strb	wzr, [x19, #65]
100004aac: 17fffc92    	b	0x100003cf4 <_barn_start_lexer+0x290>
100004ab0: f9400261    	ldr	x1, [x19]
100004ab4: 29471263    	ldp	w3, w4, [x19, #56]
100004ab8: d0000020    	adrp	x0, 0x10000a000 <_barn_start_lexer+0x106c>
100004abc: 912ab000    	add	x0, x0, #2732
100004ac0: d0000022    	adrp	x2, 0x10000a000 <_barn_start_lexer+0x1074>
100004ac4: 912ac042    	add	x2, x2, #2736
100004ac8: 52800025    	mov	w5, #1
100004acc: 94000eb5    	bl	0x1000085a0 <_barn_create_token>
100004ad0: f9400e75    	ldr	x21, [x19, #24]
100004ad4: f10002bf    	cmp	x21, #0
100004ad8: fa401804    	ccmp	x0, #0, #4, ne
100004adc: 54000e40    	b.eq	0x100004ca4 <_barn_start_lexer+0x1240>
100004ae0: aa0003f4    	mov	x20, x0
100004ae4: a94082a8    	ldp	x8, x0, [x21, #8]
100004ae8: d37df108    	lsl	x8, x8, #3
100004aec: 91002101    	add	x1, x8, #8
100004af0: 94001253    	bl	0x10000943c <_strlen+0x10000943c>
100004af4: b40007c0    	cbz	x0, 0x100004bec <_barn_start_lexer+0x1188>
100004af8: f9000aa0    	str	x0, [x21, #16]
100004afc: f94006a8    	ldr	x8, [x21, #8]
100004b00: f8287814    	str	x20, [x0, x8, lsl  #3]
100004b04: f94006a8    	ldr	x8, [x21, #8]
100004b08: 91000508    	add	x8, x8, #1
100004b0c: f90006a8    	str	x8, [x21, #8]
100004b10: f9400e68    	ldr	x8, [x19, #24]
100004b14: f9400509    	ldr	x9, [x8, #8]
100004b18: b4000449    	cbz	x9, 0x100004ba0 <_barn_start_lexer+0x113c>
100004b1c: d2800015    	mov	x21, #0
100004b20: f0000036    	adrp	x22, 0x10000b000 <_barn_start_lexer+0x10d8>
100004b24: 910832d6    	add	x22, x22, #524
100004b28: 90000057    	adrp	x23, 0x10000c000 <_barn_start_lexer+0x10e4>
100004b2c: 910762f7    	add	x23, x23, #472
100004b30: f0000034    	adrp	x20, 0x10000b000 <_barn_start_lexer+0x10e8>
100004b34: 910c8694    	add	x20, x20, #801
100004b38: 1400000e    	b	0x100004b70 <_barn_start_lexer+0x110c>
100004b3c: 2943290b    	ldp	w11, w10, [x8, #24]
100004b40: a940350c    	ldp	x12, x13, [x8]
100004b44: f9400908    	ldr	x8, [x8, #16]
100004b48: a90223ed    	stp	x13, x8, [sp, #32]
100004b4c: a90127eb    	stp	x11, x9, [sp, #16]
100004b50: a9002bec    	stp	x12, x10, [sp]
100004b54: aa1403e0    	mov	x0, x20
100004b58: 94001236    	bl	0x100009430 <_strlen+0x100009430>
100004b5c: 910006b5    	add	x21, x21, #1
100004b60: f9400e68    	ldr	x8, [x19, #24]
100004b64: f9400509    	ldr	x9, [x8, #8]
100004b68: eb15013f    	cmp	x9, x21
100004b6c: 540001a9    	b.ls	0x100004ba0 <_barn_start_lexer+0x113c>
100004b70: eb15013f    	cmp	x9, x21
100004b74: 54000089    	b.ls	0x100004b84 <_barn_start_lexer+0x1120>
100004b78: f9400908    	ldr	x8, [x8, #16]
100004b7c: f8757908    	ldr	x8, [x8, x21, lsl  #3]
100004b80: 14000002    	b	0x100004b88 <_barn_start_lexer+0x1124>
100004b84: d2800008    	mov	x8, #0
100004b88: b940210a    	ldr	w10, [x8, #32]
100004b8c: aa1603e9    	mov	x9, x22
100004b90: 7100a15f    	cmp	w10, #40
100004b94: 54fffd48    	b.hi	0x100004b3c <_barn_start_lexer+0x10d8>
100004b98: f86a7ae9    	ldr	x9, [x23, x10, lsl  #3]
100004b9c: 17ffffe8    	b	0x100004b3c <_barn_start_lexer+0x10d8>
100004ba0: aa1303e0    	mov	x0, x19
100004ba4: 914023ff    	add	sp, sp, #8, lsl #12     ; =32768
100004ba8: 910103ff    	add	sp, sp, #64
100004bac: a9457bfd    	ldp	x29, x30, [sp, #80]
100004bb0: a9444ff4    	ldp	x20, x19, [sp, #64]
100004bb4: a94357f6    	ldp	x22, x21, [sp, #48]
100004bb8: a9425ff8    	ldp	x24, x23, [sp, #32]
100004bbc: a94167fa    	ldp	x26, x25, [sp, #16]
100004bc0: a8c66ffc    	ldp	x28, x27, [sp], #96
100004bc4: d65f03c0    	ret
100004bc8: 528006a8    	mov	w8, #53
100004bcc: f0000029    	adrp	x9, 0x10000b000 <_barn_start_lexer+0x1184>
100004bd0: 9105e129    	add	x9, x9, #376
100004bd4: a90123e9    	stp	x9, x8, [sp, #16]
100004bd8: f0000028    	adrp	x8, 0x10000b000 <_barn_start_lexer+0x1190>
100004bdc: 91045508    	add	x8, x8, #277
100004be0: f0000029    	adrp	x9, 0x10000b000 <_barn_start_lexer+0x1198>
100004be4: 9105c129    	add	x9, x9, #368
100004be8: 1400001e    	b	0x100004c60 <_barn_start_lexer+0x11fc>
100004bec: 52800b88    	mov	w8, #92
100004bf0: b0000029    	adrp	x9, 0x100009000 <_barn_start_lexer+0x11a0>
100004bf4: 911dd529    	add	x9, x9, #1909
100004bf8: a90123e9    	stp	x9, x8, [sp, #16]
100004bfc: b0000028    	adrp	x8, 0x100009000 <_barn_start_lexer+0x11ac>
100004c00: 911cc908    	add	x8, x8, #1842
100004c04: b0000029    	adrp	x9, 0x100009000 <_barn_start_lexer+0x11b4>
100004c08: 911db529    	add	x9, x9, #1901
100004c0c: 14000015    	b	0x100004c60 <_barn_start_lexer+0x11fc>
100004c10: 528014a8    	mov	w8, #165
100004c14: d0000029    	adrp	x9, 0x10000a000 <_barn_start_lexer+0x11c8>
100004c18: 91172d29    	add	x9, x9, #1483
100004c1c: a90123e9    	stp	x9, x8, [sp, #16]
100004c20: d0000028    	adrp	x8, 0x10000a000 <_barn_start_lexer+0x11d4>
100004c24: 91166108    	add	x8, x8, #1432
100004c28: d0000029    	adrp	x9, 0x10000a000 <_barn_start_lexer+0x11dc>
100004c2c: 91132929    	add	x9, x9, #1226
100004c30: a90027e8    	stp	x8, x9, [sp]
100004c34: d0000021    	adrp	x1, 0x10000a000 <_barn_start_lexer+0x11e8>
100004c38: 9115d821    	add	x1, x1, #1398
100004c3c: 1400000c    	b	0x100004c6c <_barn_start_lexer+0x1208>
100004c40: 528003c8    	mov	w8, #30
100004c44: f0000029    	adrp	x9, 0x10000b000 <_barn_start_lexer+0x11fc>
100004c48: 91048d29    	add	x9, x9, #291
100004c4c: a90123e9    	stp	x9, x8, [sp, #16]
100004c50: f0000028    	adrp	x8, 0x10000b000 <_barn_start_lexer+0x1208>
100004c54: 91045508    	add	x8, x8, #277
100004c58: f0000029    	adrp	x9, 0x10000b000 <_barn_start_lexer+0x1210>
100004c5c: 91042929    	add	x9, x9, #266
100004c60: a90023e9    	stp	x9, x8, [sp]
100004c64: f0000021    	adrp	x1, 0x10000b000 <_barn_start_lexer+0x121c>
100004c68: 910ea421    	add	x1, x1, #937
100004c6c: 528000e0    	mov	w0, #7
100004c70: 97fff750    	bl	0x1000029b0 <_barn_error_show>
100004c74: 52800020    	mov	w0, #1
100004c78: 940011cd    	bl	0x1000093ac <_strlen+0x1000093ac>
100004c7c: 52800968    	mov	w8, #75
100004c80: d0000029    	adrp	x9, 0x10000a000 <_barn_start_lexer+0x1234>
100004c84: 9113b129    	add	x9, x9, #1260
100004c88: a90123e9    	stp	x9, x8, [sp, #16]
100004c8c: d0000028    	adrp	x8, 0x10000a000 <_barn_start_lexer+0x1240>
100004c90: 9113a908    	add	x8, x8, #1258
100004c94: d0000029    	adrp	x9, 0x10000a000 <_barn_start_lexer+0x1248>
100004c98: 91132929    	add	x9, x9, #1226
100004c9c: a90027e8    	stp	x8, x9, [sp]
100004ca0: 17fffff1    	b	0x100004c64 <_barn_start_lexer+0x1200>
100004ca4: 52807368    	mov	w8, #923
100004ca8: d0000029    	adrp	x9, 0x10000a000 <_barn_start_lexer+0x125c>
100004cac: 91298d29    	add	x9, x9, #2659
100004cb0: 17ffffdb    	b	0x100004c1c <_barn_start_lexer+0x11b8>
100004cb4: f9400262    	ldr	x2, [x19]
100004cb8: b9803e63    	ldrsw	x3, [x19, #60]
100004cbc: f9401268    	ldr	x8, [x19, #32]
100004cc0: b4000108    	cbz	x8, 0x100004ce0 <_barn_start_lexer+0x127c>
100004cc4: d1000469    	sub	x9, x3, #1
100004cc8: f940050a    	ldr	x10, [x8, #8]
100004ccc: eb09015f    	cmp	x10, x9
100004cd0: 54000089    	b.ls	0x100004ce0 <_barn_start_lexer+0x127c>
100004cd4: f9400908    	ldr	x8, [x8, #16]
100004cd8: f8697906    	ldr	x6, [x8, x9, lsl  #3]
100004cdc: 14000002    	b	0x100004ce4 <_barn_start_lexer+0x1280>
100004ce0: d2800006    	mov	x6, #0
100004ce4: d0000027    	adrp	x7, 0x10000a000 <_barn_start_lexer+0x1298>
100004ce8: 9118d0e7    	add	x7, x7, #1588
100004cec: 1400000f    	b	0x100004d28 <_barn_start_lexer+0x12c4>
100004cf0: f9400262    	ldr	x2, [x19]
100004cf4: b9803e63    	ldrsw	x3, [x19, #60]
100004cf8: f9401268    	ldr	x8, [x19, #32]
100004cfc: b4000108    	cbz	x8, 0x100004d1c <_barn_start_lexer+0x12b8>
100004d00: d1000469    	sub	x9, x3, #1
100004d04: f940050a    	ldr	x10, [x8, #8]
100004d08: eb09015f    	cmp	x10, x9
100004d0c: 54000089    	b.ls	0x100004d1c <_barn_start_lexer+0x12b8>
100004d10: f9400908    	ldr	x8, [x8, #16]
100004d14: f8697906    	ldr	x6, [x8, x9, lsl  #3]
100004d18: 14000002    	b	0x100004d20 <_barn_start_lexer+0x12bc>
100004d1c: d2800006    	mov	x6, #0
100004d20: d0000027    	adrp	x7, 0x10000a000 <_barn_start_lexer+0x12d4>
100004d24: 9117d0e7    	add	x7, x7, #1524
100004d28: 52800041    	mov	w1, #2
100004d2c: 52800005    	mov	w5, #0
100004d30: 97fff65f    	bl	0x1000026ac <_barn_error_show_with_line>
100004d34: 52800020    	mov	w0, #1
100004d38: 9400119d    	bl	0x1000093ac <_strlen+0x1000093ac>
100004d3c: 52800508    	mov	w8, #40
100004d40: f0000029    	adrp	x9, 0x10000b000 <_barn_start_lexer+0x12f8>
100004d44: 91052d29    	add	x9, x9, #331
100004d48: 1400003b    	b	0x100004e34 <_barn_start_lexer+0x13d0>
100004d4c: 52802068    	mov	w8, #259
100004d50: d0000029    	adrp	x9, 0x10000a000 <_barn_start_lexer+0x1304>
100004d54: 9119b529    	add	x9, x9, #1645
100004d58: 17ffffb1    	b	0x100004c1c <_barn_start_lexer+0x11b8>
100004d5c: f9400262    	ldr	x2, [x19]
100004d60: b9803e63    	ldrsw	x3, [x19, #60]
100004d64: f9401268    	ldr	x8, [x19, #32]
100004d68: b4000428    	cbz	x8, 0x100004dec <_barn_start_lexer+0x1388>
100004d6c: d1000469    	sub	x9, x3, #1
100004d70: f940050a    	ldr	x10, [x8, #8]
100004d74: eb09015f    	cmp	x10, x9
100004d78: 540003a9    	b.ls	0x100004dec <_barn_start_lexer+0x1388>
100004d7c: f9400908    	ldr	x8, [x8, #16]
100004d80: f8697906    	ldr	x6, [x8, x9, lsl  #3]
100004d84: 1400001b    	b	0x100004df0 <_barn_start_lexer+0x138c>
100004d88: f9400262    	ldr	x2, [x19]
100004d8c: b9803e63    	ldrsw	x3, [x19, #60]
100004d90: f9401268    	ldr	x8, [x19, #32]
100004d94: b4000348    	cbz	x8, 0x100004dfc <_barn_start_lexer+0x1398>
100004d98: d1000469    	sub	x9, x3, #1
100004d9c: f940050a    	ldr	x10, [x8, #8]
100004da0: eb09015f    	cmp	x10, x9
100004da4: 540002c9    	b.ls	0x100004dfc <_barn_start_lexer+0x1398>
100004da8: f9400908    	ldr	x8, [x8, #16]
100004dac: f8697906    	ldr	x6, [x8, x9, lsl  #3]
100004db0: 14000014    	b	0x100004e00 <_barn_start_lexer+0x139c>
100004db4: f9400262    	ldr	x2, [x19]
100004db8: f9401269    	ldr	x9, [x19, #32]
100004dbc: b4000289    	cbz	x9, 0x100004e0c <_barn_start_lexer+0x13a8>
100004dc0: d100048a    	sub	x10, x4, #1
100004dc4: f940052b    	ldr	x11, [x9, #8]
100004dc8: eb0a017f    	cmp	x11, x10
100004dcc: 54000209    	b.ls	0x100004e0c <_barn_start_lexer+0x13a8>
100004dd0: f9400929    	ldr	x9, [x9, #16]
100004dd4: f86a7926    	ldr	x6, [x9, x10, lsl  #3]
100004dd8: 1400000e    	b	0x100004e10 <_barn_start_lexer+0x13ac>
100004ddc: 52802d08    	mov	w8, #360
100004de0: d0000029    	adrp	x9, 0x10000a000 <_barn_start_lexer+0x1394>
100004de4: 911c8129    	add	x9, x9, #1824
100004de8: 17ffff8d    	b	0x100004c1c <_barn_start_lexer+0x11b8>
100004dec: d2800006    	mov	x6, #0
100004df0: d0000027    	adrp	x7, 0x10000a000 <_barn_start_lexer+0x13a4>
100004df4: 911b6ce7    	add	x7, x7, #1755
100004df8: 17ffffcc    	b	0x100004d28 <_barn_start_lexer+0x12c4>
100004dfc: d2800006    	mov	x6, #0
100004e00: d0000027    	adrp	x7, 0x10000a000 <_barn_start_lexer+0x13b4>
100004e04: 911ae4e7    	add	x7, x7, #1721
100004e08: 17ffffc8    	b	0x100004d28 <_barn_start_lexer+0x12c4>
100004e0c: d2800006    	mov	x6, #0
100004e10: d0000027    	adrp	x7, 0x10000a000 <_barn_start_lexer+0x13c4>
100004e14: 911bf0e7    	add	x7, x7, #1788
100004e18: 52800041    	mov	w1, #2
100004e1c: aa0403e3    	mov	x3, x4
100004e20: aa0803e4    	mov	x4, x8
100004e24: 17ffffc2    	b	0x100004d2c <_barn_start_lexer+0x12c8>
100004e28: 52800908    	mov	w8, #72
100004e2c: f0000029    	adrp	x9, 0x10000b000 <_barn_start_lexer+0x13e4>
100004e30: 9106c529    	add	x9, x9, #433
100004e34: a90123e9    	stp	x9, x8, [sp, #16]
100004e38: f0000028    	adrp	x8, 0x10000b000 <_barn_start_lexer+0x13f0>
100004e3c: 91045508    	add	x8, x8, #277
100004e40: f0000029    	adrp	x9, 0x10000b000 <_barn_start_lexer+0x13f8>
100004e44: 91051d29    	add	x9, x9, #327
100004e48: 17ffff86    	b	0x100004c60 <_barn_start_lexer+0x11fc>
100004e4c: f9400262    	ldr	x2, [x19]
100004e50: b9803e63    	ldrsw	x3, [x19, #60]
100004e54: f9401269    	ldr	x9, [x19, #32]
100004e58: b4000109    	cbz	x9, 0x100004e78 <_barn_start_lexer+0x1414>
100004e5c: d100046a    	sub	x10, x3, #1
100004e60: f940052b    	ldr	x11, [x9, #8]
100004e64: eb0a017f    	cmp	x11, x10
100004e68: 54000089    	b.ls	0x100004e78 <_barn_start_lexer+0x1414>
100004e6c: f9400929    	ldr	x9, [x9, #16]
100004e70: f86a7926    	ldr	x6, [x9, x10, lsl  #3]
100004e74: 14000002    	b	0x100004e7c <_barn_start_lexer+0x1418>
100004e78: d2800006    	mov	x6, #0
100004e7c: 51000504    	sub	w4, w8, #1
100004e80: f90003fa    	str	x26, [sp]
100004e84: d0000027    	adrp	x7, 0x10000a000 <_barn_start_lexer+0x1438>
100004e88: 911a6ce7    	add	x7, x7, #1691
100004e8c: 17ffffa7    	b	0x100004d28 <_barn_start_lexer+0x12c4>
100004e90: f9400262    	ldr	x2, [x19]
100004e94: 29470e68    	ldp	w8, w3, [x19, #56]
100004e98: 93407c63    	sxtw	x3, w3
100004e9c: f9401269    	ldr	x9, [x19, #32]
100004ea0: b4000149    	cbz	x9, 0x100004ec8 <_barn_start_lexer+0x1464>
100004ea4: d100046a    	sub	x10, x3, #1
100004ea8: f940052b    	ldr	x11, [x9, #8]
100004eac: eb0a017f    	cmp	x11, x10
100004eb0: 540000c9    	b.ls	0x100004ec8 <_barn_start_lexer+0x1464>
100004eb4: f9400929    	ldr	x9, [x9, #16]
100004eb8: f86a7926    	ldr	x6, [x9, x10, lsl  #3]
100004ebc: 14000004    	b	0x100004ecc <_barn_start_lexer+0x1468>
100004ec0: 52807148    	mov	w8, #906
100004ec4: 17ffff79    	b	0x100004ca8 <_barn_start_lexer+0x1244>
100004ec8: d2800006    	mov	x6, #0
100004ecc: 51000504    	sub	w4, w8, #1
100004ed0: 3980c268    	ldrsb	x8, [x19, #48]
100004ed4: a90023e8    	stp	x8, x8, [sp]
100004ed8: d0000027    	adrp	x7, 0x10000a000 <_barn_start_lexer+0x148c>
100004edc: 912a20e7    	add	x7, x7, #2696
100004ee0: 17ffff92    	b	0x100004d28 <_barn_start_lexer+0x12c4>
100004ee4: 52803fa8    	mov	w8, #509
100004ee8: d0000029    	adrp	x9, 0x10000a000 <_barn_start_lexer+0x149c>
100004eec: 91235929    	add	x9, x9, #2262
100004ef0: 17ffff4b    	b	0x100004c1c <_barn_start_lexer+0x11b8>
100004ef4: 528038c8    	mov	w8, #454
100004ef8: d0000029    	adrp	x9, 0x10000a000 <_barn_start_lexer+0x14ac>
100004efc: 91213d29    	add	x9, x9, #2127
100004f00: 17ffff47    	b	0x100004c1c <_barn_start_lexer+0x11b8>
100004f04: 52803728    	mov	w8, #441
100004f08: d0000029    	adrp	x9, 0x10000a000 <_barn_start_lexer+0x14bc>
100004f0c: 91207529    	add	x9, x9, #2077
100004f10: 17ffff43    	b	0x100004c1c <_barn_start_lexer+0x11b8>
100004f14: 528031a8    	mov	w8, #397
100004f18: d0000029    	adrp	x9, 0x10000a000 <_barn_start_lexer+0x14cc>
100004f1c: 911e3929    	add	x9, x9, #1934
100004f20: 17ffff3f    	b	0x100004c1c <_barn_start_lexer+0x11b8>
100004f24: 52804568    	mov	w8, #555
100004f28: 1400000d    	b	0x100004f5c <_barn_start_lexer+0x14f8>
100004f2c: f9400262    	ldr	x2, [x19]
100004f30: b9403a6a    	ldr	w10, [x19, #56]
100004f34: b40001a8    	cbz	x8, 0x100004f68 <_barn_start_lexer+0x1504>
100004f38: f940050b    	ldr	x11, [x8, #8]
100004f3c: eb09017f    	cmp	x11, x9
100004f40: 54000149    	b.ls	0x100004f68 <_barn_start_lexer+0x1504>
100004f44: f9400908    	ldr	x8, [x8, #16]
100004f48: f8697906    	ldr	x6, [x8, x9, lsl  #3]
100004f4c: 14000008    	b	0x100004f6c <_barn_start_lexer+0x1508>
100004f50: 528049e8    	mov	w8, #591
100004f54: 1400000b    	b	0x100004f80 <_barn_start_lexer+0x151c>
100004f58: 52804468    	mov	w8, #547
100004f5c: d0000029    	adrp	x9, 0x10000a000 <_barn_start_lexer+0x1510>
100004f60: 91248d29    	add	x9, x9, #2339
100004f64: 17ffff2e    	b	0x100004c1c <_barn_start_lexer+0x11b8>
100004f68: d2800006    	mov	x6, #0
100004f6c: 51000544    	sub	w4, w10, #1
100004f70: d0000027    	adrp	x7, 0x10000a000 <_barn_start_lexer+0x1524>
100004f74: 912410e7    	add	x7, x7, #2308
100004f78: 17ffff6c    	b	0x100004d28 <_barn_start_lexer+0x12c4>
100004f7c: 528048e8    	mov	w8, #583
100004f80: d0000029    	adrp	x9, 0x10000a000 <_barn_start_lexer+0x1534>
100004f84: 9125b129    	add	x9, x9, #2412
100004f88: 17ffff25    	b	0x100004c1c <_barn_start_lexer+0x11b8>
100004f8c: 52803488    	mov	w8, #420
100004f90: d0000029    	adrp	x9, 0x10000a000 <_barn_start_lexer+0x1544>
100004f94: 911f6529    	add	x9, x9, #2009
100004f98: 17ffff21    	b	0x100004c1c <_barn_start_lexer+0x11b8>
100004f9c: 52803d08    	mov	w8, #488
100004fa0: d0000029    	adrp	x9, 0x10000a000 <_barn_lexer_create_symbol+0xc>
100004fa4: 91225929    	add	x9, x9, #2198
100004fa8: 17ffff1d    	b	0x100004c1c <_barn_start_lexer+0x11b8>

0000000100004fac <_barn_lexer_create_symbol>:
100004fac: a9be4ff4    	stp	x20, x19, [sp, #-32]!
100004fb0: a9017bfd    	stp	x29, x30, [sp, #16]
100004fb4: aa0003f3    	mov	x19, x0
100004fb8: d2800000    	mov	x0, #0
100004fbc: 39c0c268    	ldrsb	w8, [x19, #48]
100004fc0: f0000021    	adrp	x1, 0x10000b000 <_barn_lexer_create_symbol+0x30>
100004fc4: 9119fc21    	add	x1, x1, #1663
100004fc8: 51008508    	sub	w8, w8, #33
100004fcc: 7101711f    	cmp	w8, #92
100004fd0: 54003bc8    	b.hi	0x100005748 <_barn_lexer_create_symbol+0x79c>
100004fd4: b0000029    	adrp	x9, 0x100009000 <_barn_lexer_create_symbol+0x3c>
100004fd8: 9115e929    	add	x9, x9, #1402
100004fdc: 1000008a    	adr	x10, #16
100004fe0: 7868792b    	ldrh	w11, [x9, x8, lsl  #1]
100004fe4: 8b0b094a    	add	x10, x10, x11, lsl #2
100004fe8: d61f0140    	br	x10
100004fec: 3940c668    	ldrb	w8, [x19, #49]
100004ff0: 7100f51f    	cmp	w8, #61
100004ff4: 540019c1    	b.ne	0x10000532c <_barn_lexer_create_symbol+0x380>
100004ff8: b9803668    	ldrsw	x8, [x19, #52]
100004ffc: 91000508    	add	x8, x8, #1
100005000: b9003668    	str	w8, [x19, #52]
100005004: f9400660    	ldr	x0, [x19, #8]
100005008: 38686808    	ldrb	w8, [x0, x8]
10000500c: 3900c268    	strb	w8, [x19, #48]
100005010: 94001111    	bl	0x100009454 <_strlen+0x100009454>
100005014: d1000409    	sub	x9, x0, #1
100005018: b9803668    	ldrsw	x8, [x19, #52]
10000501c: eb08013f    	cmp	x9, x8
100005020: 54002221    	b.ne	0x100005464 <_barn_lexer_create_symbol+0x4b8>
100005024: 52800008    	mov	w8, #0
100005028: 14000112    	b	0x100005470 <_barn_lexer_create_symbol+0x4c4>
10000502c: b0000021    	adrp	x1, 0x10000a000 <_barn_lexer_create_symbol+0x94>
100005030: 9127a021    	add	x1, x1, #2536
100005034: 52800180    	mov	w0, #12
100005038: 140001c4    	b	0x100005748 <_barn_lexer_create_symbol+0x79c>
10000503c: 3940c668    	ldrb	w8, [x19, #49]
100005040: 7100991f    	cmp	w8, #38
100005044: 54003881    	b.ne	0x100005754 <_barn_lexer_create_symbol+0x7a8>
100005048: b9803668    	ldrsw	x8, [x19, #52]
10000504c: 91000508    	add	x8, x8, #1
100005050: b9003668    	str	w8, [x19, #52]
100005054: f9400660    	ldr	x0, [x19, #8]
100005058: 38686808    	ldrb	w8, [x0, x8]
10000505c: 3900c268    	strb	w8, [x19, #48]
100005060: 940010fd    	bl	0x100009454 <_strlen+0x100009454>
100005064: d1000409    	sub	x9, x0, #1
100005068: b9803668    	ldrsw	x8, [x19, #52]
10000506c: eb08013f    	cmp	x9, x8
100005070: 54001961    	b.ne	0x10000539c <_barn_lexer_create_symbol+0x3f0>
100005074: 52800008    	mov	w8, #0
100005078: 140000cc    	b	0x1000053a8 <_barn_lexer_create_symbol+0x3fc>
10000507c: b0000021    	adrp	x1, 0x10000a000 <_barn_lexer_create_symbol+0xe4>
100005080: 91268021    	add	x1, x1, #2464
100005084: 528003a0    	mov	w0, #29
100005088: 140001b0    	b	0x100005748 <_barn_lexer_create_symbol+0x79c>
10000508c: b0000021    	adrp	x1, 0x10000a000 <_barn_lexer_create_symbol+0xf4>
100005090: 91268821    	add	x1, x1, #2466
100005094: 528003c0    	mov	w0, #30
100005098: 140001ac    	b	0x100005748 <_barn_lexer_create_symbol+0x79c>
10000509c: 3940c668    	ldrb	w8, [x19, #49]
1000050a0: 7100f51f    	cmp	w8, #61
1000050a4: 540014c1    	b.ne	0x10000533c <_barn_lexer_create_symbol+0x390>
1000050a8: b9803668    	ldrsw	x8, [x19, #52]
1000050ac: 91000508    	add	x8, x8, #1
1000050b0: b9003668    	str	w8, [x19, #52]
1000050b4: f9400660    	ldr	x0, [x19, #8]
1000050b8: 38686808    	ldrb	w8, [x0, x8]
1000050bc: 3900c268    	strb	w8, [x19, #48]
1000050c0: 940010e5    	bl	0x100009454 <_strlen+0x100009454>
1000050c4: d1000409    	sub	x9, x0, #1
1000050c8: b9803668    	ldrsw	x8, [x19, #52]
1000050cc: eb08013f    	cmp	x9, x8
1000050d0: 54001e01    	b.ne	0x100005490 <_barn_lexer_create_symbol+0x4e4>
1000050d4: 52800008    	mov	w8, #0
1000050d8: 140000f1    	b	0x10000549c <_barn_lexer_create_symbol+0x4f0>
1000050dc: 3940c668    	ldrb	w8, [x19, #49]
1000050e0: 7100ad1f    	cmp	w8, #43
1000050e4: 54001ac0    	b.eq	0x10000543c <_barn_lexer_create_symbol+0x490>
1000050e8: 7100f51f    	cmp	w8, #61
1000050ec: 54001b41    	b.ne	0x100005454 <_barn_lexer_create_symbol+0x4a8>
1000050f0: aa1303e0    	mov	x0, x19
1000050f4: 940001cd    	bl	0x100005828 <_barn_lexer_advance>
1000050f8: b0000021    	adrp	x1, 0x10000a000 <_barn_lexer_create_symbol+0x160>
1000050fc: 9128dc21    	add	x1, x1, #2615
100005100: 528001c0    	mov	w0, #14
100005104: 14000191    	b	0x100005748 <_barn_lexer_create_symbol+0x79c>
100005108: b0000021    	adrp	x1, 0x10000a000 <_barn_lexer_create_symbol+0x170>
10000510c: 91279821    	add	x1, x1, #2534
100005110: 52800460    	mov	w0, #35
100005114: 1400018d    	b	0x100005748 <_barn_lexer_create_symbol+0x79c>
100005118: 3940c668    	ldrb	w8, [x19, #49]
10000511c: 7100f51f    	cmp	w8, #61
100005120: 54001161    	b.ne	0x10000534c <_barn_lexer_create_symbol+0x3a0>
100005124: b9803668    	ldrsw	x8, [x19, #52]
100005128: 91000508    	add	x8, x8, #1
10000512c: b9003668    	str	w8, [x19, #52]
100005130: f9400660    	ldr	x0, [x19, #8]
100005134: 38686808    	ldrb	w8, [x0, x8]
100005138: 3900c268    	strb	w8, [x19, #48]
10000513c: 940010c6    	bl	0x100009454 <_strlen+0x100009454>
100005140: d1000409    	sub	x9, x0, #1
100005144: b9803668    	ldrsw	x8, [x19, #52]
100005148: eb08013f    	cmp	x9, x8
10000514c: 54001b81    	b.ne	0x1000054bc <_barn_lexer_create_symbol+0x510>
100005150: 52800008    	mov	w8, #0
100005154: 140000dd    	b	0x1000054c8 <_barn_lexer_create_symbol+0x51c>
100005158: b0000021    	adrp	x1, 0x10000a000 <_barn_lexer_create_symbol+0x1c0>
10000515c: 91279021    	add	x1, x1, #2532
100005160: 52800480    	mov	w0, #36
100005164: 14000179    	b	0x100005748 <_barn_lexer_create_symbol+0x79c>
100005168: b0000021    	adrp	x1, 0x10000a000 <_barn_lexer_create_symbol+0x1d0>
10000516c: 91278821    	add	x1, x1, #2530
100005170: 528004c0    	mov	w0, #38
100005174: 14000175    	b	0x100005748 <_barn_lexer_create_symbol+0x79c>
100005178: 3940c668    	ldrb	w8, [x19, #49]
10000517c: 7100f51f    	cmp	w8, #61
100005180: 54000ee1    	b.ne	0x10000535c <_barn_lexer_create_symbol+0x3b0>
100005184: b9803668    	ldrsw	x8, [x19, #52]
100005188: 91000508    	add	x8, x8, #1
10000518c: b9003668    	str	w8, [x19, #52]
100005190: f9400660    	ldr	x0, [x19, #8]
100005194: 38686808    	ldrb	w8, [x0, x8]
100005198: 3900c268    	strb	w8, [x19, #48]
10000519c: 940010ae    	bl	0x100009454 <_strlen+0x100009454>
1000051a0: d1000409    	sub	x9, x0, #1
1000051a4: b9803668    	ldrsw	x8, [x19, #52]
1000051a8: eb08013f    	cmp	x9, x8
1000051ac: 540019e1    	b.ne	0x1000054e8 <_barn_lexer_create_symbol+0x53c>
1000051b0: 52800008    	mov	w8, #0
1000051b4: 140000d0    	b	0x1000054f4 <_barn_lexer_create_symbol+0x548>
1000051b8: 3940c668    	ldrb	w8, [x19, #49]
1000051bc: 7100f51f    	cmp	w8, #61
1000051c0: 54000d61    	b.ne	0x10000536c <_barn_lexer_create_symbol+0x3c0>
1000051c4: b9803668    	ldrsw	x8, [x19, #52]
1000051c8: 91000508    	add	x8, x8, #1
1000051cc: b9003668    	str	w8, [x19, #52]
1000051d0: f9400660    	ldr	x0, [x19, #8]
1000051d4: 38686808    	ldrb	w8, [x0, x8]
1000051d8: 3900c268    	strb	w8, [x19, #48]
1000051dc: 9400109e    	bl	0x100009454 <_strlen+0x100009454>
1000051e0: d1000409    	sub	x9, x0, #1
1000051e4: b9803668    	ldrsw	x8, [x19, #52]
1000051e8: eb08013f    	cmp	x9, x8
1000051ec: 54001941    	b.ne	0x100005514 <_barn_lexer_create_symbol+0x568>
1000051f0: 52800008    	mov	w8, #0
1000051f4: 140000cb    	b	0x100005520 <_barn_lexer_create_symbol+0x574>
1000051f8: 3940c668    	ldrb	w8, [x19, #49]
1000051fc: 7100f51f    	cmp	w8, #61
100005200: 54000be1    	b.ne	0x10000537c <_barn_lexer_create_symbol+0x3d0>
100005204: b9803668    	ldrsw	x8, [x19, #52]
100005208: 91000508    	add	x8, x8, #1
10000520c: b9003668    	str	w8, [x19, #52]
100005210: f9400660    	ldr	x0, [x19, #8]
100005214: 38686808    	ldrb	w8, [x0, x8]
100005218: 3900c268    	strb	w8, [x19, #48]
10000521c: 9400108e    	bl	0x100009454 <_strlen+0x100009454>
100005220: d1000409    	sub	x9, x0, #1
100005224: b9803668    	ldrsw	x8, [x19, #52]
100005228: eb08013f    	cmp	x9, x8
10000522c: 540018a1    	b.ne	0x100005540 <_barn_lexer_create_symbol+0x594>
100005230: 52800008    	mov	w8, #0
100005234: 140000c6    	b	0x10000554c <_barn_lexer_create_symbol+0x5a0>
100005238: b0000021    	adrp	x1, 0x10000a000 <_barn_lexer_create_symbol+0x2a0>
10000523c: 9126a021    	add	x1, x1, #2472
100005240: 52800420    	mov	w0, #33
100005244: 14000141    	b	0x100005748 <_barn_lexer_create_symbol+0x79c>
100005248: 3940c668    	ldrb	w8, [x19, #49]
10000524c: 7101f11f    	cmp	w8, #124
100005250: 540029a1    	b.ne	0x100005784 <_barn_lexer_create_symbol+0x7d8>
100005254: b9803668    	ldrsw	x8, [x19, #52]
100005258: 91000508    	add	x8, x8, #1
10000525c: b9003668    	str	w8, [x19, #52]
100005260: f9400660    	ldr	x0, [x19, #8]
100005264: 38686808    	ldrb	w8, [x0, x8]
100005268: 3900c268    	strb	w8, [x19, #48]
10000526c: 9400107a    	bl	0x100009454 <_strlen+0x100009454>
100005270: d1000409    	sub	x9, x0, #1
100005274: b9803668    	ldrsw	x8, [x19, #52]
100005278: eb08013f    	cmp	x9, x8
10000527c: 54000a61    	b.ne	0x1000053c8 <_barn_lexer_create_symbol+0x41c>
100005280: 52800008    	mov	w8, #0
100005284: 14000054    	b	0x1000053d4 <_barn_lexer_create_symbol+0x428>
100005288: 3940c668    	ldrb	w8, [x19, #49]
10000528c: 7100b51f    	cmp	w8, #45
100005290: 540017a0    	b.eq	0x100005584 <_barn_lexer_create_symbol+0x5d8>
100005294: 7100f91f    	cmp	w8, #62
100005298: 540016a0    	b.eq	0x10000556c <_barn_lexer_create_symbol+0x5c0>
10000529c: 7100f51f    	cmp	w8, #61
1000052a0: 540017e1    	b.ne	0x10000559c <_barn_lexer_create_symbol+0x5f0>
1000052a4: aa1303e0    	mov	x0, x19
1000052a8: 94000160    	bl	0x100005828 <_barn_lexer_advance>
1000052ac: b0000021    	adrp	x1, 0x10000a000 <_barn_lexer_create_symbol+0x314>
1000052b0: 9128fc21    	add	x1, x1, #2623
1000052b4: 528001e0    	mov	w0, #15
1000052b8: 14000124    	b	0x100005748 <_barn_lexer_create_symbol+0x79c>
1000052bc: 3940c668    	ldrb	w8, [x19, #49]
1000052c0: 7100b91f    	cmp	w8, #46
1000052c4: 54000641    	b.ne	0x10000538c <_barn_lexer_create_symbol+0x3e0>
1000052c8: b9803668    	ldrsw	x8, [x19, #52]
1000052cc: 91000508    	add	x8, x8, #1
1000052d0: b9003668    	str	w8, [x19, #52]
1000052d4: f9400660    	ldr	x0, [x19, #8]
1000052d8: 38686808    	ldrb	w8, [x0, x8]
1000052dc: 3900c268    	strb	w8, [x19, #48]
1000052e0: 9400105d    	bl	0x100009454 <_strlen+0x100009454>
1000052e4: d1000409    	sub	x9, x0, #1
1000052e8: b9803668    	ldrsw	x8, [x19, #52]
1000052ec: eb08013f    	cmp	x9, x8
1000052f0: 540015e1    	b.ne	0x1000055ac <_barn_lexer_create_symbol+0x600>
1000052f4: 52800009    	mov	w9, #0
1000052f8: 140000b0    	b	0x1000055b8 <_barn_lexer_create_symbol+0x60c>
1000052fc: b0000021    	adrp	x1, 0x10000a000 <_barn_lexer_create_symbol+0x364>
100005300: 91269021    	add	x1, x1, #2468
100005304: 528003e0    	mov	w0, #31
100005308: 14000110    	b	0x100005748 <_barn_lexer_create_symbol+0x79c>
10000530c: b0000021    	adrp	x1, 0x10000a000 <_barn_lexer_create_symbol+0x374>
100005310: 91269821    	add	x1, x1, #2470
100005314: 52800400    	mov	w0, #32
100005318: 1400010c    	b	0x100005748 <_barn_lexer_create_symbol+0x79c>
10000531c: b0000021    	adrp	x1, 0x10000a000 <_barn_lexer_create_symbol+0x384>
100005320: 9126a821    	add	x1, x1, #2474
100005324: 52800440    	mov	w0, #34
100005328: 14000108    	b	0x100005748 <_barn_lexer_create_symbol+0x79c>
10000532c: b0000021    	adrp	x1, 0x10000a000 <_barn_lexer_create_symbol+0x394>
100005330: 9128d421    	add	x1, x1, #2613
100005334: 528001a0    	mov	w0, #13
100005338: 14000104    	b	0x100005748 <_barn_lexer_create_symbol+0x79c>
10000533c: b0000021    	adrp	x1, 0x10000a000 <_barn_lexer_create_symbol+0x3a4>
100005340: 91293421    	add	x1, x1, #2637
100005344: 52800140    	mov	w0, #10
100005348: 14000100    	b	0x100005748 <_barn_lexer_create_symbol+0x79c>
10000534c: b0000021    	adrp	x1, 0x10000a000 <_barn_lexer_create_symbol+0x3b4>
100005350: 91294821    	add	x1, x1, #2642
100005354: 52800160    	mov	w0, #11
100005358: 140000fc    	b	0x100005748 <_barn_lexer_create_symbol+0x79c>
10000535c: b0000021    	adrp	x1, 0x10000a000 <_barn_lexer_create_symbol+0x3c4>
100005360: 91297021    	add	x1, x1, #2652
100005364: 528002c0    	mov	w0, #22
100005368: 140000f8    	b	0x100005748 <_barn_lexer_create_symbol+0x79c>
10000536c: b0000021    	adrp	x1, 0x10000a000 <_barn_lexer_create_symbol+0x3d4>
100005370: 91298421    	add	x1, x1, #2657
100005374: 52800300    	mov	w0, #24
100005378: 140000f4    	b	0x100005748 <_barn_lexer_create_symbol+0x79c>
10000537c: b0000021    	adrp	x1, 0x10000a000 <_barn_lexer_create_symbol+0x3e4>
100005380: 91295c21    	add	x1, x1, #2647
100005384: 52800280    	mov	w0, #20
100005388: 140000f0    	b	0x100005748 <_barn_lexer_create_symbol+0x79c>
10000538c: d2800000    	mov	x0, #0
100005390: d0000021    	adrp	x1, 0x10000b000 <_barn_lexer_create_symbol+0x3fc>
100005394: 9119fc21    	add	x1, x1, #1663
100005398: 140000ec    	b	0x100005748 <_barn_lexer_create_symbol+0x79c>
10000539c: f9400669    	ldr	x9, [x19, #8]
1000053a0: 8b090108    	add	x8, x8, x9
1000053a4: 39400508    	ldrb	w8, [x8, #1]
1000053a8: 3900c668    	strb	w8, [x19, #49]
1000053ac: f9400e68    	ldr	x8, [x19, #24]
1000053b0: f9400509    	ldr	x9, [x8, #8]
1000053b4: b4000209    	cbz	x9, 0x1000053f4 <_barn_lexer_create_symbol+0x448>
1000053b8: f9400908    	ldr	x8, [x8, #16]
1000053bc: 8b090d08    	add	x8, x8, x9, lsl #3
1000053c0: f85f8108    	ldur	x8, [x8, #-8]
1000053c4: 1400000d    	b	0x1000053f8 <_barn_lexer_create_symbol+0x44c>
1000053c8: f9400669    	ldr	x9, [x19, #8]
1000053cc: 8b090108    	add	x8, x8, x9
1000053d0: 39400508    	ldrb	w8, [x8, #1]
1000053d4: 3900c668    	strb	w8, [x19, #49]
1000053d8: f9400e68    	ldr	x8, [x19, #24]
1000053dc: f9400509    	ldr	x9, [x8, #8]
1000053e0: b40001c9    	cbz	x9, 0x100005418 <_barn_lexer_create_symbol+0x46c>
1000053e4: f9400908    	ldr	x8, [x8, #16]
1000053e8: 8b090d08    	add	x8, x8, x9, lsl #3
1000053ec: f85f8108    	ldur	x8, [x8, #-8]
1000053f0: 1400000b    	b	0x10000541c <_barn_lexer_create_symbol+0x470>
1000053f4: d2800008    	mov	x8, #0
1000053f8: f9001668    	str	x8, [x19, #40]
1000053fc: b9403a68    	ldr	w8, [x19, #56]
100005400: 11000508    	add	w8, w8, #1
100005404: b9003a68    	str	w8, [x19, #56]
100005408: b0000021    	adrp	x1, 0x10000a000 <_barn_lexer_create_symbol+0x470>
10000540c: 91283821    	add	x1, x1, #2574
100005410: 52800360    	mov	w0, #27
100005414: 140000cd    	b	0x100005748 <_barn_lexer_create_symbol+0x79c>
100005418: d2800008    	mov	x8, #0
10000541c: f9001668    	str	x8, [x19, #40]
100005420: b9403a68    	ldr	w8, [x19, #56]
100005424: 11000508    	add	w8, w8, #1
100005428: b9003a68    	str	w8, [x19, #56]
10000542c: b0000021    	adrp	x1, 0x10000a000 <_barn_lexer_create_symbol+0x494>
100005430: 9127a821    	add	x1, x1, #2538
100005434: 52800360    	mov	w0, #27
100005438: 140000c4    	b	0x100005748 <_barn_lexer_create_symbol+0x79c>
10000543c: aa1303e0    	mov	x0, x19
100005440: 940000fa    	bl	0x100005828 <_barn_lexer_advance>
100005444: b0000021    	adrp	x1, 0x10000a000 <_barn_lexer_create_symbol+0x4ac>
100005448: 9128e821    	add	x1, x1, #2618
10000544c: 52800240    	mov	w0, #18
100005450: 140000be    	b	0x100005748 <_barn_lexer_create_symbol+0x79c>
100005454: b0000021    	adrp	x1, 0x10000a000 <_barn_lexer_create_symbol+0x4bc>
100005458: 9128f421    	add	x1, x1, #2621
10000545c: 52800100    	mov	w0, #8
100005460: 140000ba    	b	0x100005748 <_barn_lexer_create_symbol+0x79c>
100005464: f9400669    	ldr	x9, [x19, #8]
100005468: 8b090108    	add	x8, x8, x9
10000546c: 39400508    	ldrb	w8, [x8, #1]
100005470: 3900c668    	strb	w8, [x19, #49]
100005474: f9400e68    	ldr	x8, [x19, #24]
100005478: f9400509    	ldr	x9, [x8, #8]
10000547c: b4000ae9    	cbz	x9, 0x1000055d8 <_barn_lexer_create_symbol+0x62c>
100005480: f9400908    	ldr	x8, [x8, #16]
100005484: 8b090d08    	add	x8, x8, x9, lsl #3
100005488: f85f8108    	ldur	x8, [x8, #-8]
10000548c: 14000054    	b	0x1000055dc <_barn_lexer_create_symbol+0x630>
100005490: f9400669    	ldr	x9, [x19, #8]
100005494: 8b090108    	add	x8, x8, x9
100005498: 39400508    	ldrb	w8, [x8, #1]
10000549c: 3900c668    	strb	w8, [x19, #49]
1000054a0: f9400e68    	ldr	x8, [x19, #24]
1000054a4: f9400509    	ldr	x9, [x8, #8]
1000054a8: b4000aa9    	cbz	x9, 0x1000055fc <_barn_lexer_create_symbol+0x650>
1000054ac: f9400908    	ldr	x8, [x8, #16]
1000054b0: 8b090d08    	add	x8, x8, x9, lsl #3
1000054b4: f85f8108    	ldur	x8, [x8, #-8]
1000054b8: 14000052    	b	0x100005600 <_barn_lexer_create_symbol+0x654>
1000054bc: f9400669    	ldr	x9, [x19, #8]
1000054c0: 8b090108    	add	x8, x8, x9
1000054c4: 39400508    	ldrb	w8, [x8, #1]
1000054c8: 3900c668    	strb	w8, [x19, #49]
1000054cc: f9400e68    	ldr	x8, [x19, #24]
1000054d0: f9400509    	ldr	x9, [x8, #8]
1000054d4: b4000a69    	cbz	x9, 0x100005620 <_barn_lexer_create_symbol+0x674>
1000054d8: f9400908    	ldr	x8, [x8, #16]
1000054dc: 8b090d08    	add	x8, x8, x9, lsl #3
1000054e0: f85f8108    	ldur	x8, [x8, #-8]
1000054e4: 14000050    	b	0x100005624 <_barn_lexer_create_symbol+0x678>
1000054e8: f9400669    	ldr	x9, [x19, #8]
1000054ec: 8b090108    	add	x8, x8, x9
1000054f0: 39400508    	ldrb	w8, [x8, #1]
1000054f4: 3900c668    	strb	w8, [x19, #49]
1000054f8: f9400e68    	ldr	x8, [x19, #24]
1000054fc: f9400509    	ldr	x9, [x8, #8]
100005500: b4000a29    	cbz	x9, 0x100005644 <_barn_lexer_create_symbol+0x698>
100005504: f9400908    	ldr	x8, [x8, #16]
100005508: 8b090d08    	add	x8, x8, x9, lsl #3
10000550c: f85f8108    	ldur	x8, [x8, #-8]
100005510: 1400004e    	b	0x100005648 <_barn_lexer_create_symbol+0x69c>
100005514: f9400669    	ldr	x9, [x19, #8]
100005518: 8b090108    	add	x8, x8, x9
10000551c: 39400508    	ldrb	w8, [x8, #1]
100005520: 3900c668    	strb	w8, [x19, #49]
100005524: f9400e68    	ldr	x8, [x19, #24]
100005528: f9400509    	ldr	x9, [x8, #8]
10000552c: b40009e9    	cbz	x9, 0x100005668 <_barn_lexer_create_symbol+0x6bc>
100005530: f9400908    	ldr	x8, [x8, #16]
100005534: 8b090d08    	add	x8, x8, x9, lsl #3
100005538: f85f8108    	ldur	x8, [x8, #-8]
10000553c: 1400004c    	b	0x10000566c <_barn_lexer_create_symbol+0x6c0>
100005540: f9400669    	ldr	x9, [x19, #8]
100005544: 8b090108    	add	x8, x8, x9
100005548: 39400508    	ldrb	w8, [x8, #1]
10000554c: 3900c668    	strb	w8, [x19, #49]
100005550: f9400e68    	ldr	x8, [x19, #24]
100005554: f9400509    	ldr	x9, [x8, #8]
100005558: b40009a9    	cbz	x9, 0x10000568c <_barn_lexer_create_symbol+0x6e0>
10000555c: f9400908    	ldr	x8, [x8, #16]
100005560: 8b090d08    	add	x8, x8, x9, lsl #3
100005564: f85f8108    	ldur	x8, [x8, #-8]
100005568: 1400004a    	b	0x100005690 <_barn_lexer_create_symbol+0x6e4>
10000556c: aa1303e0    	mov	x0, x19
100005570: 940000ae    	bl	0x100005828 <_barn_lexer_advance>
100005574: b0000021    	adrp	x1, 0x10000a000 <_barn_lexer_create_symbol+0x5dc>
100005578: 91290821    	add	x1, x1, #2626
10000557c: 528004e0    	mov	w0, #39
100005580: 14000072    	b	0x100005748 <_barn_lexer_create_symbol+0x79c>
100005584: aa1303e0    	mov	x0, x19
100005588: 940000a8    	bl	0x100005828 <_barn_lexer_advance>
10000558c: b0000021    	adrp	x1, 0x10000a000 <_barn_lexer_create_symbol+0x5f4>
100005590: 91291421    	add	x1, x1, #2629
100005594: 52800260    	mov	w0, #19
100005598: 1400006c    	b	0x100005748 <_barn_lexer_create_symbol+0x79c>
10000559c: b0000021    	adrp	x1, 0x10000a000 <_barn_lexer_create_symbol+0x604>
1000055a0: 91292021    	add	x1, x1, #2632
1000055a4: 52800120    	mov	w0, #9
1000055a8: 14000068    	b	0x100005748 <_barn_lexer_create_symbol+0x79c>
1000055ac: f9400669    	ldr	x9, [x19, #8]
1000055b0: 8b090109    	add	x9, x8, x9
1000055b4: 39400529    	ldrb	w9, [x9, #1]
1000055b8: 3900c669    	strb	w9, [x19, #49]
1000055bc: f9400e6a    	ldr	x10, [x19, #24]
1000055c0: f940054b    	ldr	x11, [x10, #8]
1000055c4: b400076b    	cbz	x11, 0x1000056b0 <_barn_lexer_create_symbol+0x704>
1000055c8: f940094a    	ldr	x10, [x10, #16]
1000055cc: 8b0b0d4a    	add	x10, x10, x11, lsl #3
1000055d0: f85f814a    	ldur	x10, [x10, #-8]
1000055d4: 14000038    	b	0x1000056b4 <_barn_lexer_create_symbol+0x708>
1000055d8: d2800008    	mov	x8, #0
1000055dc: f9001668    	str	x8, [x19, #40]
1000055e0: b9403a68    	ldr	w8, [x19, #56]
1000055e4: 11000508    	add	w8, w8, #1
1000055e8: b9003a68    	str	w8, [x19, #56]
1000055ec: b0000021    	adrp	x1, 0x10000a000 <_barn_lexer_create_symbol+0x654>
1000055f0: 9128c821    	add	x1, x1, #2610
1000055f4: 52800340    	mov	w0, #26
1000055f8: 14000054    	b	0x100005748 <_barn_lexer_create_symbol+0x79c>
1000055fc: d2800008    	mov	x8, #0
100005600: f9001668    	str	x8, [x19, #40]
100005604: b9403a68    	ldr	w8, [x19, #56]
100005608: 11000508    	add	w8, w8, #1
10000560c: b9003a68    	str	w8, [x19, #56]
100005610: b0000021    	adrp	x1, 0x10000a000 <_barn_lexer_create_symbol+0x678>
100005614: 91292821    	add	x1, x1, #2634
100005618: 52800200    	mov	w0, #16
10000561c: 1400004b    	b	0x100005748 <_barn_lexer_create_symbol+0x79c>
100005620: d2800008    	mov	x8, #0
100005624: f9001668    	str	x8, [x19, #40]
100005628: b9403a68    	ldr	w8, [x19, #56]
10000562c: 11000508    	add	w8, w8, #1
100005630: b9003a68    	str	w8, [x19, #56]
100005634: b0000021    	adrp	x1, 0x10000a000 <_barn_lexer_create_symbol+0x69c>
100005638: 91293c21    	add	x1, x1, #2639
10000563c: 52800220    	mov	w0, #17
100005640: 14000042    	b	0x100005748 <_barn_lexer_create_symbol+0x79c>
100005644: d2800008    	mov	x8, #0
100005648: f9001668    	str	x8, [x19, #40]
10000564c: b9403a68    	ldr	w8, [x19, #56]
100005650: 11000508    	add	w8, w8, #1
100005654: b9003a68    	str	w8, [x19, #56]
100005658: b0000021    	adrp	x1, 0x10000a000 <_barn_lexer_create_symbol+0x6c0>
10000565c: 91296421    	add	x1, x1, #2649
100005660: 528002e0    	mov	w0, #23
100005664: 14000039    	b	0x100005748 <_barn_lexer_create_symbol+0x79c>
100005668: d2800008    	mov	x8, #0
10000566c: f9001668    	str	x8, [x19, #40]
100005670: b9403a68    	ldr	w8, [x19, #56]
100005674: 11000508    	add	w8, w8, #1
100005678: b9003a68    	str	w8, [x19, #56]
10000567c: b0000021    	adrp	x1, 0x10000a000 <_barn_lexer_create_symbol+0x6e4>
100005680: 91297821    	add	x1, x1, #2654
100005684: 52800320    	mov	w0, #25
100005688: 14000030    	b	0x100005748 <_barn_lexer_create_symbol+0x79c>
10000568c: d2800008    	mov	x8, #0
100005690: f9001668    	str	x8, [x19, #40]
100005694: b9403a68    	ldr	w8, [x19, #56]
100005698: 11000508    	add	w8, w8, #1
10000569c: b9003a68    	str	w8, [x19, #56]
1000056a0: b0000021    	adrp	x1, 0x10000a000 <_barn_lexer_create_symbol+0x708>
1000056a4: 91295021    	add	x1, x1, #2644
1000056a8: 528002a0    	mov	w0, #21
1000056ac: 14000027    	b	0x100005748 <_barn_lexer_create_symbol+0x79c>
1000056b0: d280000a    	mov	x10, #0
1000056b4: f900166a    	str	x10, [x19, #40]
1000056b8: b9403a64    	ldr	w4, [x19, #56]
1000056bc: 1100048a    	add	w10, w4, #1
1000056c0: b9003a6a    	str	w10, [x19, #56]
1000056c4: 7100b93f    	cmp	w9, #46
1000056c8: 540008a1    	b.ne	0x1000057dc <_barn_lexer_create_symbol+0x830>
1000056cc: 91000508    	add	x8, x8, #1
1000056d0: b9003668    	str	w8, [x19, #52]
1000056d4: f9400660    	ldr	x0, [x19, #8]
1000056d8: 38686808    	ldrb	w8, [x0, x8]
1000056dc: 3900c268    	strb	w8, [x19, #48]
1000056e0: 94000f5d    	bl	0x100009454 <_strlen+0x100009454>
1000056e4: d1000409    	sub	x9, x0, #1
1000056e8: b9803668    	ldrsw	x8, [x19, #52]
1000056ec: eb08013f    	cmp	x9, x8
1000056f0: 54000061    	b.ne	0x1000056fc <_barn_lexer_create_symbol+0x750>
1000056f4: 52800008    	mov	w8, #0
1000056f8: 14000004    	b	0x100005708 <_barn_lexer_create_symbol+0x75c>
1000056fc: f9400669    	ldr	x9, [x19, #8]
100005700: 8b090108    	add	x8, x8, x9
100005704: 39400508    	ldrb	w8, [x8, #1]
100005708: 3900c668    	strb	w8, [x19, #49]
10000570c: f9400e68    	ldr	x8, [x19, #24]
100005710: f9400509    	ldr	x9, [x8, #8]
100005714: b40000a9    	cbz	x9, 0x100005728 <_barn_lexer_create_symbol+0x77c>
100005718: f9400908    	ldr	x8, [x8, #16]
10000571c: 8b090d08    	add	x8, x8, x9, lsl #3
100005720: f85f8108    	ldur	x8, [x8, #-8]
100005724: 14000002    	b	0x10000572c <_barn_lexer_create_symbol+0x780>
100005728: d2800008    	mov	x8, #0
10000572c: f9001668    	str	x8, [x19, #40]
100005730: b9403a68    	ldr	w8, [x19, #56]
100005734: 11000508    	add	w8, w8, #1
100005738: b9003a68    	str	w8, [x19, #56]
10000573c: b0000021    	adrp	x1, 0x10000a000 <_barn_lexer_create_symbol+0x7a4>
100005740: 9126b021    	add	x1, x1, #2476
100005744: 52800500    	mov	w0, #40
100005748: a9417bfd    	ldp	x29, x30, [sp, #16]
10000574c: a8c24ff4    	ldp	x20, x19, [sp], #32
100005750: d65f03c0    	ret
100005754: f9400262    	ldr	x2, [x19]
100005758: 29470e68    	ldp	w8, w3, [x19, #56]
10000575c: 93407c63    	sxtw	x3, w3
100005760: f9401269    	ldr	x9, [x19, #32]
100005764: b4000289    	cbz	x9, 0x1000057b4 <_barn_lexer_create_symbol+0x808>
100005768: d100046a    	sub	x10, x3, #1
10000576c: f940052b    	ldr	x11, [x9, #8]
100005770: eb0a017f    	cmp	x11, x10
100005774: 54000209    	b.ls	0x1000057b4 <_barn_lexer_create_symbol+0x808>
100005778: f9400929    	ldr	x9, [x9, #16]
10000577c: f86a7926    	ldr	x6, [x9, x10, lsl  #3]
100005780: 1400000e    	b	0x1000057b8 <_barn_lexer_create_symbol+0x80c>
100005784: f9400262    	ldr	x2, [x19]
100005788: 29470e68    	ldp	w8, w3, [x19, #56]
10000578c: 93407c63    	sxtw	x3, w3
100005790: f9401269    	ldr	x9, [x19, #32]
100005794: b40001a9    	cbz	x9, 0x1000057c8 <_barn_lexer_create_symbol+0x81c>
100005798: d100046a    	sub	x10, x3, #1
10000579c: f940052b    	ldr	x11, [x9, #8]
1000057a0: eb0a017f    	cmp	x11, x10
1000057a4: 54000129    	b.ls	0x1000057c8 <_barn_lexer_create_symbol+0x81c>
1000057a8: f9400929    	ldr	x9, [x9, #16]
1000057ac: f86a7926    	ldr	x6, [x9, x10, lsl  #3]
1000057b0: 14000007    	b	0x1000057cc <_barn_lexer_create_symbol+0x820>
1000057b4: d2800006    	mov	x6, #0
1000057b8: 51000504    	sub	w4, w8, #1
1000057bc: b0000027    	adrp	x7, 0x10000a000 <_barn_lexer_create_symbol+0x824>
1000057c0: 912844e7    	add	x7, x7, #2577
1000057c4: 14000014    	b	0x100005814 <_barn_lexer_create_symbol+0x868>
1000057c8: d2800006    	mov	x6, #0
1000057cc: 51000504    	sub	w4, w8, #1
1000057d0: b0000027    	adrp	x7, 0x10000a000 <_barn_lexer_create_symbol+0x838>
1000057d4: 9127b4e7    	add	x7, x7, #2541
1000057d8: 1400000f    	b	0x100005814 <_barn_lexer_create_symbol+0x868>
1000057dc: f9400262    	ldr	x2, [x19]
1000057e0: b9803e63    	ldrsw	x3, [x19, #60]
1000057e4: f9401268    	ldr	x8, [x19, #32]
1000057e8: b4000108    	cbz	x8, 0x100005808 <_barn_lexer_create_symbol+0x85c>
1000057ec: d1000469    	sub	x9, x3, #1
1000057f0: f940050a    	ldr	x10, [x8, #8]
1000057f4: eb09015f    	cmp	x10, x9
1000057f8: 54000089    	b.ls	0x100005808 <_barn_lexer_create_symbol+0x85c>
1000057fc: f9400908    	ldr	x8, [x8, #16]
100005800: f8697906    	ldr	x6, [x8, x9, lsl  #3]
100005804: 14000002    	b	0x10000580c <_barn_lexer_create_symbol+0x860>
100005808: d2800006    	mov	x6, #0
10000580c: b0000027    	adrp	x7, 0x10000a000 <_barn_lexer_create_symbol+0x874>
100005810: 9126c0e7    	add	x7, x7, #2480
100005814: 52800041    	mov	w1, #2
100005818: 52800005    	mov	w5, #0
10000581c: 97fff3a4    	bl	0x1000026ac <_barn_error_show_with_line>
100005820: 52800020    	mov	w0, #1
100005824: 94000ee2    	bl	0x1000093ac <_strlen+0x1000093ac>

0000000100005828 <_barn_lexer_advance>:
100005828: a9be4ff4    	stp	x20, x19, [sp, #-32]!
10000582c: a9017bfd    	stp	x29, x30, [sp, #16]
100005830: aa0003f3    	mov	x19, x0
100005834: b9803408    	ldrsw	x8, [x0, #52]
100005838: 91000508    	add	x8, x8, #1
10000583c: b9003408    	str	w8, [x0, #52]
100005840: f9400400    	ldr	x0, [x0, #8]
100005844: 38686808    	ldrb	w8, [x0, x8]
100005848: 3900c268    	strb	w8, [x19, #48]
10000584c: 94000f02    	bl	0x100009454 <_strlen+0x100009454>
100005850: d1000409    	sub	x9, x0, #1
100005854: b9803668    	ldrsw	x8, [x19, #52]
100005858: eb08013f    	cmp	x9, x8
10000585c: 54000061    	b.ne	0x100005868 <_barn_lexer_advance+0x40>
100005860: 52800008    	mov	w8, #0
100005864: 14000004    	b	0x100005874 <_barn_lexer_advance+0x4c>
100005868: f9400669    	ldr	x9, [x19, #8]
10000586c: 8b090108    	add	x8, x8, x9
100005870: 39400508    	ldrb	w8, [x8, #1]
100005874: 3900c668    	strb	w8, [x19, #49]
100005878: f9400e68    	ldr	x8, [x19, #24]
10000587c: f9400509    	ldr	x9, [x8, #8]
100005880: b40000a9    	cbz	x9, 0x100005894 <_barn_lexer_advance+0x6c>
100005884: f9400908    	ldr	x8, [x8, #16]
100005888: 8b090d08    	add	x8, x8, x9, lsl #3
10000588c: f85f8108    	ldur	x8, [x8, #-8]
100005890: 14000002    	b	0x100005898 <_barn_lexer_advance+0x70>
100005894: d2800008    	mov	x8, #0
100005898: f9001668    	str	x8, [x19, #40]
10000589c: b9403a68    	ldr	w8, [x19, #56]
1000058a0: 11000508    	add	w8, w8, #1
1000058a4: b9003a68    	str	w8, [x19, #56]
1000058a8: a9417bfd    	ldp	x29, x30, [sp, #16]
1000058ac: a8c24ff4    	ldp	x20, x19, [sp], #32
1000058b0: d65f03c0    	ret

00000001000058b4 <_barn_no_filename_action>:
1000058b4: d100c3ff    	sub	sp, sp, #48
1000058b8: a9014ff4    	stp	x20, x19, [sp, #16]
1000058bc: a9027bfd    	stp	x29, x30, [sp, #32]
1000058c0: f9400428    	ldr	x8, [x1, #8]
1000058c4: b5000048    	cbnz	x8, 0x1000058cc <_barn_no_filename_action+0x18>
1000058c8: 940009a3    	bl	0x100007f54 <_barn_no_flags_message>
1000058cc: f9400828    	ldr	x8, [x1, #16]
1000058d0: f9400113    	ldr	x19, [x8]
1000058d4: b0000021    	adrp	x1, 0x10000a000 <_barn_no_filename_action+0x34>
1000058d8: 912ac421    	add	x1, x1, #2737
1000058dc: aa1303e0    	mov	x0, x19
1000058e0: 94000eda    	bl	0x100009448 <_strlen+0x100009448>
1000058e4: 340000c0    	cbz	w0, 0x1000058fc <_barn_no_filename_action+0x48>
1000058e8: b0000021    	adrp	x1, 0x10000a000 <_barn_no_filename_action+0x48>
1000058ec: 912ae021    	add	x1, x1, #2744
1000058f0: aa1303e0    	mov	x0, x19
1000058f4: 94000ed5    	bl	0x100009448 <_strlen+0x100009448>
1000058f8: 35000040    	cbnz	w0, 0x100005900 <_barn_no_filename_action+0x4c>
1000058fc: 940009a6    	bl	0x100007f94 <_barn_help_message>
100005900: b0000021    	adrp	x1, 0x10000a000 <_barn_no_filename_action+0x60>
100005904: 912aec21    	add	x1, x1, #2747
100005908: aa1303e0    	mov	x0, x19
10000590c: 94000ecf    	bl	0x100009448 <_strlen+0x100009448>
100005910: 340000c0    	cbz	w0, 0x100005928 <_barn_no_filename_action+0x74>
100005914: b0000021    	adrp	x1, 0x10000a000 <_barn_no_filename_action+0x74>
100005918: 912b1421    	add	x1, x1, #2757
10000591c: aa1303e0    	mov	x0, x19
100005920: 94000eca    	bl	0x100009448 <_strlen+0x100009448>
100005924: 35000040    	cbnz	w0, 0x10000592c <_barn_no_filename_action+0x78>
100005928: 94000972    	bl	0x100007ef0 <_barn_version_message>
10000592c: f90003f3    	str	x19, [sp]
100005930: b0000021    	adrp	x1, 0x10000a000 <_barn_no_filename_action+0x90>
100005934: 912b2021    	add	x1, x1, #2760
100005938: 52800000    	mov	w0, #0
10000593c: 97fff41d    	bl	0x1000029b0 <_barn_error_show>
100005940: 52800020    	mov	w0, #1
100005944: 94000e9a    	bl	0x1000093ac <_strlen+0x1000093ac>

0000000100005948 <_barn_filename_action>:
100005948: d10283ff    	sub	sp, sp, #160
10000594c: 6d0323e9    	stp	d9, d8, [sp, #48]
100005950: a9046ffc    	stp	x28, x27, [sp, #64]
100005954: a90567fa    	stp	x26, x25, [sp, #80]
100005958: a9065ff8    	stp	x24, x23, [sp, #96]
10000595c: a90757f6    	stp	x22, x21, [sp, #112]
100005960: a9084ff4    	stp	x20, x19, [sp, #128]
100005964: a9097bfd    	stp	x29, x30, [sp, #144]
100005968: aa0003f3    	mov	x19, x0
10000596c: 90000020    	adrp	x0, 0x100009000 <_barn_filename_action+0x34>
100005970: 912d1400    	add	x0, x0, #2885
100005974: 94000eaf    	bl	0x100009430 <_strlen+0x100009430>
100005978: b0000038    	adrp	x24, 0x10000a000 <_barn_filename_action+0x44>
10000597c: 912bcb18    	add	x24, x24, #2802
100005980: 52800868    	mov	w8, #67
100005984: a90023f8    	stp	x24, x8, [sp]
100005988: 90000020    	adrp	x0, 0x100009000 <_barn_filename_action+0x50>
10000598c: 912ce800    	add	x0, x0, #2874
100005990: 94000ea8    	bl	0x100009430 <_strlen+0x100009430>
100005994: b0000028    	adrp	x8, 0x10000a000 <_barn_filename_action+0x60>
100005998: 912b8508    	add	x8, x8, #2785
10000599c: f90003e8    	str	x8, [sp]
1000059a0: d0000020    	adrp	x0, 0x10000b000 <_barn_filename_action+0x70>
1000059a4: 911b0000    	add	x0, x0, #1728
1000059a8: 94000ea2    	bl	0x100009430 <_strlen+0x100009430>
1000059ac: f9400a60    	ldr	x0, [x19, #16]
1000059b0: b0000021    	adrp	x1, 0x10000a000 <_barn_filename_action+0x7c>
1000059b4: 91110021    	add	x1, x1, #1088
1000059b8: 94000e86    	bl	0x1000093d0 <_strlen+0x1000093d0>
1000059bc: b4010c20    	cbz	x0, 0x100007b40 <_barn_filename_action+0x21f8>
1000059c0: 94000e7e    	bl	0x1000093b8 <_strlen+0x1000093b8>
1000059c4: 90000020    	adrp	x0, 0x100009000 <_barn_filename_action+0x8c>
1000059c8: 912d1400    	add	x0, x0, #2885
1000059cc: 94000e99    	bl	0x100009430 <_strlen+0x100009430>
1000059d0: 52800968    	mov	w8, #75
1000059d4: a90023f8    	stp	x24, x8, [sp]
1000059d8: 90000020    	adrp	x0, 0x100009000 <_barn_filename_action+0xa0>
1000059dc: 912ce800    	add	x0, x0, #2874
1000059e0: 94000e94    	bl	0x100009430 <_strlen+0x100009430>
1000059e4: b0000028    	adrp	x8, 0x10000a000 <_barn_filename_action+0xb0>
1000059e8: 912c7508    	add	x8, x8, #2845
1000059ec: f90003e8    	str	x8, [sp]
1000059f0: d0000020    	adrp	x0, 0x10000b000 <_barn_filename_action+0xc0>
1000059f4: 911b0000    	add	x0, x0, #1728
1000059f8: 94000e8e    	bl	0x100009430 <_strlen+0x100009430>
1000059fc: f9400e68    	ldr	x8, [x19, #24]
100005a00: f9400509    	ldr	x9, [x8, #8]
100005a04: b4000389    	cbz	x9, 0x100005a74 <_barn_filename_action+0x12c>
100005a08: d280000a    	mov	x10, #0
100005a0c: d000002b    	adrp	x11, 0x10000b000 <_barn_filename_action+0xdc>
100005a10: 9107696b    	add	x11, x11, #474
100005a14: f940090c    	ldr	x12, [x8, #16]
100005a18: f86a798c    	ldr	x12, [x12, x10, lsl  #3]
100005a1c: eb0b019f    	cmp	x12, x11
100005a20: 540000a0    	b.eq	0x100005a34 <_barn_filename_action+0xec>
100005a24: 9100054a    	add	x10, x10, #1
100005a28: eb0a013f    	cmp	x9, x10
100005a2c: 54ffff41    	b.ne	0x100005a14 <_barn_filename_action+0xcc>
100005a30: 14000003    	b	0x100005a3c <_barn_filename_action+0xf4>
100005a34: 3100055f    	cmn	w10, #1
100005a38: 540002c1    	b.ne	0x100005a90 <_barn_filename_action+0x148>
100005a3c: b40001c9    	cbz	x9, 0x100005a74 <_barn_filename_action+0x12c>
100005a40: d280000a    	mov	x10, #0
100005a44: d000002b    	adrp	x11, 0x10000b000 <_barn_filename_action+0x114>
100005a48: 9107856b    	add	x11, x11, #481
100005a4c: f940090c    	ldr	x12, [x8, #16]
100005a50: f86a798c    	ldr	x12, [x12, x10, lsl  #3]
100005a54: eb0b019f    	cmp	x12, x11
100005a58: 540000a0    	b.eq	0x100005a6c <_barn_filename_action+0x124>
100005a5c: 9100054a    	add	x10, x10, #1
100005a60: eb0a013f    	cmp	x9, x10
100005a64: 54ffff41    	b.ne	0x100005a4c <_barn_filename_action+0x104>
100005a68: 14000003    	b	0x100005a74 <_barn_filename_action+0x12c>
100005a6c: 3100055f    	cmn	w10, #1
100005a70: 54000101    	b.ne	0x100005a90 <_barn_filename_action+0x148>
100005a74: 52800400    	mov	w0, #32
100005a78: 52800021    	mov	w1, #1
100005a7c: 94000e49    	bl	0x1000093a0 <_strlen+0x1000093a0>
100005a80: f90013e0    	str	x0, [sp, #32]
100005a84: d2800001    	mov	x1, #0
100005a88: 94000e67    	bl	0x100009424 <_strlen+0x100009424>
100005a8c: 14000002    	b	0x100005a94 <_barn_filename_action+0x14c>
100005a90: f90013ff    	str	xzr, [sp, #32]
100005a94: 90000034    	adrp	x20, 0x100009000 <_barn_filename_action+0x15c>
100005a98: 912d1694    	add	x20, x20, #2885
100005a9c: aa1403e0    	mov	x0, x20
100005aa0: 94000e64    	bl	0x100009430 <_strlen+0x100009430>
100005aa4: 528009c8    	mov	w8, #78
100005aa8: a90023f8    	stp	x24, x8, [sp]
100005aac: 90000036    	adrp	x22, 0x100009000 <_barn_filename_action+0x174>
100005ab0: 912cead6    	add	x22, x22, #2874
100005ab4: aa1603e0    	mov	x0, x22
100005ab8: 94000e5e    	bl	0x100009430 <_strlen+0x100009430>
100005abc: b0000028    	adrp	x8, 0x10000a000 <_barn_filename_action+0x188>
100005ac0: 912ce508    	add	x8, x8, #2873
100005ac4: f90003e8    	str	x8, [sp]
100005ac8: d0000037    	adrp	x23, 0x10000b000 <_barn_filename_action+0x198>
100005acc: 911b02f7    	add	x23, x23, #1728
100005ad0: aa1703e0    	mov	x0, x23
100005ad4: 94000e57    	bl	0x100009430 <_strlen+0x100009430>
100005ad8: f9400a60    	ldr	x0, [x19, #16]
100005adc: 97fff79b    	bl	0x100003948 <_barn_read_whole_file>
100005ae0: aa0003f5    	mov	x21, x0
100005ae4: aa1403e0    	mov	x0, x20
100005ae8: 94000e52    	bl	0x100009430 <_strlen+0x100009430>
100005aec: 52800a48    	mov	w8, #82
100005af0: a90023f8    	stp	x24, x8, [sp]
100005af4: aa1603e0    	mov	x0, x22
100005af8: 94000e4e    	bl	0x100009430 <_strlen+0x100009430>
100005afc: b0000028    	adrp	x8, 0x10000a000 <_barn_filename_action+0x1c8>
100005b00: 912d3908    	add	x8, x8, #2894
100005b04: f90003e8    	str	x8, [sp]
100005b08: aa1703e0    	mov	x0, x23
100005b0c: 94000e49    	bl	0x100009430 <_strlen+0x100009430>
100005b10: aa1503e0    	mov	x0, x21
100005b14: aa1303e1    	mov	x1, x19
100005b18: 97fff7d3    	bl	0x100003a64 <_barn_start_lexer>
100005b1c: aa0003f5    	mov	x21, x0
100005b20: aa1403e0    	mov	x0, x20
100005b24: 94000e43    	bl	0x100009430 <_strlen+0x100009430>
100005b28: 52800ac8    	mov	w8, #86
100005b2c: a90023f8    	stp	x24, x8, [sp]
100005b30: aa1603e0    	mov	x0, x22
100005b34: 94000e3f    	bl	0x100009430 <_strlen+0x100009430>
100005b38: b0000028    	adrp	x8, 0x10000a000 <_barn_filename_action+0x204>
100005b3c: 912d7d08    	add	x8, x8, #2911
100005b40: f90003e8    	str	x8, [sp]
100005b44: aa1703e0    	mov	x0, x23
100005b48: 94000e3a    	bl	0x100009430 <_strlen+0x100009430>
100005b4c: 52800039    	mov	w25, #1
100005b50: 52800020    	mov	w0, #1
100005b54: 52800301    	mov	w1, #24
100005b58: 94000e12    	bl	0x1000093a0 <_strlen+0x1000093a0>
100005b5c: aa0003f4    	mov	x20, x0
100005b60: a9007c15    	stp	x21, xzr, [x0]
100005b64: b900101f    	str	wzr, [x0, #16]
100005b68: f9400ea9    	ldr	x9, [x21, #24]
100005b6c: f940052a    	ldr	x10, [x9, #8]
100005b70: b4001a0a    	cbz	x10, 0x100005eb0 <_barn_filename_action+0x568>
100005b74: d2800008    	mov	x8, #0
100005b78: d0000036    	adrp	x22, 0x10000b000 <_barn_filename_action+0x248>
100005b7c: 9102f6d6    	add	x22, x22, #189
100005b80: 14000008    	b	0x100005ba0 <_barn_filename_action+0x258>
100005b84: b9801288    	ldrsw	x8, [x20, #16]
100005b88: 91000508    	add	x8, x8, #1
100005b8c: b9001288    	str	w8, [x20, #16]
100005b90: f9400ea9    	ldr	x9, [x21, #24]
100005b94: f940052a    	ldr	x10, [x9, #8]
100005b98: eb08015f    	cmp	x10, x8
100005b9c: 540018a9    	b.ls	0x100005eb0 <_barn_filename_action+0x568>
100005ba0: eb08015f    	cmp	x10, x8
100005ba4: 54000089    	b.ls	0x100005bb4 <_barn_filename_action+0x26c>
100005ba8: f9400929    	ldr	x9, [x9, #16]
100005bac: f8687928    	ldr	x8, [x9, x8, lsl  #3]
100005bb0: 14000002    	b	0x100005bb8 <_barn_filename_action+0x270>
100005bb4: d2800008    	mov	x8, #0
100005bb8: f9000688    	str	x8, [x20, #8]
100005bbc: b9402109    	ldr	w9, [x8, #32]
100005bc0: 71001d3f    	cmp	w9, #7
100005bc4: 54fffe01    	b.ne	0x100005b84 <_barn_filename_action+0x23c>
100005bc8: f9400100    	ldr	x0, [x8]
100005bcc: aa1603e1    	mov	x1, x22
100005bd0: 94000e1e    	bl	0x100009448 <_strlen+0x100009448>
100005bd4: 35fffd80    	cbnz	w0, 0x100005b84 <_barn_filename_action+0x23c>
100005bd8: b9801288    	ldrsw	x8, [x20, #16]
100005bdc: 91000508    	add	x8, x8, #1
100005be0: b9001288    	str	w8, [x20, #16]
100005be4: f9400289    	ldr	x9, [x20]
100005be8: f9400d29    	ldr	x9, [x9, #24]
100005bec: b40000e9    	cbz	x9, 0x100005c08 <_barn_filename_action+0x2c0>
100005bf0: f940052a    	ldr	x10, [x9, #8]
100005bf4: eb08015f    	cmp	x10, x8
100005bf8: 54000089    	b.ls	0x100005c08 <_barn_filename_action+0x2c0>
100005bfc: f9400929    	ldr	x9, [x9, #16]
100005c00: f8687928    	ldr	x8, [x9, x8, lsl  #3]
100005c04: 14000002    	b	0x100005c0c <_barn_filename_action+0x2c4>
100005c08: d2800008    	mov	x8, #0
100005c0c: b0000021    	adrp	x1, 0x10000a000 <_barn_filename_action+0x2d8>
100005c10: 91110021    	add	x1, x1, #1088
100005c14: f9000688    	str	x8, [x20, #8]
100005c18: b9402109    	ldr	w9, [x8, #32]
100005c1c: 7100193f    	cmp	w9, #6
100005c20: 5400e181    	b.ne	0x100007850 <_barn_filename_action+0x1f08>
100005c24: f9400113    	ldr	x19, [x8]
100005c28: aa1303e0    	mov	x0, x19
100005c2c: aa0103f7    	mov	x23, x1
100005c30: 94000de8    	bl	0x1000093d0 <_strlen+0x1000093d0>
100005c34: b50002e0    	cbnz	x0, 0x100005c90 <_barn_filename_action+0x348>
100005c38: 940009f0    	bl	0x1000083f8 <_barn_std_get_path>
100005c3c: aa0003f8    	mov	x24, x0
100005c40: 94000e05    	bl	0x100009454 <_strlen+0x100009454>
100005c44: aa0003fc    	mov	x28, x0
100005c48: aa1303e0    	mov	x0, x19
100005c4c: 94000e02    	bl	0x100009454 <_strlen+0x100009454>
100005c50: 8b000388    	add	x8, x28, x0
100005c54: 91000900    	add	x0, x8, #2
100005c58: 52800021    	mov	w1, #1
100005c5c: 94000dd1    	bl	0x1000093a0 <_strlen+0x1000093a0>
100005c60: aa0003fc    	mov	x28, x0
100005c64: a9004ff8    	stp	x24, x19, [sp]
100005c68: 52800001    	mov	w1, #0
100005c6c: 92800002    	mov	x2, #-1
100005c70: b0000023    	adrp	x3, 0x10000a000 <_barn_filename_action+0x33c>
100005c74: 910f7463    	add	x3, x3, #989
100005c78: 94000db8    	bl	0x100009358 <_strlen+0x100009358>
100005c7c: aa1c03e0    	mov	x0, x28
100005c80: aa1703e1    	mov	x1, x23
100005c84: 94000dd3    	bl	0x1000093d0 <_strlen+0x1000093d0>
100005c88: b400f380    	cbz	x0, 0x100007af8 <_barn_filename_action+0x21b0>
100005c8c: aa1c03f3    	mov	x19, x28
100005c90: 94000dca    	bl	0x1000093b8 <_strlen+0x1000093b8>
100005c94: aa1303e0    	mov	x0, x19
100005c98: 97fff72c    	bl	0x100003948 <_barn_read_whole_file>
100005c9c: aa0003f8    	mov	x24, x0
100005ca0: 52800020    	mov	w0, #1
100005ca4: 52800401    	mov	w1, #32
100005ca8: 94000dbe    	bl	0x1000093a0 <_strlen+0x1000093a0>
100005cac: aa0003fc    	mov	x28, x0
100005cb0: 39003019    	strb	w25, [x0, #12]
100005cb4: f9000813    	str	x19, [x0, #16]
100005cb8: 90000020    	adrp	x0, 0x100009000 <_barn_filename_action+0x380>
100005cbc: 912d1400    	add	x0, x0, #2885
100005cc0: 94000ddc    	bl	0x100009430 <_strlen+0x100009430>
100005cc4: 52800869    	mov	w9, #67
100005cc8: b0000028    	adrp	x8, 0x10000a000 <_barn_filename_action+0x394>
100005ccc: 91100108    	add	x8, x8, #1024
100005cd0: a90027e8    	stp	x8, x9, [sp]
100005cd4: 90000020    	adrp	x0, 0x100009000 <_barn_filename_action+0x39c>
100005cd8: 912ce800    	add	x0, x0, #2874
100005cdc: 94000dd5    	bl	0x100009430 <_strlen+0x100009430>
100005ce0: b0000028    	adrp	x8, 0x10000a000 <_barn_filename_action+0x3ac>
100005ce4: 912d3908    	add	x8, x8, #2894
100005ce8: f90003e8    	str	x8, [sp]
100005cec: d0000020    	adrp	x0, 0x10000b000 <_barn_filename_action+0x3bc>
100005cf0: 911b0000    	add	x0, x0, #1728
100005cf4: 94000dcf    	bl	0x100009430 <_strlen+0x100009430>
100005cf8: aa1803e0    	mov	x0, x24
100005cfc: aa1c03e1    	mov	x1, x28
100005d00: 97fff759    	bl	0x100003a64 <_barn_start_lexer>
100005d04: aa0003f3    	mov	x19, x0
100005d08: f9400288    	ldr	x8, [x20]
100005d0c: f9400d18    	ldr	x24, [x8, #24]
100005d10: b40006d8    	cbz	x24, 0x100005de8 <_barn_filename_action+0x4a0>
100005d14: b9801288    	ldrsw	x8, [x20, #16]
100005d18: f9400709    	ldr	x9, [x24, #8]
100005d1c: eb08013f    	cmp	x9, x8
100005d20: 54000349    	b.ls	0x100005d88 <_barn_filename_action+0x440>
100005d24: d1000529    	sub	x9, x9, #1
100005d28: eb08013f    	cmp	x9, x8
100005d2c: 54000169    	b.ls	0x100005d58 <_barn_filename_action+0x410>
100005d30: f9400b09    	ldr	x9, [x24, #16]
100005d34: 8b080d29    	add	x9, x9, x8, lsl #3
100005d38: 9100050a    	add	x10, x8, #1
100005d3c: f9400528    	ldr	x8, [x9, #8]
100005d40: f9000128    	str	x8, [x9]
100005d44: f9400708    	ldr	x8, [x24, #8]
100005d48: d1000509    	sub	x9, x8, #1
100005d4c: aa0a03e8    	mov	x8, x10
100005d50: eb09015f    	cmp	x10, x9
100005d54: 54fffee3    	b.lo	0x100005d30 <_barn_filename_action+0x3e8>
100005d58: f9000709    	str	x9, [x24, #8]
100005d5c: f9400b00    	ldr	x0, [x24, #16]
100005d60: d37df121    	lsl	x1, x9, #3
100005d64: 94000db6    	bl	0x10000943c <_strlen+0x10000943c>
100005d68: b400db80    	cbz	x0, 0x1000078d8 <_barn_filename_action+0x1f90>
100005d6c: f9000b00    	str	x0, [x24, #16]
100005d70: f9400288    	ldr	x8, [x20]
100005d74: f9400d18    	ldr	x24, [x8, #24]
100005d78: b4000398    	cbz	x24, 0x100005de8 <_barn_filename_action+0x4a0>
100005d7c: b9801288    	ldrsw	x8, [x20, #16]
100005d80: d1000508    	sub	x8, x8, #1
100005d84: 14000003    	b	0x100005d90 <_barn_filename_action+0x448>
100005d88: 51000508    	sub	w8, w8, #1
100005d8c: 93407d08    	sxtw	x8, w8
100005d90: f9400709    	ldr	x9, [x24, #8]
100005d94: eb08013f    	cmp	x9, x8
100005d98: 54000289    	b.ls	0x100005de8 <_barn_filename_action+0x4a0>
100005d9c: d1000529    	sub	x9, x9, #1
100005da0: eb08013f    	cmp	x9, x8
100005da4: 54000169    	b.ls	0x100005dd0 <_barn_filename_action+0x488>
100005da8: f9400b09    	ldr	x9, [x24, #16]
100005dac: 8b080d29    	add	x9, x9, x8, lsl #3
100005db0: 9100050a    	add	x10, x8, #1
100005db4: f9400528    	ldr	x8, [x9, #8]
100005db8: f9000128    	str	x8, [x9]
100005dbc: f9400708    	ldr	x8, [x24, #8]
100005dc0: d1000509    	sub	x9, x8, #1
100005dc4: aa0a03e8    	mov	x8, x10
100005dc8: eb09015f    	cmp	x10, x9
100005dcc: 54fffee3    	b.lo	0x100005da8 <_barn_filename_action+0x460>
100005dd0: f9000709    	str	x9, [x24, #8]
100005dd4: f9400b00    	ldr	x0, [x24, #16]
100005dd8: d37df121    	lsl	x1, x9, #3
100005ddc: 94000d98    	bl	0x10000943c <_strlen+0x10000943c>
100005de0: b400d7c0    	cbz	x0, 0x1000078d8 <_barn_filename_action+0x1f90>
100005de4: f9000b00    	str	x0, [x24, #16]
100005de8: f9400e68    	ldr	x8, [x19, #24]
100005dec: f9400509    	ldr	x9, [x8, #8]
100005df0: f100053f    	cmp	x9, #1
100005df4: 54ffec80    	b.eq	0x100005b84 <_barn_filename_action+0x23c>
100005df8: d2800018    	mov	x24, #0
100005dfc: b980128a    	ldrsw	x10, [x20, #16]
100005e00: d100055c    	sub	x28, x10, #1
100005e04: 1400000b    	b	0x100005e30 <_barn_filename_action+0x4e8>
100005e08: f837781a    	str	x26, [x0, x23, lsl  #3]
100005e0c: f9400768    	ldr	x8, [x27, #8]
100005e10: 91000508    	add	x8, x8, #1
100005e14: f9000768    	str	x8, [x27, #8]
100005e18: f9400e68    	ldr	x8, [x19, #24]
100005e1c: f9400509    	ldr	x9, [x8, #8]
100005e20: 91000718    	add	x24, x24, #1
100005e24: d100052a    	sub	x10, x9, #1
100005e28: eb18015f    	cmp	x10, x24
100005e2c: 54ffeac9    	b.ls	0x100005b84 <_barn_filename_action+0x23c>
100005e30: eb18013f    	cmp	x9, x24
100005e34: 54ffff69    	b.ls	0x100005e20 <_barn_filename_action+0x4d8>
100005e38: f940090a    	ldr	x10, [x8, #16]
100005e3c: f878795a    	ldr	x26, [x10, x24, lsl  #3]
100005e40: f940028a    	ldr	x10, [x20]
100005e44: f9400d5b    	ldr	x27, [x10, #24]
100005e48: f100037f    	cmp	x27, #0
100005e4c: fa401b44    	ccmp	x26, #0, #4, ne
100005e50: 54fffe80    	b.eq	0x100005e20 <_barn_filename_action+0x4d8>
100005e54: f940076a    	ldr	x10, [x27, #8]
100005e58: 8b1c0317    	add	x23, x24, x28
100005e5c: eb17015f    	cmp	x10, x23
100005e60: 54fffe03    	b.lo	0x100005e20 <_barn_filename_action+0x4d8>
100005e64: f9400b60    	ldr	x0, [x27, #16]
100005e68: d37df148    	lsl	x8, x10, #3
100005e6c: 91002101    	add	x1, x8, #8
100005e70: 94000d73    	bl	0x10000943c <_strlen+0x10000943c>
100005e74: b400cc00    	cbz	x0, 0x1000077f4 <_barn_filename_action+0x1eac>
100005e78: f9000b60    	str	x0, [x27, #16]
100005e7c: f9400768    	ldr	x8, [x27, #8]
100005e80: eb17011f    	cmp	x8, x23
100005e84: 54fffc29    	b.ls	0x100005e08 <_barn_filename_action+0x4c0>
100005e88: f9400b69    	ldr	x9, [x27, #16]
100005e8c: 8b080d29    	add	x9, x9, x8, lsl #3
100005e90: d100050a    	sub	x10, x8, #1
100005e94: f85f8128    	ldur	x8, [x9, #-8]
100005e98: f9000128    	str	x8, [x9]
100005e9c: aa0a03e8    	mov	x8, x10
100005ea0: eb17015f    	cmp	x10, x23
100005ea4: 54ffff28    	b.hi	0x100005e88 <_barn_filename_action+0x540>
100005ea8: f9400b60    	ldr	x0, [x27, #16]
100005eac: 17ffffd7    	b	0x100005e08 <_barn_filename_action+0x4c0>
100005eb0: aa1403e0    	mov	x0, x20
100005eb4: 94000d50    	bl	0x1000093f4 <_strlen+0x1000093f4>
100005eb8: 52800020    	mov	w0, #1
100005ebc: 52800301    	mov	w1, #24
100005ec0: 94000d38    	bl	0x1000093a0 <_strlen+0x1000093a0>
100005ec4: b900001f    	str	wzr, [x0]
100005ec8: f9000419    	str	x25, [x0, #8]
100005ecc: b9001019    	str	w25, [x0, #16]
100005ed0: 3900501f    	strb	wzr, [x0, #20]
100005ed4: 3900581f    	strb	wzr, [x0, #22]
100005ed8: f0000048    	adrp	x8, 0x100010000 <_barn_filename_action+0x5bc>
100005edc: f9000100    	str	x0, [x8]
100005ee0: 52800020    	mov	w0, #1
100005ee4: 52800301    	mov	w1, #24
100005ee8: 94000d2e    	bl	0x1000093a0 <_strlen+0x1000093a0>
100005eec: b9000019    	str	w25, [x0]
100005ef0: 52800054    	mov	w20, #2
100005ef4: f9000414    	str	x20, [x0, #8]
100005ef8: b9001019    	str	w25, [x0, #16]
100005efc: 3900501f    	strb	wzr, [x0, #20]
100005f00: 3900581f    	strb	wzr, [x0, #22]
100005f04: f0000048    	adrp	x8, 0x100010000 <_barn_filename_action+0x5e8>
100005f08: f9000500    	str	x0, [x8, #8]
100005f0c: 52800020    	mov	w0, #1
100005f10: 52800301    	mov	w1, #24
100005f14: 94000d23    	bl	0x1000093a0 <_strlen+0x1000093a0>
100005f18: b9000014    	str	w20, [x0]
100005f1c: 52800093    	mov	w19, #4
100005f20: f9000413    	str	x19, [x0, #8]
100005f24: b9001019    	str	w25, [x0, #16]
100005f28: 3900501f    	strb	wzr, [x0, #20]
100005f2c: 3900581f    	strb	wzr, [x0, #22]
100005f30: f0000048    	adrp	x8, 0x100010000 <_barn_filename_action+0x614>
100005f34: f9000900    	str	x0, [x8, #16]
100005f38: 52800020    	mov	w0, #1
100005f3c: 52800301    	mov	w1, #24
100005f40: 94000d18    	bl	0x1000093a0 <_strlen+0x1000093a0>
100005f44: 52800068    	mov	w8, #3
100005f48: b9000008    	str	w8, [x0]
100005f4c: 52800116    	mov	w22, #8
100005f50: f9000416    	str	x22, [x0, #8]
100005f54: b9001019    	str	w25, [x0, #16]
100005f58: 3900501f    	strb	wzr, [x0, #20]
100005f5c: 3900581f    	strb	wzr, [x0, #22]
100005f60: f0000048    	adrp	x8, 0x100010000 <_barn_filename_action+0x644>
100005f64: f9000d00    	str	x0, [x8, #24]
100005f68: 52800020    	mov	w0, #1
100005f6c: 52800301    	mov	w1, #24
100005f70: 94000d0c    	bl	0x1000093a0 <_strlen+0x1000093a0>
100005f74: b9000013    	str	w19, [x0]
100005f78: f9000419    	str	x25, [x0, #8]
100005f7c: 52802017    	mov	w23, #256
100005f80: b9001017    	str	w23, [x0, #16]
100005f84: 3900501f    	strb	wzr, [x0, #20]
100005f88: 3900581f    	strb	wzr, [x0, #22]
100005f8c: f0000048    	adrp	x8, 0x100010000 <_barn_filename_action+0x670>
100005f90: f9001100    	str	x0, [x8, #32]
100005f94: 52800020    	mov	w0, #1
100005f98: 52800301    	mov	w1, #24
100005f9c: 94000d01    	bl	0x1000093a0 <_strlen+0x1000093a0>
100005fa0: 528000a8    	mov	w8, #5
100005fa4: b9000008    	str	w8, [x0]
100005fa8: f9000414    	str	x20, [x0, #8]
100005fac: b9001017    	str	w23, [x0, #16]
100005fb0: 3900501f    	strb	wzr, [x0, #20]
100005fb4: 3900581f    	strb	wzr, [x0, #22]
100005fb8: f0000048    	adrp	x8, 0x100010000 <_barn_filename_action+0x69c>
100005fbc: f9001500    	str	x0, [x8, #40]
100005fc0: 52800020    	mov	w0, #1
100005fc4: 52800301    	mov	w1, #24
100005fc8: 94000cf6    	bl	0x1000093a0 <_strlen+0x1000093a0>
100005fcc: 528000c8    	mov	w8, #6
100005fd0: b9000008    	str	w8, [x0]
100005fd4: f9000413    	str	x19, [x0, #8]
100005fd8: b9001017    	str	w23, [x0, #16]
100005fdc: 3900501f    	strb	wzr, [x0, #20]
100005fe0: 3900581f    	strb	wzr, [x0, #22]
100005fe4: f0000048    	adrp	x8, 0x100010000 <_barn_filename_action+0x6c8>
100005fe8: f9001900    	str	x0, [x8, #48]
100005fec: 52800020    	mov	w0, #1
100005ff0: 52800301    	mov	w1, #24
100005ff4: 94000ceb    	bl	0x1000093a0 <_strlen+0x1000093a0>
100005ff8: 528000e8    	mov	w8, #7
100005ffc: b9000008    	str	w8, [x0]
100006000: f9000416    	str	x22, [x0, #8]
100006004: b9001017    	str	w23, [x0, #16]
100006008: 3900501f    	strb	wzr, [x0, #20]
10000600c: 3900581f    	strb	wzr, [x0, #22]
100006010: d0000048    	adrp	x8, 0x100010000 <_barn_filename_action+0x6f0>
100006014: f9001d00    	str	x0, [x8, #56]
100006018: 52800020    	mov	w0, #1
10000601c: 52800301    	mov	w1, #24
100006020: 94000ce0    	bl	0x1000093a0 <_strlen+0x1000093a0>
100006024: b9000016    	str	w22, [x0]
100006028: f9000416    	str	x22, [x0, #8]
10000602c: b900101f    	str	wzr, [x0, #16]
100006030: 3900501f    	strb	wzr, [x0, #20]
100006034: 39005819    	strb	w25, [x0, #22]
100006038: d0000048    	adrp	x8, 0x100010000 <_barn_filename_action+0x718>
10000603c: f9002100    	str	x0, [x8, #64]
100006040: 52800020    	mov	w0, #1
100006044: 52800301    	mov	w1, #24
100006048: 94000cd6    	bl	0x1000093a0 <_strlen+0x1000093a0>
10000604c: 52800128    	mov	w8, #9
100006050: b9000008    	str	w8, [x0]
100006054: f9000416    	str	x22, [x0, #8]
100006058: 52a00028    	mov	w8, #65536
10000605c: b9001008    	str	w8, [x0, #16]
100006060: 3900501f    	strb	wzr, [x0, #20]
100006064: 39005819    	strb	w25, [x0, #22]
100006068: d0000054    	adrp	x20, 0x100010000 <_barn_filename_action+0x748>
10000606c: f9002680    	str	x0, [x20, #72]
100006070: 52800020    	mov	w0, #1
100006074: 52800301    	mov	w1, #24
100006078: 94000cca    	bl	0x1000093a0 <_strlen+0x1000093a0>
10000607c: 52800148    	mov	w8, #10
100006080: b9000008    	str	w8, [x0]
100006084: f9000419    	str	x25, [x0, #8]
100006088: b900101f    	str	wzr, [x0, #16]
10000608c: 39005019    	strb	w25, [x0, #20]
100006090: 3900581f    	strb	wzr, [x0, #22]
100006094: d0000048    	adrp	x8, 0x100010000 <_barn_filename_action+0x774>
100006098: f9002900    	str	x0, [x8, #80]
10000609c: 52800020    	mov	w0, #1
1000060a0: 52800301    	mov	w1, #24
1000060a4: 94000cbf    	bl	0x1000093a0 <_strlen+0x1000093a0>
1000060a8: 52800168    	mov	w8, #11
1000060ac: b9000008    	str	w8, [x0]
1000060b0: f9000413    	str	x19, [x0, #8]
1000060b4: 52a02013    	mov	w19, #16777216
1000060b8: b9001013    	str	w19, [x0, #16]
1000060bc: 3900501f    	strb	wzr, [x0, #20]
1000060c0: 3900581f    	strb	wzr, [x0, #22]
1000060c4: d0000048    	adrp	x8, 0x100010000 <_barn_filename_action+0x7a4>
1000060c8: f9002d00    	str	x0, [x8, #88]
1000060cc: 52800020    	mov	w0, #1
1000060d0: 52800301    	mov	w1, #24
1000060d4: 94000cb3    	bl	0x1000093a0 <_strlen+0x1000093a0>
1000060d8: 52800188    	mov	w8, #12
1000060dc: b9000008    	str	w8, [x0]
1000060e0: f9000416    	str	x22, [x0, #8]
1000060e4: b9001013    	str	w19, [x0, #16]
1000060e8: 3900501f    	strb	wzr, [x0, #20]
1000060ec: 3900581f    	strb	wzr, [x0, #22]
1000060f0: d0000048    	adrp	x8, 0x100010000 <_barn_filename_action+0x7d0>
1000060f4: f9003100    	str	x0, [x8, #96]
1000060f8: f0000013    	adrp	x19, 0x100009000 <_barn_filename_action+0x7bc>
1000060fc: 912d1673    	add	x19, x19, #2885
100006100: aa1303e0    	mov	x0, x19
100006104: 94000ccb    	bl	0x100009430 <_strlen+0x100009430>
100006108: 52800ba9    	mov	w9, #93
10000610c: 90000028    	adrp	x8, 0x10000a000 <_barn_filename_action+0x7d4>
100006110: 912bc908    	add	x8, x8, #2802
100006114: a90027e8    	stp	x8, x9, [sp]
100006118: f0000016    	adrp	x22, 0x100009000 <_barn_filename_action+0x7dc>
10000611c: 912cead6    	add	x22, x22, #2874
100006120: aa1603e0    	mov	x0, x22
100006124: 94000cc3    	bl	0x100009430 <_strlen+0x100009430>
100006128: 90000028    	adrp	x8, 0x10000a000 <_barn_filename_action+0x7f0>
10000612c: 912dc908    	add	x8, x8, #2930
100006130: f90003e8    	str	x8, [sp]
100006134: b0000037    	adrp	x23, 0x10000b000 <_barn_filename_action+0x800>
100006138: 911b02f7    	add	x23, x23, #1728
10000613c: aa1703e0    	mov	x0, x23
100006140: 94000cbc    	bl	0x100009430 <_strlen+0x100009430>
100006144: 52800020    	mov	w0, #1
100006148: 52800a01    	mov	w1, #80
10000614c: 94000c95    	bl	0x1000093a0 <_strlen+0x1000093a0>
100006150: aa0003fc    	mov	x28, x0
100006154: 52800e00    	mov	w0, #112
100006158: 97ffee93    	bl	0x100001ba4 <_barn_create_array>
10000615c: f9001b80    	str	x0, [x28, #48]
100006160: 52800e00    	mov	w0, #112
100006164: 97ffee90    	bl	0x100001ba4 <_barn_create_array>
100006168: f9001f80    	str	x0, [x28, #56]
10000616c: 52800e00    	mov	w0, #112
100006170: 97ffee8d    	bl	0x100001ba4 <_barn_create_array>
100006174: f9001780    	str	x0, [x28, #40]
100006178: 52800e00    	mov	w0, #112
10000617c: 97ffee8a    	bl	0x100001ba4 <_barn_create_array>
100006180: f9001380    	str	x0, [x28, #32]
100006184: 52800e00    	mov	w0, #112
100006188: 97ffee87    	bl	0x100001ba4 <_barn_create_array>
10000618c: aa1c03f8    	mov	x24, x28
100006190: f8010f1f    	str	xzr, [x24, #16]!
100006194: a9005780    	stp	x0, x21, [x28]
100006198: f9000f9f    	str	xzr, [x28, #24]
10000619c: f900279f    	str	xzr, [x28, #72]
1000061a0: aa1303e0    	mov	x0, x19
1000061a4: 94000ca3    	bl	0x100009430 <_strlen+0x100009430>
1000061a8: 52801848    	mov	w8, #194
1000061ac: 90000029    	adrp	x9, 0x10000a000 <_barn_filename_action+0x874>
1000061b0: 913bad29    	add	x9, x9, #3819
1000061b4: a90023e9    	stp	x9, x8, [sp]
1000061b8: aa1603e0    	mov	x0, x22
1000061bc: 94000c9d    	bl	0x100009430 <_strlen+0x100009430>
1000061c0: 90000028    	adrp	x8, 0x10000a000 <_barn_filename_action+0x888>
1000061c4: 913e8908    	add	x8, x8, #4002
1000061c8: f90003e8    	str	x8, [sp]
1000061cc: aa1703e0    	mov	x0, x23
1000061d0: 94000c98    	bl	0x100009430 <_strlen+0x100009430>
1000061d4: 52800020    	mov	w0, #1
1000061d8: 52800e01    	mov	w1, #112
1000061dc: 94000c71    	bl	0x1000093a0 <_strlen+0x1000093a0>
1000061e0: aa0003f3    	mov	x19, x0
1000061e4: b900001f    	str	wzr, [x0]
1000061e8: 52800200    	mov	w0, #16
1000061ec: 97ffee6e    	bl	0x100001ba4 <_barn_create_array>
1000061f0: aa0003f5    	mov	x21, x0
1000061f4: f9402697    	ldr	x23, [x20, #72]
1000061f8: 52800020    	mov	w0, #1
1000061fc: 52800201    	mov	w1, #16
100006200: 94000c68    	bl	0x1000093a0 <_strlen+0x1000093a0>
100006204: 90000028    	adrp	x8, 0x10000a000 <_barn_filename_action+0x8cc>
100006208: 91013108    	add	x8, x8, #76
10000620c: a9002017    	stp	x23, x8, [x0]
100006210: b40001b5    	cbz	x21, 0x100006244 <_barn_filename_action+0x8fc>
100006214: aa0003f6    	mov	x22, x0
100006218: a94082a8    	ldp	x8, x0, [x21, #8]
10000621c: d37df108    	lsl	x8, x8, #3
100006220: 91002101    	add	x1, x8, #8
100006224: 94000c86    	bl	0x10000943c <_strlen+0x10000943c>
100006228: b400ade0    	cbz	x0, 0x1000077e4 <_barn_filename_action+0x1e9c>
10000622c: f9000aa0    	str	x0, [x21, #16]
100006230: f94006a8    	ldr	x8, [x21, #8]
100006234: f8287816    	str	x22, [x0, x8, lsl  #3]
100006238: f94006a8    	ldr	x8, [x21, #8]
10000623c: 91000508    	add	x8, x8, #1
100006240: f90006a8    	str	x8, [x21, #8]
100006244: 90000028    	adrp	x8, 0x10000a000 <_barn_filename_action+0x90c>
100006248: 91016108    	add	x8, x8, #88
10000624c: f9001268    	str	x8, [x19, #32]
100006250: f9000675    	str	x21, [x19, #8]
100006254: 52800100    	mov	w0, #8
100006258: 97ffee53    	bl	0x100001ba4 <_barn_create_array>
10000625c: f9000a60    	str	x0, [x19, #16]
100006260: 52800035    	mov	w21, #1
100006264: 52800020    	mov	w0, #1
100006268: 52800301    	mov	w1, #24
10000626c: 94000c4d    	bl	0x1000093a0 <_strlen+0x1000093a0>
100006270: 528001c8    	mov	w8, #14
100006274: b9000008    	str	w8, [x0]
100006278: f9000415    	str	x21, [x0, #8]
10000627c: b900101f    	str	wzr, [x0, #16]
100006280: 3900501f    	strb	wzr, [x0, #20]
100006284: 3900581f    	strb	wzr, [x0, #22]
100006288: f9000e60    	str	x0, [x19, #24]
10000628c: f9401395    	ldr	x21, [x28, #32]
100006290: b4000195    	cbz	x21, 0x1000062c0 <_barn_filename_action+0x978>
100006294: a94082a8    	ldp	x8, x0, [x21, #8]
100006298: d37df108    	lsl	x8, x8, #3
10000629c: 91002101    	add	x1, x8, #8
1000062a0: 94000c67    	bl	0x10000943c <_strlen+0x10000943c>
1000062a4: b400aa00    	cbz	x0, 0x1000077e4 <_barn_filename_action+0x1e9c>
1000062a8: f9000aa0    	str	x0, [x21, #16]
1000062ac: f94006a8    	ldr	x8, [x21, #8]
1000062b0: f8287813    	str	x19, [x0, x8, lsl  #3]
1000062b4: f94006a8    	ldr	x8, [x21, #8]
1000062b8: 91000508    	add	x8, x8, #1
1000062bc: f90006a8    	str	x8, [x21, #8]
1000062c0: 52800020    	mov	w0, #1
1000062c4: 52800e01    	mov	w1, #112
1000062c8: 94000c36    	bl	0x1000093a0 <_strlen+0x1000093a0>
1000062cc: aa0003f3    	mov	x19, x0
1000062d0: b900001f    	str	wzr, [x0]
1000062d4: 52800200    	mov	w0, #16
1000062d8: 97ffee33    	bl	0x100001ba4 <_barn_create_array>
1000062dc: aa0003f5    	mov	x21, x0
1000062e0: f9402694    	ldr	x20, [x20, #72]
1000062e4: 52800020    	mov	w0, #1
1000062e8: 52800201    	mov	w1, #16
1000062ec: 94000c2d    	bl	0x1000093a0 <_strlen+0x1000093a0>
1000062f0: 90000028    	adrp	x8, 0x10000a000 <_barn_filename_action+0x9b8>
1000062f4: 91018508    	add	x8, x8, #97
1000062f8: a9002014    	stp	x20, x8, [x0]
1000062fc: b40001b5    	cbz	x21, 0x100006330 <_barn_filename_action+0x9e8>
100006300: aa0003f6    	mov	x22, x0
100006304: a94082a8    	ldp	x8, x0, [x21, #8]
100006308: d37df108    	lsl	x8, x8, #3
10000630c: 91002101    	add	x1, x8, #8
100006310: 94000c4b    	bl	0x10000943c <_strlen+0x10000943c>
100006314: b400a680    	cbz	x0, 0x1000077e4 <_barn_filename_action+0x1e9c>
100006318: f9000aa0    	str	x0, [x21, #16]
10000631c: f94006a8    	ldr	x8, [x21, #8]
100006320: f8287816    	str	x22, [x0, x8, lsl  #3]
100006324: f94006a8    	ldr	x8, [x21, #8]
100006328: 91000508    	add	x8, x8, #1
10000632c: f90006a8    	str	x8, [x21, #8]
100006330: 90000028    	adrp	x8, 0x10000a000 <_barn_filename_action+0x9f8>
100006334: 9101b108    	add	x8, x8, #108
100006338: f9001268    	str	x8, [x19, #32]
10000633c: f9000675    	str	x21, [x19, #8]
100006340: 52800100    	mov	w0, #8
100006344: 97ffee18    	bl	0x100001ba4 <_barn_create_array>
100006348: f9000a60    	str	x0, [x19, #16]
10000634c: 52800034    	mov	w20, #1
100006350: 52800020    	mov	w0, #1
100006354: 52800301    	mov	w1, #24
100006358: 94000c12    	bl	0x1000093a0 <_strlen+0x1000093a0>
10000635c: 528001c8    	mov	w8, #14
100006360: b9000008    	str	w8, [x0]
100006364: f9000414    	str	x20, [x0, #8]
100006368: b900101f    	str	wzr, [x0, #16]
10000636c: 3900501f    	strb	wzr, [x0, #20]
100006370: 3900581f    	strb	wzr, [x0, #22]
100006374: f9000e60    	str	x0, [x19, #24]
100006378: f9401394    	ldr	x20, [x28, #32]
10000637c: b4000194    	cbz	x20, 0x1000063ac <_barn_filename_action+0xa64>
100006380: a9408288    	ldp	x8, x0, [x20, #8]
100006384: d37df108    	lsl	x8, x8, #3
100006388: 91002101    	add	x1, x8, #8
10000638c: 94000c2c    	bl	0x10000943c <_strlen+0x10000943c>
100006390: b400a2a0    	cbz	x0, 0x1000077e4 <_barn_filename_action+0x1e9c>
100006394: f9000a80    	str	x0, [x20, #16]
100006398: f9400688    	ldr	x8, [x20, #8]
10000639c: f8287813    	str	x19, [x0, x8, lsl  #3]
1000063a0: f9400688    	ldr	x8, [x20, #8]
1000063a4: 91000508    	add	x8, x8, #1
1000063a8: f9000688    	str	x8, [x20, #8]
1000063ac: b9801f88    	ldrsw	x8, [x28, #28]
1000063b0: f9400789    	ldr	x9, [x28, #8]
1000063b4: f9400d29    	ldr	x9, [x9, #24]
1000063b8: f940052a    	ldr	x10, [x9, #8]
1000063bc: eb08015f    	cmp	x10, x8
1000063c0: f90017fc    	str	x28, [sp, #40]
1000063c4: 54005cc9    	b.ls	0x100006f5c <_barn_filename_action+0x1614>
1000063c8: 90000035    	adrp	x21, 0x10000a000 <_barn_filename_action+0xa90>
1000063cc: 913da6b5    	add	x21, x21, #3945
1000063d0: f0000016    	adrp	x22, 0x100009000 <_barn_filename_action+0xa94>
1000063d4: 9118d2d6    	add	x22, x22, #1588
1000063d8: 90000039    	adrp	x25, 0x10000a000 <_barn_filename_action+0xaa0>
1000063dc: 913d6b39    	add	x25, x25, #3930
1000063e0: 90000037    	adrp	x23, 0x10000a000 <_barn_filename_action+0xaa8>
1000063e4: 910beaf7    	add	x23, x23, #762
1000063e8: 1400000c    	b	0x100006418 <_barn_filename_action+0xad0>
1000063ec: 52800e00    	mov	w0, #112
1000063f0: 97ffeded    	bl	0x100001ba4 <_barn_create_array>
1000063f4: f9001780    	str	x0, [x28, #40]
1000063f8: b9801f88    	ldrsw	x8, [x28, #28]
1000063fc: 91000508    	add	x8, x8, #1
100006400: b9001f88    	str	w8, [x28, #28]
100006404: f9400789    	ldr	x9, [x28, #8]
100006408: f9400d29    	ldr	x9, [x9, #24]
10000640c: f940052a    	ldr	x10, [x9, #8]
100006410: eb08015f    	cmp	x10, x8
100006414: 54005a49    	b.ls	0x100006f5c <_barn_filename_action+0x1614>
100006418: f9400929    	ldr	x9, [x9, #16]
10000641c: f8687928    	ldr	x8, [x9, x8, lsl  #3]
100006420: f9000308    	str	x8, [x24]
100006424: f9400108    	ldr	x8, [x8]
100006428: f90003e8    	str	x8, [sp]
10000642c: aa1503e0    	mov	x0, x21
100006430: 94000c00    	bl	0x100009430 <_strlen+0x100009430>
100006434: f9400308    	ldr	x8, [x24]
100006438: b9402109    	ldr	w9, [x8, #32]
10000643c: 51000529    	sub	w9, w9, #1
100006440: 7100853f    	cmp	w9, #33
100006444: 54009f28    	b.hi	0x100007828 <_barn_filename_action+0x1ee0>
100006448: 10fffd8a    	adr	x10, #-80
10000644c: 78697acb    	ldrh	w11, [x22, x9, lsl  #1]
100006450: 8b0b094a    	add	x10, x10, x11, lsl #2
100006454: d61f0140    	br	x10
100006458: f9400100    	ldr	x0, [x8]
10000645c: 94000793    	bl	0x1000082a8 <_barn_parser_is_id_keyword>
100006460: 37000360    	tbnz	w0, #0, 0x1000064cc <_barn_filename_action+0xb84>
100006464: aa1c03e0    	mov	x0, x28
100006468: 528003a1    	mov	w1, #29
10000646c: 9400075a    	bl	0x1000081d4 <_barn_parser_is_next_token>
100006470: 3400a4c0    	cbz	w0, 0x100007908 <_barn_filename_action+0x1fc0>
100006474: aa1c03e0    	mov	x0, x28
100006478: 97fff433    	bl	0x100003544 <___barn_parser_func_call>
10000647c: f9402788    	ldr	x8, [x28, #72]
100006480: 91004109    	add	x9, x8, #16
100006484: f100011f    	cmp	x8, #0
100006488: 9a890388    	csel	x8, x28, x9, eq
10000648c: f9400114    	ldr	x20, [x8]
100006490: f100029f    	cmp	x20, #0
100006494: fa401804    	ccmp	x0, #0, #4, ne
100006498: 540001a0    	b.eq	0x1000064cc <_barn_filename_action+0xb84>
10000649c: aa0003f3    	mov	x19, x0
1000064a0: a9408288    	ldp	x8, x0, [x20, #8]
1000064a4: d37df108    	lsl	x8, x8, #3
1000064a8: 91002101    	add	x1, x8, #8
1000064ac: 94000be4    	bl	0x10000943c <_strlen+0x10000943c>
1000064b0: b40099a0    	cbz	x0, 0x1000077e4 <_barn_filename_action+0x1e9c>
1000064b4: f9000a80    	str	x0, [x20, #16]
1000064b8: f9400688    	ldr	x8, [x20, #8]
1000064bc: f8287813    	str	x19, [x0, x8, lsl  #3]
1000064c0: f9400688    	ldr	x8, [x20, #8]
1000064c4: 91000508    	add	x8, x8, #1
1000064c8: f9000688    	str	x8, [x20, #8]
1000064cc: f9400308    	ldr	x8, [x24]
1000064d0: f9400100    	ldr	x0, [x8]
1000064d4: aa1903e1    	mov	x1, x25
1000064d8: 94000bdc    	bl	0x100009448 <_strlen+0x100009448>
1000064dc: 350034a0    	cbnz	w0, 0x100006b70 <_barn_filename_action+0x1228>
1000064e0: f9402788    	ldr	x8, [x28, #72]
1000064e4: b500a268    	cbnz	x8, 0x100007930 <_barn_filename_action+0x1fe8>
1000064e8: aa1c03e0    	mov	x0, x28
1000064ec: 528000e1    	mov	w1, #7
1000064f0: 94000739    	bl	0x1000081d4 <_barn_parser_is_next_token>
1000064f4: 36009ba0    	tbz	w0, #0, 0x100007868 <_barn_filename_action+0x1f20>
1000064f8: b9801f88    	ldrsw	x8, [x28, #28]
1000064fc: 91000508    	add	x8, x8, #1
100006500: b9001f88    	str	w8, [x28, #28]
100006504: f9400789    	ldr	x9, [x28, #8]
100006508: f9400d29    	ldr	x9, [x9, #24]
10000650c: f9400929    	ldr	x9, [x9, #16]
100006510: f8687928    	ldr	x8, [x9, x8, lsl  #3]
100006514: f9000b88    	str	x8, [x28, #16]
100006518: b9402109    	ldr	w9, [x8, #32]
10000651c: 7100053f    	cmp	w9, #1
100006520: 54000161    	b.ne	0x10000654c <_barn_filename_action+0xc04>
100006524: d280001a    	mov	x26, #0
100006528: 1400002c    	b	0x1000065d8 <_barn_filename_action+0xc90>
10000652c: f900279f    	str	xzr, [x28, #72]
100006530: f9401793    	ldr	x19, [x28, #40]
100006534: b4fff5d3    	cbz	x19, 0x1000063ec <_barn_filename_action+0xaa4>
100006538: f9400a60    	ldr	x0, [x19, #16]
10000653c: 94000bae    	bl	0x1000093f4 <_strlen+0x1000093f4>
100006540: aa1303e0    	mov	x0, x19
100006544: 94000bac    	bl	0x1000093f4 <_strlen+0x1000093f4>
100006548: 17ffffa9    	b	0x1000063ec <_barn_filename_action+0xaa4>
10000654c: f9400113    	ldr	x19, [x8]
100006550: aa1303e0    	mov	x0, x19
100006554: 94000bc0    	bl	0x100009454 <_strlen+0x100009454>
100006558: 91000400    	add	x0, x0, #1
10000655c: 52800021    	mov	w1, #1
100006560: 94000b90    	bl	0x1000093a0 <_strlen+0x1000093a0>
100006564: b4009960    	cbz	x0, 0x100007890 <_barn_filename_action+0x1f48>
100006568: aa0003fa    	mov	x26, x0
10000656c: aa1303e1    	mov	x1, x19
100006570: 92800002    	mov	x2, #-1
100006574: 94000b7c    	bl	0x100009364 <_strlen+0x100009364>
100006578: aa1a03e0    	mov	x0, x26
10000657c: 9400074b    	bl	0x1000082a8 <_barn_parser_is_id_keyword>
100006580: 3500afe0    	cbnz	w0, 0x100007b7c <_barn_filename_action+0x2234>
100006584: f9401388    	ldr	x8, [x28, #32]
100006588: f9400509    	ldr	x9, [x8, #8]
10000658c: b4000269    	cbz	x9, 0x1000065d8 <_barn_filename_action+0xc90>
100006590: d2800013    	mov	x19, #0
100006594: eb13013f    	cmp	x9, x19
100006598: 54000089    	b.ls	0x1000065a8 <_barn_filename_action+0xc60>
10000659c: f9400908    	ldr	x8, [x8, #16]
1000065a0: f8737908    	ldr	x8, [x8, x19, lsl  #3]
1000065a4: 14000002    	b	0x1000065ac <_barn_filename_action+0xc64>
1000065a8: d2800008    	mov	x8, #0
1000065ac: b9400109    	ldr	w9, [x8]
1000065b0: 35008ac9    	cbnz	w9, 0x100007708 <_barn_filename_action+0x1dc0>
1000065b4: f9401100    	ldr	x0, [x8, #32]
1000065b8: aa1a03e1    	mov	x1, x26
1000065bc: 94000ba3    	bl	0x100009448 <_strlen+0x100009448>
1000065c0: 34008ea0    	cbz	w0, 0x100007794 <_barn_filename_action+0x1e4c>
1000065c4: 91000673    	add	x19, x19, #1
1000065c8: f9401388    	ldr	x8, [x28, #32]
1000065cc: f9400509    	ldr	x9, [x8, #8]
1000065d0: eb13013f    	cmp	x9, x19
1000065d4: 54fffe08    	b.hi	0x100006594 <_barn_filename_action+0xc4c>
1000065d8: aa1c03e0    	mov	x0, x28
1000065dc: 528003a1    	mov	w1, #29
1000065e0: 940006fd    	bl	0x1000081d4 <_barn_parser_is_next_token>
1000065e4: 36009ba0    	tbz	w0, #0, 0x100007958 <_barn_filename_action+0x2010>
1000065e8: b9801f88    	ldrsw	x8, [x28, #28]
1000065ec: 91000508    	add	x8, x8, #1
1000065f0: b9001f88    	str	w8, [x28, #28]
1000065f4: f9400789    	ldr	x9, [x28, #8]
1000065f8: f9400d29    	ldr	x9, [x9, #24]
1000065fc: b40000e9    	cbz	x9, 0x100006618 <_barn_filename_action+0xcd0>
100006600: f940052a    	ldr	x10, [x9, #8]
100006604: eb08015f    	cmp	x10, x8
100006608: 54000089    	b.ls	0x100006618 <_barn_filename_action+0xcd0>
10000660c: f9400929    	ldr	x9, [x9, #16]
100006610: f8687928    	ldr	x8, [x9, x8, lsl  #3]
100006614: 14000002    	b	0x10000661c <_barn_filename_action+0xcd4>
100006618: d2800008    	mov	x8, #0
10000661c: f9000b88    	str	x8, [x28, #16]
100006620: 52800200    	mov	w0, #16
100006624: 97ffed60    	bl	0x100001ba4 <_barn_create_array>
100006628: aa0003fb    	mov	x27, x0
10000662c: aa1c03e0    	mov	x0, x28
100006630: 528003c1    	mov	w1, #30
100006634: 940006e8    	bl	0x1000081d4 <_barn_parser_is_next_token>
100006638: 34000180    	cbz	w0, 0x100006668 <_barn_filename_action+0xd20>
10000663c: b9801f88    	ldrsw	x8, [x28, #28]
100006640: 9100050a    	add	x10, x8, #1
100006644: b9001f8a    	str	w10, [x28, #28]
100006648: f9400788    	ldr	x8, [x28, #8]
10000664c: f9400d09    	ldr	x9, [x8, #24]
100006650: b40018a9    	cbz	x9, 0x100006964 <_barn_filename_action+0x101c>
100006654: f940052b    	ldr	x11, [x9, #8]
100006658: eb0a017f    	cmp	x11, x10
10000665c: 54000269    	b.ls	0x1000066a8 <_barn_filename_action+0xd60>
100006660: aa0a03eb    	mov	x11, x10
100006664: 140000bd    	b	0x100006958 <_barn_filename_action+0x1010>
100006668: aa1c03e0    	mov	x0, x28
10000666c: 52800021    	mov	w1, #1
100006670: 940006d9    	bl	0x1000081d4 <_barn_parser_is_next_token>
100006674: 3500a9a0    	cbnz	w0, 0x100007ba8 <_barn_filename_action+0x2260>
100006678: b9801f88    	ldrsw	x8, [x28, #28]
10000667c: 91000519    	add	x25, x8, #1
100006680: b9001f99    	str	w25, [x28, #28]
100006684: f9400788    	ldr	x8, [x28, #8]
100006688: f9400d09    	ldr	x9, [x8, #24]
10000668c: b4000149    	cbz	x9, 0x1000066b4 <_barn_filename_action+0xd6c>
100006690: f940052a    	ldr	x10, [x9, #8]
100006694: eb19015f    	cmp	x10, x25
100006698: 540000c9    	b.ls	0x1000066b0 <_barn_filename_action+0xd68>
10000669c: f9400929    	ldr	x9, [x9, #16]
1000066a0: f8797929    	ldr	x9, [x9, x25, lsl  #3]
1000066a4: 14000004    	b	0x1000066b4 <_barn_filename_action+0xd6c>
1000066a8: d2800009    	mov	x9, #0
1000066ac: 140000ae    	b	0x100006964 <_barn_filename_action+0x101c>
1000066b0: d2800009    	mov	x9, #0
1000066b4: f9000309    	str	x9, [x24]
1000066b8: f9400d0a    	ldr	x10, [x8, #24]
1000066bc: f940054a    	ldr	x10, [x10, #8]
1000066c0: eb19015f    	cmp	x10, x25
1000066c4: 54001369    	b.ls	0x100006930 <_barn_filename_action+0xfe8>
1000066c8: 5280000c    	mov	w12, #0
1000066cc: 5280000d    	mov	w13, #0
1000066d0: 5280002b    	mov	w11, #1
1000066d4: aa1903ea    	mov	x10, x25
1000066d8: b940212e    	ldr	w14, [x9, #32]
1000066dc: 710079df    	cmp	w14, #30
1000066e0: 7a4009a0    	ccmp	w13, #0, #0, eq
1000066e4: 540012a0    	b.eq	0x100006938 <_barn_filename_action+0xff0>
1000066e8: 3400058b    	cbz	w11, 0x100006798 <_barn_filename_action+0xe50>
1000066ec: 3500056d    	cbnz	w13, 0x100006798 <_barn_filename_action+0xe50>
1000066f0: 3500054c    	cbnz	w12, 0x100006798 <_barn_filename_action+0xe50>
1000066f4: 71001ddf    	cmp	w14, #7
1000066f8: 54008861    	b.ne	0x100007804 <_barn_filename_action+0x1ebc>
1000066fc: aa1c03e0    	mov	x0, x28
100006700: 94000a15    	bl	0x100008f54 <_barn_parser_current_token_type_representation>
100006704: aa1c03e8    	mov	x8, x28
100006708: f9400b88    	ldr	x8, [x28, #16]
10000670c: b400a880    	cbz	x0, 0x100007c1c <_barn_filename_action+0x22d4>
100006710: aa0003fc    	mov	x28, x0
100006714: f9400114    	ldr	x20, [x8]
100006718: 52800020    	mov	w0, #1
10000671c: 52800201    	mov	w1, #16
100006720: 94000b20    	bl	0x1000093a0 <_strlen+0x1000093a0>
100006724: a900501c    	stp	x28, x20, [x0]
100006728: f94017fc    	ldr	x28, [sp, #40]
10000672c: b40001bb    	cbz	x27, 0x100006760 <_barn_filename_action+0xe18>
100006730: aa0003f3    	mov	x19, x0
100006734: a9408368    	ldp	x8, x0, [x27, #8]
100006738: d37df108    	lsl	x8, x8, #3
10000673c: 91002101    	add	x1, x8, #8
100006740: 94000b3f    	bl	0x10000943c <_strlen+0x10000943c>
100006744: b4008500    	cbz	x0, 0x1000077e4 <_barn_filename_action+0x1e9c>
100006748: f9000b60    	str	x0, [x27, #16]
10000674c: f9400768    	ldr	x8, [x27, #8]
100006750: f8287813    	str	x19, [x0, x8, lsl  #3]
100006754: f9400768    	ldr	x8, [x27, #8]
100006758: 91000508    	add	x8, x8, #1
10000675c: f9000768    	str	x8, [x27, #8]
100006760: b9801f88    	ldrsw	x8, [x28, #28]
100006764: 9100050a    	add	x10, x8, #1
100006768: b9001f8a    	str	w10, [x28, #28]
10000676c: f9400788    	ldr	x8, [x28, #8]
100006770: f9400d09    	ldr	x9, [x8, #24]
100006774: b40006a9    	cbz	x9, 0x100006848 <_barn_filename_action+0xf00>
100006778: 5280000b    	mov	w11, #0
10000677c: f940052c    	ldr	x12, [x9, #8]
100006780: 5280002d    	mov	w13, #1
100006784: eb0a019f    	cmp	x12, x10
100006788: 54000689    	b.ls	0x100006858 <_barn_filename_action+0xf10>
10000678c: aa0a03ee    	mov	x14, x10
100006790: aa0b03ec    	mov	x12, x11
100006794: 1400004e    	b	0x1000068cc <_barn_filename_action+0xf84>
100006798: 3500036b    	cbnz	w11, 0x100006804 <_barn_filename_action+0xebc>
10000679c: 3400034d    	cbz	w13, 0x100006804 <_barn_filename_action+0xebc>
1000067a0: 3500032c    	cbnz	w12, 0x100006804 <_barn_filename_action+0xebc>
1000067a4: 71001ddf    	cmp	w14, #7
1000067a8: 54009ba1    	b.ne	0x100007b1c <_barn_filename_action+0x21d4>
1000067ac: f9400133    	ldr	x19, [x9]
1000067b0: f9400768    	ldr	x8, [x27, #8]
1000067b4: b4000588    	cbz	x8, 0x100006864 <_barn_filename_action+0xf1c>
1000067b8: d2800014    	mov	x20, #0
1000067bc: eb14011f    	cmp	x8, x20
1000067c0: 54000089    	b.ls	0x1000067d0 <_barn_filename_action+0xe88>
1000067c4: f9400b68    	ldr	x8, [x27, #16]
1000067c8: f8747900    	ldr	x0, [x8, x20, lsl  #3]
1000067cc: 14000002    	b	0x1000067d4 <_barn_filename_action+0xe8c>
1000067d0: d2800000    	mov	x0, #0
1000067d4: aa1303e1    	mov	x1, x19
1000067d8: 94000b1c    	bl	0x100009448 <_strlen+0x100009448>
1000067dc: 34007a80    	cbz	w0, 0x10000772c <_barn_filename_action+0x1de4>
1000067e0: 91000694    	add	x20, x20, #1
1000067e4: f9400768    	ldr	x8, [x27, #8]
1000067e8: eb14011f    	cmp	x8, x20
1000067ec: 54fffe88    	b.hi	0x1000067bc <_barn_filename_action+0xe74>
1000067f0: b40003a8    	cbz	x8, 0x100006864 <_barn_filename_action+0xf1c>
1000067f4: f9400b69    	ldr	x9, [x27, #16]
1000067f8: 8b080d28    	add	x8, x9, x8, lsl #3
1000067fc: f85f8114    	ldur	x20, [x8, #-8]
100006800: 1400001a    	b	0x100006868 <_barn_filename_action+0xf20>
100006804: 350008ab    	cbnz	w11, 0x100006918 <_barn_filename_action+0xfd0>
100006808: 3500088d    	cbnz	w13, 0x100006918 <_barn_filename_action+0xfd0>
10000680c: 3400086c    	cbz	w12, 0x100006918 <_barn_filename_action+0xfd0>
100006810: 71008ddf    	cmp	w14, #35
100006814: 54009de1    	b.ne	0x100007bd0 <_barn_filename_action+0x2288>
100006818: 1100054e    	add	w14, w10, #1
10000681c: b9001f8e    	str	w14, [x28, #28]
100006820: f9400d09    	ldr	x9, [x8, #24]
100006824: b40006a9    	cbz	x9, 0x1000068f8 <_barn_filename_action+0xfb0>
100006828: 5280000c    	mov	w12, #0
10000682c: 93407dca    	sxtw	x10, w14
100006830: f940052d    	ldr	x13, [x9, #8]
100006834: 5280002b    	mov	w11, #1
100006838: eb0a01bf    	cmp	x13, x10
10000683c: 54000669    	b.ls	0x100006908 <_barn_filename_action+0xfc0>
100006840: aa0c03ed    	mov	x13, x12
100006844: 14000022    	b	0x1000068cc <_barn_filename_action+0xf84>
100006848: 5280000b    	mov	w11, #0
10000684c: 5280000c    	mov	w12, #0
100006850: 5280002d    	mov	w13, #1
100006854: 14000030    	b	0x100006914 <_barn_filename_action+0xfcc>
100006858: d2800009    	mov	x9, #0
10000685c: aa0b03ec    	mov	x12, x11
100006860: 1400002d    	b	0x100006914 <_barn_filename_action+0xfcc>
100006864: d2800014    	mov	x20, #0
100006868: aa1303e0    	mov	x0, x19
10000686c: 94000afa    	bl	0x100009454 <_strlen+0x100009454>
100006870: 91000400    	add	x0, x0, #1
100006874: 52800021    	mov	w1, #1
100006878: 94000aca    	bl	0x1000093a0 <_strlen+0x1000093a0>
10000687c: b40080a0    	cbz	x0, 0x100007890 <_barn_filename_action+0x1f48>
100006880: aa0003fc    	mov	x28, x0
100006884: aa1303e1    	mov	x1, x19
100006888: 92800002    	mov	x2, #-1
10000688c: 94000ab6    	bl	0x100009364 <_strlen+0x100009364>
100006890: f900069c    	str	x28, [x20, #8]
100006894: f94017fc    	ldr	x28, [sp, #40]
100006898: b9801f88    	ldrsw	x8, [x28, #28]
10000689c: 9100050a    	add	x10, x8, #1
1000068a0: b9001f8a    	str	w10, [x28, #28]
1000068a4: f9400788    	ldr	x8, [x28, #8]
1000068a8: f9400d09    	ldr	x9, [x8, #24]
1000068ac: b4000189    	cbz	x9, 0x1000068dc <_barn_filename_action+0xf94>
1000068b0: 5280000b    	mov	w11, #0
1000068b4: f940052d    	ldr	x13, [x9, #8]
1000068b8: 5280002c    	mov	w12, #1
1000068bc: eb0a01bf    	cmp	x13, x10
1000068c0: 54000169    	b.ls	0x1000068ec <_barn_filename_action+0xfa4>
1000068c4: aa0a03ee    	mov	x14, x10
1000068c8: aa0b03ed    	mov	x13, x11
1000068cc: f9400929    	ldr	x9, [x9, #16]
1000068d0: f86a7929    	ldr	x9, [x9, x10, lsl  #3]
1000068d4: aa0e03ea    	mov	x10, x14
1000068d8: 1400000f    	b	0x100006914 <_barn_filename_action+0xfcc>
1000068dc: 5280000b    	mov	w11, #0
1000068e0: 5280000d    	mov	w13, #0
1000068e4: 5280002c    	mov	w12, #1
1000068e8: 1400000b    	b	0x100006914 <_barn_filename_action+0xfcc>
1000068ec: d2800009    	mov	x9, #0
1000068f0: aa0b03ed    	mov	x13, x11
1000068f4: 14000008    	b	0x100006914 <_barn_filename_action+0xfcc>
1000068f8: 5280000c    	mov	w12, #0
1000068fc: 5280000d    	mov	w13, #0
100006900: 5280002b    	mov	w11, #1
100006904: 17fffff4    	b	0x1000068d4 <_barn_filename_action+0xf8c>
100006908: d2800009    	mov	x9, #0
10000690c: aa0e03ea    	mov	x10, x14
100006910: aa0c03ed    	mov	x13, x12
100006914: f9000309    	str	x9, [x24]
100006918: 91000739    	add	x25, x25, #1
10000691c: f9400d0e    	ldr	x14, [x8, #24]
100006920: f94005ce    	ldr	x14, [x14, #8]
100006924: eb0e033f    	cmp	x25, x14
100006928: 54ffed83    	b.lo	0x1000066d8 <_barn_filename_action+0xd90>
10000692c: 1400000f    	b	0x100006968 <_barn_filename_action+0x1020>
100006930: aa1903ea    	mov	x10, x25
100006934: 1400000d    	b	0x100006968 <_barn_filename_action+0x1020>
100006938: 1100054b    	add	w11, w10, #1
10000693c: b9001f8b    	str	w11, [x28, #28]
100006940: f9400d09    	ldr	x9, [x8, #24]
100006944: b40000e9    	cbz	x9, 0x100006960 <_barn_filename_action+0x1018>
100006948: 93407d6a    	sxtw	x10, w11
10000694c: f940052c    	ldr	x12, [x9, #8]
100006950: eb0a019f    	cmp	x12, x10
100006954: 54002fc9    	b.ls	0x100006f4c <_barn_filename_action+0x1604>
100006958: f9400929    	ldr	x9, [x9, #16]
10000695c: f86a7929    	ldr	x9, [x9, x10, lsl  #3]
100006960: aa0b03ea    	mov	x10, x11
100006964: f9000309    	str	x9, [x24]
100006968: b940212b    	ldr	w11, [x9, #32]
10000696c: 7100797f    	cmp	w11, #30
100006970: 90000039    	adrp	x25, 0x10000a000 <_barn_filename_action+0x1038>
100006974: 913d6b39    	add	x25, x25, #3930
100006978: 540001c1    	b.ne	0x1000069b0 <_barn_filename_action+0x1068>
10000697c: 11000549    	add	w9, w10, #1
100006980: b9001f89    	str	w9, [x28, #28]
100006984: f9400d08    	ldr	x8, [x8, #24]
100006988: b4000108    	cbz	x8, 0x1000069a8 <_barn_filename_action+0x1060>
10000698c: 93407d29    	sxtw	x9, w9
100006990: f940050a    	ldr	x10, [x8, #8]
100006994: eb09015f    	cmp	x10, x9
100006998: 54000089    	b.ls	0x1000069a8 <_barn_filename_action+0x1060>
10000699c: f9400908    	ldr	x8, [x8, #16]
1000069a0: f8697909    	ldr	x9, [x8, x9, lsl  #3]
1000069a4: 14000002    	b	0x1000069ac <_barn_filename_action+0x1064>
1000069a8: d2800009    	mov	x9, #0
1000069ac: f9000309    	str	x9, [x24]
1000069b0: f9400768    	ldr	x8, [x27, #8]
1000069b4: b40001e8    	cbz	x8, 0x1000069f0 <_barn_filename_action+0x10a8>
1000069b8: d2800013    	mov	x19, #0
1000069bc: f9400b68    	ldr	x8, [x27, #16]
1000069c0: f8737908    	ldr	x8, [x8, x19, lsl  #3]
1000069c4: a9402508    	ldp	x8, x9, [x8]
1000069c8: f9400508    	ldr	x8, [x8, #8]
1000069cc: a900a3e9    	stp	x9, x8, [sp, #8]
1000069d0: f90003f3    	str	x19, [sp]
1000069d4: aa1703e0    	mov	x0, x23
1000069d8: 94000a96    	bl	0x100009430 <_strlen+0x100009430>
1000069dc: 91000673    	add	x19, x19, #1
1000069e0: f9400768    	ldr	x8, [x27, #8]
1000069e4: eb13011f    	cmp	x8, x19
1000069e8: 54fffea8    	b.hi	0x1000069bc <_barn_filename_action+0x1074>
1000069ec: f9400309    	ldr	x9, [x24]
1000069f0: b9402128    	ldr	w8, [x9, #32]
1000069f4: 7100851f    	cmp	w8, #33
1000069f8: 54000060    	b.eq	0x100006a04 <_barn_filename_action+0x10bc>
1000069fc: 71009d1f    	cmp	w8, #39
100006a00: 54007c01    	b.ne	0x100007980 <_barn_filename_action+0x2038>
100006a04: 52800020    	mov	w0, #1
100006a08: 52800301    	mov	w1, #24
100006a0c: 94000a65    	bl	0x1000093a0 <_strlen+0x1000093a0>
100006a10: 528001c8    	mov	w8, #14
100006a14: b9000008    	str	w8, [x0]
100006a18: 52800028    	mov	w8, #1
100006a1c: f9000408    	str	x8, [x0, #8]
100006a20: b900101f    	str	wzr, [x0, #16]
100006a24: 3900501f    	strb	wzr, [x0, #20]
100006a28: 3900581f    	strb	wzr, [x0, #22]
100006a2c: f9400308    	ldr	x8, [x24]
100006a30: b9402109    	ldr	w9, [x8, #32]
100006a34: 71009d3f    	cmp	w9, #39
100006a38: 540001c1    	b.ne	0x100006a70 <_barn_filename_action+0x1128>
100006a3c: f94017f3    	ldr	x19, [sp, #40]
100006a40: b9801e68    	ldrsw	x8, [x19, #28]
100006a44: 91000508    	add	x8, x8, #1
100006a48: b9001e68    	str	w8, [x19, #28]
100006a4c: f9400669    	ldr	x9, [x19, #8]
100006a50: f9400d29    	ldr	x9, [x9, #24]
100006a54: b4000129    	cbz	x9, 0x100006a78 <_barn_filename_action+0x1130>
100006a58: f940052a    	ldr	x10, [x9, #8]
100006a5c: eb08015f    	cmp	x10, x8
100006a60: 540000c9    	b.ls	0x100006a78 <_barn_filename_action+0x1130>
100006a64: f9400929    	ldr	x9, [x9, #16]
100006a68: f8687928    	ldr	x8, [x9, x8, lsl  #3]
100006a6c: 14000004    	b	0x100006a7c <_barn_filename_action+0x1134>
100006a70: aa0003fc    	mov	x28, x0
100006a74: 14000013    	b	0x100006ac0 <_barn_filename_action+0x1178>
100006a78: d2800008    	mov	x8, #0
100006a7c: f9000308    	str	x8, [x24]
100006a80: b9402109    	ldr	w9, [x8, #32]
100006a84: 71001d3f    	cmp	w9, #7
100006a88: 54008b61    	b.ne	0x100007bf4 <_barn_filename_action+0x22ac>
100006a8c: aa1303e0    	mov	x0, x19
100006a90: 94000931    	bl	0x100008f54 <_barn_parser_current_token_type_representation>
100006a94: b4008c20    	cbz	x0, 0x100007c18 <_barn_filename_action+0x22d0>
100006a98: aa0003fc    	mov	x28, x0
100006a9c: b9801e68    	ldrsw	x8, [x19, #28]
100006aa0: 91000508    	add	x8, x8, #1
100006aa4: b9001e68    	str	w8, [x19, #28]
100006aa8: f9400669    	ldr	x9, [x19, #8]
100006aac: f9400d29    	ldr	x9, [x9, #24]
100006ab0: f9400929    	ldr	x9, [x9, #16]
100006ab4: f8687928    	ldr	x8, [x9, x8, lsl  #3]
100006ab8: f9000a68    	str	x8, [x19, #16]
100006abc: b9402109    	ldr	w9, [x8, #32]
100006ac0: 7100853f    	cmp	w9, #33
100006ac4: 540077e1    	b.ne	0x1000079c0 <_barn_filename_action+0x2078>
100006ac8: 52800020    	mov	w0, #1
100006acc: 52800e01    	mov	w1, #112
100006ad0: 94000a34    	bl	0x1000093a0 <_strlen+0x1000093a0>
100006ad4: aa0003f3    	mov	x19, x0
100006ad8: b900001f    	str	wzr, [x0]
100006adc: f900041b    	str	x27, [x0, #8]
100006ae0: a901e81c    	stp	x28, x26, [x0, #24]
100006ae4: 52800100    	mov	w0, #8
100006ae8: 97ffec2f    	bl	0x100001ba4 <_barn_create_array>
100006aec: f9000a60    	str	x0, [x19, #16]
100006af0: f94017fc    	ldr	x28, [sp, #40]
100006af4: f9402788    	ldr	x8, [x28, #72]
100006af8: 91004109    	add	x9, x8, #16
100006afc: f100011f    	cmp	x8, #0
100006b00: 9a890388    	csel	x8, x28, x9, eq
100006b04: f9400114    	ldr	x20, [x8]
100006b08: b4000194    	cbz	x20, 0x100006b38 <_barn_filename_action+0x11f0>
100006b0c: a9408288    	ldp	x8, x0, [x20, #8]
100006b10: d37df108    	lsl	x8, x8, #3
100006b14: 91002101    	add	x1, x8, #8
100006b18: 94000a49    	bl	0x10000943c <_strlen+0x10000943c>
100006b1c: b4006640    	cbz	x0, 0x1000077e4 <_barn_filename_action+0x1e9c>
100006b20: f9000a80    	str	x0, [x20, #16]
100006b24: f9400688    	ldr	x8, [x20, #8]
100006b28: f8287813    	str	x19, [x0, x8, lsl  #3]
100006b2c: f9400688    	ldr	x8, [x20, #8]
100006b30: 91000508    	add	x8, x8, #1
100006b34: f9000688    	str	x8, [x20, #8]
100006b38: f9002793    	str	x19, [x28, #72]
100006b3c: f9401394    	ldr	x20, [x28, #32]
100006b40: b4000194    	cbz	x20, 0x100006b70 <_barn_filename_action+0x1228>
100006b44: a9408288    	ldp	x8, x0, [x20, #8]
100006b48: d37df108    	lsl	x8, x8, #3
100006b4c: 91002101    	add	x1, x8, #8
100006b50: 94000a3b    	bl	0x10000943c <_strlen+0x10000943c>
100006b54: b4006480    	cbz	x0, 0x1000077e4 <_barn_filename_action+0x1e9c>
100006b58: f9000a80    	str	x0, [x20, #16]
100006b5c: f9400688    	ldr	x8, [x20, #8]
100006b60: f8287813    	str	x19, [x0, x8, lsl  #3]
100006b64: f9400688    	ldr	x8, [x20, #8]
100006b68: 91000508    	add	x8, x8, #1
100006b6c: f9000688    	str	x8, [x20, #8]
100006b70: f9400308    	ldr	x8, [x24]
100006b74: f9400100    	ldr	x0, [x8]
100006b78: 90000021    	adrp	x1, 0x10000a000 <_barn_filename_action+0x1240>
100006b7c: 913d7821    	add	x1, x1, #3934
100006b80: 94000a32    	bl	0x100009448 <_strlen+0x100009448>
100006b84: 35000680    	cbnz	w0, 0x100006c54 <_barn_filename_action+0x130c>
100006b88: f9402788    	ldr	x8, [x28, #72]
100006b8c: b40072c8    	cbz	x8, 0x1000079e4 <_barn_filename_action+0x209c>
100006b90: b9801f88    	ldrsw	x8, [x28, #28]
100006b94: 91000508    	add	x8, x8, #1
100006b98: b9001f88    	str	w8, [x28, #28]
100006b9c: f9400789    	ldr	x9, [x28, #8]
100006ba0: f9400d29    	ldr	x9, [x9, #24]
100006ba4: b40000e9    	cbz	x9, 0x100006bc0 <_barn_filename_action+0x1278>
100006ba8: f940052a    	ldr	x10, [x9, #8]
100006bac: eb08015f    	cmp	x10, x8
100006bb0: 54000089    	b.ls	0x100006bc0 <_barn_filename_action+0x1278>
100006bb4: f9400929    	ldr	x9, [x9, #16]
100006bb8: f8687928    	ldr	x8, [x9, x8, lsl  #3]
100006bbc: 14000002    	b	0x100006bc4 <_barn_filename_action+0x127c>
100006bc0: d2800008    	mov	x8, #0
100006bc4: f9000308    	str	x8, [x24]
100006bc8: b9402109    	ldr	w9, [x8, #32]
100006bcc: 7100053f    	cmp	w9, #1
100006bd0: 540071e0    	b.eq	0x100007a0c <_barn_filename_action+0x20c4>
100006bd4: aa1c03e0    	mov	x0, x28
100006bd8: 52800041    	mov	w1, #2
100006bdc: 52800002    	mov	w2, #0
100006be0: 52800003    	mov	w3, #0
100006be4: 97fff0b5    	bl	0x100002eb8 <_barn_parse_expression>
100006be8: aa0003fa    	mov	x26, x0
100006bec: 52800020    	mov	w0, #1
100006bf0: 52800e01    	mov	w1, #112
100006bf4: 940009eb    	bl	0x1000093a0 <_strlen+0x1000093a0>
100006bf8: 52800028    	mov	w8, #1
100006bfc: b9000008    	str	w8, [x0]
100006c00: f900141a    	str	x26, [x0, #40]
100006c04: f9402788    	ldr	x8, [x28, #72]
100006c08: f9001808    	str	x8, [x0, #48]
100006c0c: f9402788    	ldr	x8, [x28, #72]
100006c10: 91004109    	add	x9, x8, #16
100006c14: f100011f    	cmp	x8, #0
100006c18: 9a890388    	csel	x8, x28, x9, eq
100006c1c: f9400114    	ldr	x20, [x8]
100006c20: b40001b4    	cbz	x20, 0x100006c54 <_barn_filename_action+0x130c>
100006c24: aa0003f3    	mov	x19, x0
100006c28: a9408288    	ldp	x8, x0, [x20, #8]
100006c2c: d37df108    	lsl	x8, x8, #3
100006c30: 91002101    	add	x1, x8, #8
100006c34: 94000a02    	bl	0x10000943c <_strlen+0x10000943c>
100006c38: b4005d60    	cbz	x0, 0x1000077e4 <_barn_filename_action+0x1e9c>
100006c3c: f9000a80    	str	x0, [x20, #16]
100006c40: f9400688    	ldr	x8, [x20, #8]
100006c44: f8287813    	str	x19, [x0, x8, lsl  #3]
100006c48: f9400688    	ldr	x8, [x20, #8]
100006c4c: 91000508    	add	x8, x8, #1
100006c50: f9000688    	str	x8, [x20, #8]
100006c54: f9400308    	ldr	x8, [x24]
100006c58: f9400100    	ldr	x0, [x8]
100006c5c: 90000021    	adrp	x1, 0x10000a000 <_barn_filename_action+0x1324>
100006c60: 913d9421    	add	x1, x1, #3941
100006c64: 940009f9    	bl	0x100009448 <_strlen+0x100009448>
100006c68: 35ffbc80    	cbnz	w0, 0x1000063f8 <_barn_filename_action+0xab0>
100006c6c: aa1c03e0    	mov	x0, x28
100006c70: 528000e1    	mov	w1, #7
100006c74: 94000558    	bl	0x1000081d4 <_barn_parser_is_next_token>
100006c78: 36005f80    	tbz	w0, #0, 0x100007868 <_barn_filename_action+0x1f20>
100006c7c: b9801f88    	ldrsw	x8, [x28, #28]
100006c80: 91000508    	add	x8, x8, #1
100006c84: b9001f88    	str	w8, [x28, #28]
100006c88: f9400789    	ldr	x9, [x28, #8]
100006c8c: f9400d29    	ldr	x9, [x9, #24]
100006c90: f9400929    	ldr	x9, [x9, #16]
100006c94: f8687928    	ldr	x8, [x9, x8, lsl  #3]
100006c98: f9000b88    	str	x8, [x28, #16]
100006c9c: b9402109    	ldr	w9, [x8, #32]
100006ca0: 7100053f    	cmp	w9, #1
100006ca4: 54000061    	b.ne	0x100006cb0 <_barn_filename_action+0x1368>
100006ca8: d2800013    	mov	x19, #0
100006cac: 14000024    	b	0x100006d3c <_barn_filename_action+0x13f4>
100006cb0: f940011a    	ldr	x26, [x8]
100006cb4: aa1a03e0    	mov	x0, x26
100006cb8: 940009e7    	bl	0x100009454 <_strlen+0x100009454>
100006cbc: 91000400    	add	x0, x0, #1
100006cc0: 52800021    	mov	w1, #1
100006cc4: 940009b7    	bl	0x1000093a0 <_strlen+0x1000093a0>
100006cc8: b4005e40    	cbz	x0, 0x100007890 <_barn_filename_action+0x1f48>
100006ccc: aa0003f3    	mov	x19, x0
100006cd0: aa1a03e1    	mov	x1, x26
100006cd4: 92800002    	mov	x2, #-1
100006cd8: 940009a3    	bl	0x100009364 <_strlen+0x100009364>
100006cdc: aa1303e0    	mov	x0, x19
100006ce0: 94000572    	bl	0x1000082a8 <_barn_parser_is_id_keyword>
100006ce4: 35007b60    	cbnz	w0, 0x100007c50 <_barn_filename_action+0x2308>
100006ce8: f9401388    	ldr	x8, [x28, #32]
100006cec: f9400509    	ldr	x9, [x8, #8]
100006cf0: b4000269    	cbz	x9, 0x100006d3c <_barn_filename_action+0x13f4>
100006cf4: d2800014    	mov	x20, #0
100006cf8: eb14013f    	cmp	x9, x20
100006cfc: 54000089    	b.ls	0x100006d0c <_barn_filename_action+0x13c4>
100006d00: f9400908    	ldr	x8, [x8, #16]
100006d04: f8747908    	ldr	x8, [x8, x20, lsl  #3]
100006d08: 14000002    	b	0x100006d10 <_barn_filename_action+0x13c8>
100006d0c: d2800008    	mov	x8, #0
100006d10: b9400109    	ldr	w9, [x8]
100006d14: 35004fa9    	cbnz	w9, 0x100007708 <_barn_filename_action+0x1dc0>
100006d18: f9401100    	ldr	x0, [x8, #32]
100006d1c: aa1303e1    	mov	x1, x19
100006d20: 940009ca    	bl	0x100009448 <_strlen+0x100009448>
100006d24: 340054c0    	cbz	w0, 0x1000077bc <_barn_filename_action+0x1e74>
100006d28: 91000694    	add	x20, x20, #1
100006d2c: f9401388    	ldr	x8, [x28, #32]
100006d30: f9400509    	ldr	x9, [x8, #8]
100006d34: eb14013f    	cmp	x9, x20
100006d38: 54fffe08    	b.hi	0x100006cf8 <_barn_filename_action+0x13b0>
100006d3c: aa1c03e0    	mov	x0, x28
100006d40: aa1303e1    	mov	x1, x19
100006d44: 9400094e    	bl	0x10000927c <_barn_parser_is_variable_defined_lg>
100006d48: 35006740    	cbnz	w0, 0x100007a30 <_barn_filename_action+0x20e8>
100006d4c: aa1c03e0    	mov	x0, x28
100006d50: 52800481    	mov	w1, #36
100006d54: 94000520    	bl	0x1000081d4 <_barn_parser_is_next_token>
100006d58: 36006800    	tbz	w0, #0, 0x100007a58 <_barn_filename_action+0x2110>
100006d5c: b9801f88    	ldrsw	x8, [x28, #28]
100006d60: 91000508    	add	x8, x8, #1
100006d64: b9001f88    	str	w8, [x28, #28]
100006d68: f9400789    	ldr	x9, [x28, #8]
100006d6c: f9400d29    	ldr	x9, [x9, #24]
100006d70: b40000e9    	cbz	x9, 0x100006d8c <_barn_filename_action+0x1444>
100006d74: f940052a    	ldr	x10, [x9, #8]
100006d78: eb08015f    	cmp	x10, x8
100006d7c: 54000089    	b.ls	0x100006d8c <_barn_filename_action+0x1444>
100006d80: f9400929    	ldr	x9, [x9, #16]
100006d84: f8687928    	ldr	x8, [x9, x8, lsl  #3]
100006d88: 14000002    	b	0x100006d90 <_barn_filename_action+0x1448>
100006d8c: d2800008    	mov	x8, #0
100006d90: f9000b88    	str	x8, [x28, #16]
100006d94: aa1c03e0    	mov	x0, x28
100006d98: 528000e1    	mov	w1, #7
100006d9c: 9400050e    	bl	0x1000081d4 <_barn_parser_is_next_token>
100006da0: 36006700    	tbz	w0, #0, 0x100007a80 <_barn_filename_action+0x2138>
100006da4: b9801f88    	ldrsw	x8, [x28, #28]
100006da8: 91000508    	add	x8, x8, #1
100006dac: b9001f88    	str	w8, [x28, #28]
100006db0: f9400789    	ldr	x9, [x28, #8]
100006db4: f9400d29    	ldr	x9, [x9, #24]
100006db8: b40000e9    	cbz	x9, 0x100006dd4 <_barn_filename_action+0x148c>
100006dbc: f940052a    	ldr	x10, [x9, #8]
100006dc0: eb08015f    	cmp	x10, x8
100006dc4: 54000089    	b.ls	0x100006dd4 <_barn_filename_action+0x148c>
100006dc8: f9400929    	ldr	x9, [x9, #16]
100006dcc: f8687928    	ldr	x8, [x9, x8, lsl  #3]
100006dd0: 14000002    	b	0x100006dd8 <_barn_filename_action+0x1490>
100006dd4: d2800008    	mov	x8, #0
100006dd8: f9000b88    	str	x8, [x28, #16]
100006ddc: aa1c03e0    	mov	x0, x28
100006de0: 9400085d    	bl	0x100008f54 <_barn_parser_current_token_type_representation>
100006de4: b4006620    	cbz	x0, 0x100007aa8 <_barn_filename_action+0x2160>
100006de8: aa0003fb    	mov	x27, x0
100006dec: b0000020    	adrp	x0, 0x10000b000 <_barn_filename_action+0x14b8>
100006df0: 911fcc00    	add	x0, x0, #2035
100006df4: 9400098f    	bl	0x100009430 <_strlen+0x100009430>
100006df8: aa1c03e0    	mov	x0, x28
100006dfc: 52800301    	mov	w1, #24
100006e00: 940004f5    	bl	0x1000081d4 <_barn_parser_is_next_token>
100006e04: 36006660    	tbz	w0, #0, 0x100007ad0 <_barn_filename_action+0x2188>
100006e08: b9801f88    	ldrsw	x8, [x28, #28]
100006e0c: 91000908    	add	x8, x8, #2
100006e10: b9001f88    	str	w8, [x28, #28]
100006e14: f9400789    	ldr	x9, [x28, #8]
100006e18: f9400d29    	ldr	x9, [x9, #24]
100006e1c: b40000e9    	cbz	x9, 0x100006e38 <_barn_filename_action+0x14f0>
100006e20: f940052a    	ldr	x10, [x9, #8]
100006e24: eb08015f    	cmp	x10, x8
100006e28: 54000089    	b.ls	0x100006e38 <_barn_filename_action+0x14f0>
100006e2c: f9400929    	ldr	x9, [x9, #16]
100006e30: f8687928    	ldr	x8, [x9, x8, lsl  #3]
100006e34: 14000002    	b	0x100006e3c <_barn_filename_action+0x14f4>
100006e38: d2800008    	mov	x8, #0
100006e3c: f9000b88    	str	x8, [x28, #16]
100006e40: aa1c03e0    	mov	x0, x28
100006e44: 52800041    	mov	w1, #2
100006e48: 528004c2    	mov	w2, #38
100006e4c: 52800023    	mov	w3, #1
100006e50: 97fff01a    	bl	0x100002eb8 <_barn_parse_expression>
100006e54: aa0003fc    	mov	x28, x0
100006e58: 52800020    	mov	w0, #1
100006e5c: 52800301    	mov	w1, #24
100006e60: 94000950    	bl	0x1000093a0 <_strlen+0x1000093a0>
100006e64: aa0003fa    	mov	x26, x0
100006e68: 7900001f    	strh	wzr, [x0]
100006e6c: a900cc1b    	stp	x27, x19, [x0, #8]
100006e70: 39400268    	ldrb	w8, [x19]
100006e74: 71017d1f    	cmp	w8, #95
100006e78: 54000061    	b.ne	0x100006e84 <_barn_filename_action+0x153c>
100006e7c: 52800028    	mov	w8, #1
100006e80: 39000748    	strb	w8, [x26, #1]
100006e84: b0000020    	adrp	x0, 0x10000b000 <_barn_filename_action+0x1550>
100006e88: 91209400    	add	x0, x0, #2085
100006e8c: 94000969    	bl	0x100009430 <_strlen+0x100009430>
100006e90: 52800020    	mov	w0, #1
100006e94: 52800e01    	mov	w1, #112
100006e98: 94000942    	bl	0x1000093a0 <_strlen+0x1000093a0>
100006e9c: 52800068    	mov	w8, #3
100006ea0: b9000008    	str	w8, [x0]
100006ea4: a903e81c    	stp	x28, x26, [x0, #56]
100006ea8: f94017fc    	ldr	x28, [sp, #40]
100006eac: f9402788    	ldr	x8, [x28, #72]
100006eb0: 91004109    	add	x9, x8, #16
100006eb4: f100011f    	cmp	x8, #0
100006eb8: 9a890388    	csel	x8, x28, x9, eq
100006ebc: f9400114    	ldr	x20, [x8]
100006ec0: b40001b4    	cbz	x20, 0x100006ef4 <_barn_filename_action+0x15ac>
100006ec4: aa0003f3    	mov	x19, x0
100006ec8: a9408288    	ldp	x8, x0, [x20, #8]
100006ecc: d37df108    	lsl	x8, x8, #3
100006ed0: 91002101    	add	x1, x8, #8
100006ed4: 9400095a    	bl	0x10000943c <_strlen+0x10000943c>
100006ed8: b4004860    	cbz	x0, 0x1000077e4 <_barn_filename_action+0x1e9c>
100006edc: f9000a80    	str	x0, [x20, #16]
100006ee0: f9400688    	ldr	x8, [x20, #8]
100006ee4: f8287813    	str	x19, [x0, x8, lsl  #3]
100006ee8: f9400688    	ldr	x8, [x20, #8]
100006eec: 91000508    	add	x8, x8, #1
100006ef0: f9000688    	str	x8, [x20, #8]
100006ef4: b0000020    	adrp	x0, 0x10000b000 <_barn_filename_action+0x15c0>
100006ef8: 9120a800    	add	x0, x0, #2090
100006efc: 9400094d    	bl	0x100009430 <_strlen+0x100009430>
100006f00: f9402788    	ldr	x8, [x28, #72]
100006f04: f100011f    	cmp	x8, #0
100006f08: 52800508    	mov	w8, #40
100006f0c: 52800609    	mov	w9, #48
100006f10: 9a880128    	csel	x8, x9, x8, eq
100006f14: f8686b93    	ldr	x19, [x28, x8]
100006f18: b4ffa713    	cbz	x19, 0x1000063f8 <_barn_filename_action+0xab0>
100006f1c: a9408268    	ldp	x8, x0, [x19, #8]
100006f20: d37df108    	lsl	x8, x8, #3
100006f24: 91002101    	add	x1, x8, #8
100006f28: 94000945    	bl	0x10000943c <_strlen+0x10000943c>
100006f2c: b40045c0    	cbz	x0, 0x1000077e4 <_barn_filename_action+0x1e9c>
100006f30: f9000a60    	str	x0, [x19, #16]
100006f34: f9400668    	ldr	x8, [x19, #8]
100006f38: f828781a    	str	x26, [x0, x8, lsl  #3]
100006f3c: f9400668    	ldr	x8, [x19, #8]
100006f40: 91000508    	add	x8, x8, #1
100006f44: f9000668    	str	x8, [x19, #8]
100006f48: 17fffd2c    	b	0x1000063f8 <_barn_filename_action+0xab0>
100006f4c: d2800009    	mov	x9, #0
100006f50: aa0b03ea    	mov	x10, x11
100006f54: f900031f    	str	xzr, [x24]
100006f58: 17fffe84    	b	0x100006968 <_barn_filename_action+0x1020>
100006f5c: b0000020    	adrp	x0, 0x10000b000 <_barn_filename_action+0x1628>
100006f60: 91015000    	add	x0, x0, #84
100006f64: 94000933    	bl	0x100009430 <_strlen+0x100009430>
100006f68: f9400388    	ldr	x8, [x28]
100006f6c: f9400509    	ldr	x9, [x8, #8]
100006f70: b4000f49    	cbz	x9, 0x100007158 <_barn_filename_action+0x1810>
100006f74: d2800014    	mov	x20, #0
100006f78: d000003b    	adrp	x27, 0x10000c000 <_barn_filename_action+0x1648>
100006f7c: 9106c37b    	add	x27, x27, #432
100006f80: 90000033    	adrp	x19, 0x10000a000 <_barn_filename_action+0x1648>
100006f84: 913ee273    	add	x19, x19, #4024
100006f88: d0000035    	adrp	x21, 0x10000c000 <_barn_filename_action+0x1658>
100006f8c: 910c82b5    	add	x21, x21, #800
100006f90: 90000036    	adrp	x22, 0x10000a000 <_barn_filename_action+0x1658>
100006f94: 913f72d6    	add	x22, x22, #4060
100006f98: b0000037    	adrp	x23, 0x10000b000 <_barn_filename_action+0x1664>
100006f9c: 910146f7    	add	x23, x23, #81
100006fa0: f0000019    	adrp	x25, 0x100009000 <_barn_filename_action+0x1664>
100006fa4: 912ce339    	add	x25, x25, #2872
100006fa8: 14000009    	b	0x100006fcc <_barn_filename_action+0x1684>
100006fac: aa1703e0    	mov	x0, x23
100006fb0: 94000920    	bl	0x100009430 <_strlen+0x100009430>
100006fb4: f94017fc    	ldr	x28, [sp, #40]
100006fb8: 91000694    	add	x20, x20, #1
100006fbc: f9400388    	ldr	x8, [x28]
100006fc0: f9400509    	ldr	x9, [x8, #8]
100006fc4: eb14013f    	cmp	x9, x20
100006fc8: 54000c89    	b.ls	0x100007158 <_barn_filename_action+0x1810>
100006fcc: eb14013f    	cmp	x9, x20
100006fd0: 54000089    	b.ls	0x100006fe0 <_barn_filename_action+0x1698>
100006fd4: f9400908    	ldr	x8, [x8, #16]
100006fd8: f8747918    	ldr	x24, [x8, x20, lsl  #3]
100006fdc: 14000002    	b	0x100006fe4 <_barn_filename_action+0x169c>
100006fe0: d2800018    	mov	x24, #0
100006fe4: b9400308    	ldr	w8, [x24]
100006fe8: 7100151f    	cmp	w8, #5
100006fec: 540035e2    	b.hs	0x1000076a8 <_barn_filename_action+0x1d60>
100006ff0: f8687b68    	ldr	x8, [x27, x8, lsl  #3]
100006ff4: a90023f4    	stp	x20, x8, [sp]
100006ff8: aa1303e0    	mov	x0, x19
100006ffc: 9400090d    	bl	0x100009430 <_strlen+0x100009430>
100007000: b9400308    	ldr	w8, [x24]
100007004: 34000088    	cbz	w8, 0x100007014 <_barn_filename_action+0x16cc>
100007008: 71000d1f    	cmp	w8, #3
10000700c: 54000160    	b.eq	0x100007038 <_barn_filename_action+0x16f0>
100007010: 14000017    	b	0x10000706c <_barn_filename_action+0x1724>
100007014: f9401308    	ldr	x8, [x24, #32]
100007018: f9400b09    	ldr	x9, [x24, #16]
10000701c: a90027e8    	stp	x8, x9, [sp]
100007020: 90000020    	adrp	x0, 0x10000b000 <_barn_filename_action+0x16e8>
100007024: 91019400    	add	x0, x0, #101
100007028: 94000902    	bl	0x100009430 <_strlen+0x100009430>
10000702c: b9400308    	ldr	w8, [x24]
100007030: 71000d1f    	cmp	w8, #3
100007034: 540001c1    	b.ne	0x10000706c <_barn_filename_action+0x1724>
100007038: f9402308    	ldr	x8, [x24, #64]
10000703c: f9400509    	ldr	x9, [x8, #8]
100007040: b9400129    	ldr	w9, [x9]
100007044: 71003d3f    	cmp	w9, #15
100007048: 54003422    	b.hs	0x1000076cc <_barn_filename_action+0x1d84>
10000704c: 528bffea    	mov	w10, #24575
100007050: 1ac9254a    	lsr	w10, w10, w9
100007054: 360033ca    	tbz	w10, #0, 0x1000076cc <_barn_filename_action+0x1d84>
100007058: f9400908    	ldr	x8, [x8, #16]
10000705c: f8697aa9    	ldr	x9, [x21, x9, lsl  #3]
100007060: a90027e8    	stp	x8, x9, [sp]
100007064: aa1603e0    	mov	x0, x22
100007068: 940008f2    	bl	0x100009430 <_strlen+0x100009430>
10000706c: aa1703e0    	mov	x0, x23
100007070: 940008f0    	bl	0x100009430 <_strlen+0x100009430>
100007074: b9400308    	ldr	w8, [x24]
100007078: 35fffa08    	cbnz	w8, 0x100006fb8 <_barn_filename_action+0x1670>
10000707c: 90000020    	adrp	x0, 0x10000b000 <_barn_filename_action+0x1744>
100007080: 9102a400    	add	x0, x0, #169
100007084: 940008eb    	bl	0x100009430 <_strlen+0x100009430>
100007088: f9400b18    	ldr	x24, [x24, #16]
10000708c: f9400708    	ldr	x8, [x24, #8]
100007090: b4fff8e8    	cbz	x8, 0x100006fac <_barn_filename_action+0x1664>
100007094: d280001a    	mov	x26, #0
100007098: 14000007    	b	0x1000070b4 <_barn_filename_action+0x176c>
10000709c: aa1703e0    	mov	x0, x23
1000070a0: 940008e4    	bl	0x100009430 <_strlen+0x100009430>
1000070a4: 9100075a    	add	x26, x26, #1
1000070a8: f9400708    	ldr	x8, [x24, #8]
1000070ac: eb1a011f    	cmp	x8, x26
1000070b0: 54fff7e9    	b.ls	0x100006fac <_barn_filename_action+0x1664>
1000070b4: eb1a011f    	cmp	x8, x26
1000070b8: 54000089    	b.ls	0x1000070c8 <_barn_filename_action+0x1780>
1000070bc: f9400b08    	ldr	x8, [x24, #16]
1000070c0: f87a791c    	ldr	x28, [x8, x26, lsl  #3]
1000070c4: 14000002    	b	0x1000070cc <_barn_filename_action+0x1784>
1000070c8: d280001c    	mov	x28, #0
1000070cc: aa1903e0    	mov	x0, x25
1000070d0: 940008d8    	bl	0x100009430 <_strlen+0x100009430>
1000070d4: b9400388    	ldr	w8, [x28]
1000070d8: 7100151f    	cmp	w8, #5
1000070dc: 54002e62    	b.hs	0x1000076a8 <_barn_filename_action+0x1d60>
1000070e0: f8687b68    	ldr	x8, [x27, x8, lsl  #3]
1000070e4: a90023fa    	stp	x26, x8, [sp]
1000070e8: aa1303e0    	mov	x0, x19
1000070ec: 940008d1    	bl	0x100009430 <_strlen+0x100009430>
1000070f0: b9400388    	ldr	w8, [x28]
1000070f4: 71000d1f    	cmp	w8, #3
1000070f8: 540001e1    	b.ne	0x100007134 <_barn_filename_action+0x17ec>
1000070fc: f9402388    	ldr	x8, [x28, #64]
100007100: f9400509    	ldr	x9, [x8, #8]
100007104: b9400129    	ldr	w9, [x9]
100007108: 71003d3f    	cmp	w9, #15
10000710c: 54002e02    	b.hs	0x1000076cc <_barn_filename_action+0x1d84>
100007110: 528bffea    	mov	w10, #24575
100007114: 1ac9254a    	lsr	w10, w10, w9
100007118: 36002daa    	tbz	w10, #0, 0x1000076cc <_barn_filename_action+0x1d84>
10000711c: f9400908    	ldr	x8, [x8, #16]
100007120: f8697aa9    	ldr	x9, [x21, x9, lsl  #3]
100007124: a90027e8    	stp	x8, x9, [sp]
100007128: aa1603e0    	mov	x0, x22
10000712c: 940008c1    	bl	0x100009430 <_strlen+0x100009430>
100007130: b9400388    	ldr	w8, [x28]
100007134: 7100091f    	cmp	w8, #2
100007138: 54fffb21    	b.ne	0x10000709c <_barn_filename_action+0x1754>
10000713c: a945a389    	ldp	x9, x8, [x28, #88]
100007140: f9400529    	ldr	x9, [x9, #8]
100007144: a90027e8    	stp	x8, x9, [sp]
100007148: 90000020    	adrp	x0, 0x10000b000 <_barn_filename_action+0x1810>
10000714c: 91005c00    	add	x0, x0, #23
100007150: 940008b8    	bl	0x100009430 <_strlen+0x100009430>
100007154: 17ffffd2    	b	0x10000709c <_barn_filename_action+0x1754>
100007158: d0000013    	adrp	x19, 0x100009000 <_barn_filename_action+0x1818>
10000715c: 912d1673    	add	x19, x19, #2885
100007160: aa1303e0    	mov	x0, x19
100007164: 940008b3    	bl	0x100009430 <_strlen+0x100009430>
100007168: 52800c48    	mov	w8, #98
10000716c: f0000014    	adrp	x20, 0x10000a000 <_barn_filename_action+0x1830>
100007170: 912bca94    	add	x20, x20, #2802
100007174: a90023f4    	stp	x20, x8, [sp]
100007178: d0000015    	adrp	x21, 0x100009000 <_barn_filename_action+0x1838>
10000717c: 912ceab5    	add	x21, x21, #2874
100007180: aa1503e0    	mov	x0, x21
100007184: 940008ab    	bl	0x100009430 <_strlen+0x100009430>
100007188: f0000008    	adrp	x8, 0x10000a000 <_barn_filename_action+0x184c>
10000718c: 912e1108    	add	x8, x8, #2948
100007190: f90003e8    	str	x8, [sp]
100007194: 90000036    	adrp	x22, 0x10000b000 <_barn_filename_action+0x185c>
100007198: 911b02d6    	add	x22, x22, #1728
10000719c: aa1603e0    	mov	x0, x22
1000071a0: 940008a4    	bl	0x100009430 <_strlen+0x100009430>
1000071a4: 52800020    	mov	w0, #1
1000071a8: 52800401    	mov	w1, #32
1000071ac: 9400087d    	bl	0x1000093a0 <_strlen+0x1000093a0>
1000071b0: f900081f    	str	xzr, [x0, #16]
1000071b4: f9400388    	ldr	x8, [x28]
1000071b8: b900181f    	str	wzr, [x0, #24]
1000071bc: a9007008    	stp	x8, x28, [x0]
1000071c0: aa1c03e1    	mov	x1, x28
1000071c4: 940006cb    	bl	0x100008cf0 <_barn_type_checker_main_loop>
1000071c8: aa1303e0    	mov	x0, x19
1000071cc: 94000899    	bl	0x100009430 <_strlen+0x100009430>
1000071d0: 52800cc8    	mov	w8, #102
1000071d4: a90023f4    	stp	x20, x8, [sp]
1000071d8: aa1503e0    	mov	x0, x21
1000071dc: 94000895    	bl	0x100009430 <_strlen+0x100009430>
1000071e0: f0000008    	adrp	x8, 0x10000a000 <_barn_filename_action+0x18a4>
1000071e4: 912e4908    	add	x8, x8, #2962
1000071e8: f90003e8    	str	x8, [sp]
1000071ec: aa1603e0    	mov	x0, x22
1000071f0: 94000890    	bl	0x100009430 <_strlen+0x100009430>
1000071f4: 52800020    	mov	w0, #1
1000071f8: 52800401    	mov	w1, #32
1000071fc: 94000869    	bl	0x1000093a0 <_strlen+0x1000093a0>
100007200: b4004ac0    	cbz	x0, 0x100007b58 <_barn_filename_action+0x2210>
100007204: aa0003f5    	mov	x21, x0
100007208: f900001c    	str	x28, [x0]
10000720c: b900141f    	str	wzr, [x0, #20]
100007210: d0000000    	adrp	x0, 0x100009000 <_barn_filename_action+0x18d0>
100007214: 91226800    	add	x0, x0, #2202
100007218: d0000001    	adrp	x1, 0x100009000 <_barn_filename_action+0x18d8>
10000721c: 91228421    	add	x1, x1, #2209
100007220: 9400086c    	bl	0x1000093d0 <_strlen+0x1000093d0>
100007224: f9000ea0    	str	x0, [x21, #24]
100007228: d0000013    	adrp	x19, 0x100009000 <_barn_filename_action+0x18e8>
10000722c: 91229273    	add	x19, x19, #2212
100007230: aa1303e1    	mov	x1, x19
100007234: 9400086a    	bl	0x1000093dc <_strlen+0x1000093dc>
100007238: f9400eb6    	ldr	x22, [x21, #24]
10000723c: 9400046f    	bl	0x1000083f8 <_barn_std_get_path>
100007240: f90003e0    	str	x0, [sp]
100007244: d0000017    	adrp	x23, 0x100009000 <_barn_filename_action+0x1904>
100007248: 913066f7    	add	x23, x23, #3097
10000724c: aa1603e0    	mov	x0, x22
100007250: aa1703e1    	mov	x1, x23
100007254: 94000862    	bl	0x1000093dc <_strlen+0x1000093dc>
100007258: f9400ea0    	ldr	x0, [x21, #24]
10000725c: d0000008    	adrp	x8, 0x100009000 <_barn_filename_action+0x191c>
100007260: 9129ad08    	add	x8, x8, #2667
100007264: f90003e8    	str	x8, [sp]
100007268: aa1703e1    	mov	x1, x23
10000726c: 9400085c    	bl	0x1000093dc <_strlen+0x1000093dc>
100007270: f9400ea0    	ldr	x0, [x21, #24]
100007274: d0000016    	adrp	x22, 0x100009000 <_barn_filename_action+0x1934>
100007278: 9122bed6    	add	x22, x22, #2223
10000727c: aa1603e1    	mov	x1, x22
100007280: 94000857    	bl	0x1000093dc <_strlen+0x1000093dc>
100007284: f9400ea0    	ldr	x0, [x21, #24]
100007288: aa1303e1    	mov	x1, x19
10000728c: 94000854    	bl	0x1000093dc <_strlen+0x1000093dc>
100007290: f9400eb3    	ldr	x19, [x21, #24]
100007294: 94000459    	bl	0x1000083f8 <_barn_std_get_path>
100007298: f90003e0    	str	x0, [sp]
10000729c: aa1303e0    	mov	x0, x19
1000072a0: aa1703e1    	mov	x1, x23
1000072a4: 9400084e    	bl	0x1000093dc <_strlen+0x1000093dc>
1000072a8: f9400ea0    	ldr	x0, [x21, #24]
1000072ac: d0000008    	adrp	x8, 0x100009000 <_barn_filename_action+0x196c>
1000072b0: 9129fd08    	add	x8, x8, #2687
1000072b4: f90003e8    	str	x8, [sp]
1000072b8: aa1703e1    	mov	x1, x23
1000072bc: 94000848    	bl	0x1000093dc <_strlen+0x1000093dc>
1000072c0: f9400ea0    	ldr	x0, [x21, #24]
1000072c4: aa1603e1    	mov	x1, x22
1000072c8: 94000845    	bl	0x1000093dc <_strlen+0x1000093dc>
1000072cc: b90012bf    	str	wzr, [x21, #16]
1000072d0: f9400388    	ldr	x8, [x28]
1000072d4: f9400508    	ldr	x8, [x8, #8]
1000072d8: b4001808    	cbz	x8, 0x1000075d8 <_barn_filename_action+0x1c90>
1000072dc: d2800009    	mov	x9, #0
1000072e0: 52800008    	mov	w8, #0
1000072e4: 528bdffc    	mov	w28, #24319
1000072e8: b0000033    	adrp	x19, 0x10000c000 <_barn_filename_action+0x19b4>
1000072ec: 91038273    	add	x19, x19, #224
1000072f0: d0000019    	adrp	x25, 0x100009000 <_barn_filename_action+0x19b0>
1000072f4: 91306739    	add	x25, x25, #3097
1000072f8: d0000017    	adrp	x23, 0x100009000 <_barn_filename_action+0x19b8>
1000072fc: 912966f7    	add	x23, x23, #2649
100007300: d0000014    	adrp	x20, 0x100009000 <_barn_filename_action+0x19c0>
100007304: 91294e94    	add	x20, x20, #2643
100007308: 14000010    	b	0x100007348 <_barn_filename_action+0x1a00>
10000730c: f9400ea0    	ldr	x0, [x21, #24]
100007310: d0000001    	adrp	x1, 0x100009000 <_barn_filename_action+0x19d0>
100007314: 91299821    	add	x1, x1, #2662
100007318: 94000831    	bl	0x1000093dc <_strlen+0x1000093dc>
10000731c: 294226a8    	ldp	w8, w9, [x21, #16]
100007320: 51000529    	sub	w9, w9, #1
100007324: b90016a9    	str	w9, [x21, #20]
100007328: 11000508    	add	w8, w8, #1
10000732c: b90012a8    	str	w8, [x21, #16]
100007330: 93407d09    	sxtw	x9, w8
100007334: f94017ea    	ldr	x10, [sp, #40]
100007338: f940014a    	ldr	x10, [x10]
10000733c: f940054a    	ldr	x10, [x10, #8]
100007340: eb09015f    	cmp	x10, x9
100007344: 540014a9    	b.ls	0x1000075d8 <_barn_filename_action+0x1c90>
100007348: b90012a8    	str	w8, [x21, #16]
10000734c: f94002aa    	ldr	x10, [x21]
100007350: f940014a    	ldr	x10, [x10]
100007354: b40000ea    	cbz	x10, 0x100007370 <_barn_filename_action+0x1a28>
100007358: f940054b    	ldr	x11, [x10, #8]
10000735c: eb09017f    	cmp	x11, x9
100007360: 54000089    	b.ls	0x100007370 <_barn_filename_action+0x1a28>
100007364: f940094a    	ldr	x10, [x10, #16]
100007368: f869795b    	ldr	x27, [x10, x9, lsl  #3]
10000736c: 14000002    	b	0x100007374 <_barn_filename_action+0x1a2c>
100007370: d280001b    	mov	x27, #0
100007374: f90006bb    	str	x27, [x21, #8]
100007378: b9400369    	ldr	w9, [x27]
10000737c: 35fffd69    	cbnz	w9, 0x100007328 <_barn_filename_action+0x19e0>
100007380: f9400f68    	ldr	x8, [x27, #24]
100007384: b9400108    	ldr	w8, [x8]
100007388: 71003d1f    	cmp	w8, #15
10000738c: 540017c2    	b.hs	0x100007684 <_barn_filename_action+0x1d3c>
100007390: 1ac82789    	lsr	w9, w28, w8
100007394: 36001789    	tbz	w9, #0, 0x100007684 <_barn_filename_action+0x1d3c>
100007398: f9400ea0    	ldr	x0, [x21, #24]
10000739c: f8687a68    	ldr	x8, [x19, x8, lsl  #3]
1000073a0: f9401369    	ldr	x9, [x27, #32]
1000073a4: a90027e8    	stp	x8, x9, [sp]
1000073a8: d0000001    	adrp	x1, 0x100009000 <_barn_filename_action+0x1a68>
1000073ac: 9128e821    	add	x1, x1, #2618
1000073b0: 9400080b    	bl	0x1000093dc <_strlen+0x1000093dc>
1000073b4: f9400769    	ldr	x9, [x27, #8]
1000073b8: f9400528    	ldr	x8, [x9, #8]
1000073bc: b4000348    	cbz	x8, 0x100007424 <_barn_filename_action+0x1adc>
1000073c0: d2800016    	mov	x22, #0
1000073c4: eb16011f    	cmp	x8, x22
1000073c8: 54000089    	b.ls	0x1000073d8 <_barn_filename_action+0x1a90>
1000073cc: f9400929    	ldr	x9, [x9, #16]
1000073d0: f8767929    	ldr	x9, [x9, x22, lsl  #3]
1000073d4: 14000002    	b	0x1000073dc <_barn_filename_action+0x1a94>
1000073d8: d2800009    	mov	x9, #0
1000073dc: f940012a    	ldr	x10, [x9]
1000073e0: b940014a    	ldr	w10, [x10]
1000073e4: 71003d5f    	cmp	w10, #15
1000073e8: 540014e2    	b.hs	0x100007684 <_barn_filename_action+0x1d3c>
1000073ec: 1aca278b    	lsr	w11, w28, w10
1000073f0: 360014ab    	tbz	w11, #0, 0x100007684 <_barn_filename_action+0x1d3c>
1000073f4: f86a7a6a    	ldr	x10, [x19, x10, lsl  #3]
1000073f8: 910006d6    	add	x22, x22, #1
1000073fc: f9400ea0    	ldr	x0, [x21, #24]
100007400: f9400529    	ldr	x9, [x9, #8]
100007404: eb0802df    	cmp	x22, x8
100007408: 9a970281    	csel	x1, x20, x23, eq
10000740c: a90027ea    	stp	x10, x9, [sp]
100007410: 940007f3    	bl	0x1000093dc <_strlen+0x1000093dc>
100007414: f9400769    	ldr	x9, [x27, #8]
100007418: f9400528    	ldr	x8, [x9, #8]
10000741c: eb16011f    	cmp	x8, x22
100007420: 54fffd28    	b.hi	0x1000073c4 <_barn_filename_action+0x1a7c>
100007424: f9400ea0    	ldr	x0, [x21, #24]
100007428: d0000001    	adrp	x1, 0x100009000 <_barn_filename_action+0x1ae8>
10000742c: 91298421    	add	x1, x1, #2657
100007430: 940007eb    	bl	0x1000093dc <_strlen+0x1000093dc>
100007434: b94016a8    	ldr	w8, [x21, #20]
100007438: 11000508    	add	w8, w8, #1
10000743c: b90016a8    	str	w8, [x21, #20]
100007440: f9400b68    	ldr	x8, [x27, #16]
100007444: f9400509    	ldr	x9, [x8, #8]
100007448: b4fff629    	cbz	x9, 0x10000730c <_barn_filename_action+0x19c4>
10000744c: d2800016    	mov	x22, #0
100007450: eb16013f    	cmp	x9, x22
100007454: 54000089    	b.ls	0x100007464 <_barn_filename_action+0x1b1c>
100007458: f9400908    	ldr	x8, [x8, #16]
10000745c: f8767918    	ldr	x24, [x8, x22, lsl  #3]
100007460: 14000002    	b	0x100007468 <_barn_filename_action+0x1b20>
100007464: d2800018    	mov	x24, #0
100007468: b9400300    	ldr	w0, [x24]
10000746c: 71000c1f    	cmp	w0, #3
100007470: 540017a8    	b.hi	0x100007764 <_barn_filename_action+0x1e1c>
100007474: d000000a    	adrp	x10, 0x100009000 <_barn_filename_action+0x1b34>
100007478: 9119e14a    	add	x10, x10, #1656
10000747c: 10000088    	adr	x8, #16
100007480: 38606949    	ldrb	w9, [x10, x0]
100007484: 8b090908    	add	x8, x8, x9, lsl #2
100007488: d61f0100    	br	x8
10000748c: f9400eba    	ldr	x26, [x21, #24]
100007490: b94016a0    	ldr	w0, [x21, #20]
100007494: 97ffec4f    	bl	0x1000025d0 <_barn_generate_tabs_to_buf>
100007498: f90003e0    	str	x0, [sp]
10000749c: aa1a03e0    	mov	x0, x26
1000074a0: aa1903e1    	mov	x1, x25
1000074a4: 940007ce    	bl	0x1000093dc <_strlen+0x1000093dc>
1000074a8: f9401701    	ldr	x1, [x24, #40]
1000074ac: aa1503e0    	mov	x0, x21
1000074b0: 97ffe9ef    	bl	0x100001c6c <_barn_codegen_expression_generate>
1000074b4: f9400ea8    	ldr	x8, [x21, #24]
1000074b8: f90003e0    	str	x0, [sp]
1000074bc: aa0803e0    	mov	x0, x8
1000074c0: d0000001    	adrp	x1, 0x100009000 <_barn_filename_action+0x1b80>
1000074c4: 91248021    	add	x1, x1, #2336
1000074c8: 14000035    	b	0x10000759c <_barn_filename_action+0x1c54>
1000074cc: f9400eba    	ldr	x26, [x21, #24]
1000074d0: aa1503e0    	mov	x0, x21
1000074d4: aa1803e1    	mov	x1, x24
1000074d8: 52800022    	mov	w2, #1
1000074dc: 52800023    	mov	w3, #1
1000074e0: 97ffeb5c    	bl	0x100002250 <_barn_codegen_function_call>
1000074e4: f90003e0    	str	x0, [sp]
1000074e8: aa1a03e0    	mov	x0, x26
1000074ec: aa1903e1    	mov	x1, x25
1000074f0: 1400002b    	b	0x10000759c <_barn_filename_action+0x1c54>
1000074f4: f9400eba    	ldr	x26, [x21, #24]
1000074f8: b94016a0    	ldr	w0, [x21, #20]
1000074fc: 97ffec35    	bl	0x1000025d0 <_barn_generate_tabs_to_buf>
100007500: f90003e0    	str	x0, [sp]
100007504: aa1a03e0    	mov	x0, x26
100007508: aa1903e1    	mov	x1, x25
10000750c: 940007b4    	bl	0x1000093dc <_strlen+0x1000093dc>
100007510: f9402308    	ldr	x8, [x24, #64]
100007514: f9400509    	ldr	x9, [x8, #8]
100007518: b9400129    	ldr	w9, [x9]
10000751c: 71003d3f    	cmp	w9, #15
100007520: 54000b22    	b.hs	0x100007684 <_barn_filename_action+0x1d3c>
100007524: 1ac9278a    	lsr	w10, w28, w9
100007528: 36000aea    	tbz	w10, #0, 0x100007684 <_barn_filename_action+0x1d3c>
10000752c: f9400ea0    	ldr	x0, [x21, #24]
100007530: f8697a69    	ldr	x9, [x19, x9, lsl  #3]
100007534: f9400908    	ldr	x8, [x8, #16]
100007538: a90023e9    	stp	x9, x8, [sp]
10000753c: d0000001    	adrp	x1, 0x100009000 <_barn_filename_action+0x1bfc>
100007540: 9124ac21    	add	x1, x1, #2347
100007544: 940007a6    	bl	0x1000093dc <_strlen+0x1000093dc>
100007548: f9402308    	ldr	x8, [x24, #64]
10000754c: f9400908    	ldr	x8, [x8, #16]
100007550: f90003e8    	str	x8, [sp]
100007554: 90000020    	adrp	x0, 0x10000b000 <_barn_filename_action+0x1c1c>
100007558: 911b0000    	add	x0, x0, #1728
10000755c: 940007b5    	bl	0x100009430 <_strlen+0x100009430>
100007560: f9401f01    	ldr	x1, [x24, #56]
100007564: aa1503e0    	mov	x0, x21
100007568: 97ffe9c1    	bl	0x100001c6c <_barn_codegen_expression_generate>
10000756c: aa0003f8    	mov	x24, x0
100007570: f90003e0    	str	x0, [sp]
100007574: d0000000    	adrp	x0, 0x100009000 <_barn_filename_action+0x1c34>
100007578: 9124d000    	add	x0, x0, #2356
10000757c: 940007ad    	bl	0x100009430 <_strlen+0x100009430>
100007580: f9400ea0    	ldr	x0, [x21, #24]
100007584: f90003f8    	str	x24, [sp]
100007588: aa1903e1    	mov	x1, x25
10000758c: 94000794    	bl	0x1000093dc <_strlen+0x1000093dc>
100007590: f9400ea0    	ldr	x0, [x21, #24]
100007594: f0000001    	adrp	x1, 0x10000a000 <_barn_filename_action+0x1c58>
100007598: 91278821    	add	x1, x1, #2530
10000759c: 94000790    	bl	0x1000093dc <_strlen+0x1000093dc>
1000075a0: 910006d6    	add	x22, x22, #1
1000075a4: f9400b68    	ldr	x8, [x27, #16]
1000075a8: f9400508    	ldr	x8, [x8, #8]
1000075ac: eb0802df    	cmp	x22, x8
1000075b0: 54ffeae0    	b.eq	0x10000730c <_barn_filename_action+0x19c4>
1000075b4: f9400ea0    	ldr	x0, [x21, #24]
1000075b8: d0000001    	adrp	x1, 0x100009000 <_barn_filename_action+0x1c78>
1000075bc: 91308c21    	add	x1, x1, #3107
1000075c0: 94000787    	bl	0x1000093dc <_strlen+0x1000093dc>
1000075c4: f9400b68    	ldr	x8, [x27, #16]
1000075c8: f9400509    	ldr	x9, [x8, #8]
1000075cc: eb16013f    	cmp	x9, x22
1000075d0: 54fff408    	b.hi	0x100007450 <_barn_filename_action+0x1b08>
1000075d4: 17ffff4e    	b	0x10000730c <_barn_filename_action+0x19c4>
1000075d8: f9400ea0    	ldr	x0, [x21, #24]
1000075dc: 94000777    	bl	0x1000093b8 <_strlen+0x1000093b8>
1000075e0: f94013f4    	ldr	x20, [sp, #32]
1000075e4: b40003f4    	cbz	x20, 0x100007660 <_barn_filename_action+0x1d18>
1000075e8: 91004280    	add	x0, x20, #16
1000075ec: d2800001    	mov	x1, #0
1000075f0: 9400078d    	bl	0x100009424 <_strlen+0x100009424>
1000075f4: 52800400    	mov	w0, #32
1000075f8: 97ffebce    	bl	0x100002530 <_barn_get_bold_color_as_str_code>
1000075fc: aa0003f3    	mov	x19, x0
100007600: f9400a88    	ldr	x8, [x20, #16]
100007604: f9400289    	ldr	x9, [x20]
100007608: cb090108    	sub	x8, x8, x9
10000760c: 52884809    	mov	w9, #16960
100007610: 72a001e9    	movk	w9, #15, lsl #16
100007614: b9801a8a    	ldrsw	x10, [x20, #24]
100007618: 9b092908    	madd	x8, x8, x9, x10
10000761c: b9800a89    	ldrsw	x9, [x20, #8]
100007620: cb090108    	sub	x8, x8, x9
100007624: 9e620100    	scvtf	d0, x8
100007628: d29db1a8    	mov	x8, #60813
10000762c: f2b416a8    	movk	x8, #41141, lsl #16
100007630: f2d8dee8    	movk	x8, #50935, lsl #32
100007634: f2e7d608    	movk	x8, #16048, lsl #48
100007638: 9e670101    	fmov	d1, x8
10000763c: 1e610808    	fmul	d8, d0, d1
100007640: 52800000    	mov	w0, #0
100007644: 97ffebbb    	bl	0x100002530 <_barn_get_bold_color_as_str_code>
100007648: f9000be0    	str	x0, [sp, #16]
10000764c: f90003f3    	str	x19, [sp]
100007650: fd0007e8    	str	d8, [sp, #8]
100007654: 90000020    	adrp	x0, 0x10000b000 <_barn_filename_action+0x1d1c>
100007658: 91079000    	add	x0, x0, #484
10000765c: 94000775    	bl	0x100009430 <_strlen+0x100009430>
100007660: a9497bfd    	ldp	x29, x30, [sp, #144]
100007664: a9484ff4    	ldp	x20, x19, [sp, #128]
100007668: a94757f6    	ldp	x22, x21, [sp, #112]
10000766c: a9465ff8    	ldp	x24, x23, [sp, #96]
100007670: a94567fa    	ldp	x26, x25, [sp, #80]
100007674: a9446ffc    	ldp	x28, x27, [sp, #64]
100007678: 6d4323e9    	ldp	d9, d8, [sp, #48]
10000767c: 910283ff    	add	sp, sp, #160
100007680: d65f03c0    	ret
100007684: 90000028    	adrp	x8, 0x10000b000 <_barn_filename_action+0x1d4c>
100007688: 91180508    	add	x8, x8, #1537
10000768c: 52803409    	mov	w9, #416
100007690: a90123e9    	stp	x9, x8, [sp, #16]
100007694: d0000008    	adrp	x8, 0x100009000 <_barn_filename_action+0x1d54>
100007698: 912b7108    	add	x8, x8, #2780
10000769c: d0000009    	adrp	x9, 0x100009000 <_barn_filename_action+0x1d5c>
1000076a0: 91215929    	add	x9, x9, #2134
1000076a4: 14000012    	b	0x1000076ec <_barn_filename_action+0x1da4>
1000076a8: f0000008    	adrp	x8, 0x10000a000 <_barn_filename_action+0x1d6c>
1000076ac: 913b0108    	add	x8, x8, #3776
1000076b0: 52800549    	mov	w9, #42
1000076b4: a90123e9    	stp	x9, x8, [sp, #16]
1000076b8: f0000008    	adrp	x8, 0x10000a000 <_barn_filename_action+0x1d7c>
1000076bc: 913a5108    	add	x8, x8, #3732
1000076c0: f0000009    	adrp	x9, 0x10000a000 <_barn_filename_action+0x1d84>
1000076c4: 913a1d29    	add	x9, x9, #3719
1000076c8: 14000009    	b	0x1000076ec <_barn_filename_action+0x1da4>
1000076cc: 90000028    	adrp	x8, 0x10000b000 <_barn_filename_action+0x1d94>
1000076d0: 91180508    	add	x8, x8, #1537
1000076d4: 52801ee9    	mov	w9, #247
1000076d8: a90123e9    	stp	x9, x8, [sp, #16]
1000076dc: 90000028    	adrp	x8, 0x10000b000 <_barn_filename_action+0x1da4>
1000076e0: 911a2508    	add	x8, x8, #1673
1000076e4: 90000029    	adrp	x9, 0x10000b000 <_barn_filename_action+0x1dac>
1000076e8: 9117d129    	add	x9, x9, #1524
1000076ec: a90023e9    	stp	x9, x8, [sp]
1000076f0: 90000021    	adrp	x1, 0x10000b000 <_barn_filename_action+0x1db8>
1000076f4: 91159421    	add	x1, x1, #1381
1000076f8: 528000e0    	mov	w0, #7
1000076fc: 97ffecad    	bl	0x1000029b0 <_barn_error_show>
100007700: 52800020    	mov	w0, #1
100007704: 9400072a    	bl	0x1000093ac <_strlen+0x1000093ac>
100007708: f0000008    	adrp	x8, 0x10000a000 <_barn_filename_action+0x1dcc>
10000770c: 91033108    	add	x8, x8, #204
100007710: 52800a09    	mov	w9, #80
100007714: a90123e9    	stp	x9, x8, [sp, #16]
100007718: f0000008    	adrp	x8, 0x10000a000 <_barn_filename_action+0x1ddc>
10000771c: 91021508    	add	x8, x8, #133
100007720: f0000009    	adrp	x9, 0x10000a000 <_barn_filename_action+0x1de4>
100007724: 9101d129    	add	x9, x9, #116
100007728: 17fffff1    	b	0x1000076ec <_barn_filename_action+0x1da4>
10000772c: f9400308    	ldr	x8, [x24]
100007730: 2943250a    	ldp	w10, w9, [x8, #24]
100007734: 51000523    	sub	w3, w9, #1
100007738: 51000544    	sub	w4, w10, #1
10000773c: a9409902    	ldp	x2, x6, [x8, #8]
100007740: f90003ff    	str	xzr, [sp]
100007744: f0000007    	adrp	x7, 0x10000a000 <_barn_filename_action+0x1e08>
100007748: 910908e7    	add	x7, x7, #578
10000774c: 52800041    	mov	w1, #2
100007750: 1400013c    	b	0x100007c40 <_barn_filename_action+0x22f8>
100007754: d0000008    	adrp	x8, 0x100009000 <_barn_filename_action+0x1e14>
100007758: 91262108    	add	x8, x8, #2440
10000775c: 52802209    	mov	w9, #272
100007760: 14000009    	b	0x100007784 <_barn_filename_action+0x1e3c>
100007764: 94000274    	bl	0x100008134 <_barn_node_kind_show>
100007768: f90003e0    	str	x0, [sp]
10000776c: d0000000    	adrp	x0, 0x100009000 <_barn_filename_action+0x1e2c>
100007770: 91273400    	add	x0, x0, #2509
100007774: 9400072f    	bl	0x100009430 <_strlen+0x100009430>
100007778: d0000008    	adrp	x8, 0x100009000 <_barn_filename_action+0x1e38>
10000777c: 9127b108    	add	x8, x8, #2540
100007780: 528023a9    	mov	w9, #285
100007784: a90123e9    	stp	x9, x8, [sp, #16]
100007788: d0000008    	adrp	x8, 0x100009000 <_barn_filename_action+0x1e48>
10000778c: 9124f908    	add	x8, x8, #2366
100007790: 17ffffc3    	b	0x10000769c <_barn_filename_action+0x1d54>
100007794: f9400308    	ldr	x8, [x24]
100007798: 2943250a    	ldp	w10, w9, [x8, #24]
10000779c: 51000523    	sub	w3, w9, #1
1000077a0: 51000544    	sub	w4, w10, #1
1000077a4: a9409902    	ldp	x2, x6, [x8, #8]
1000077a8: f90003ff    	str	xzr, [sp]
1000077ac: f0000007    	adrp	x7, 0x10000a000 <_barn_filename_action+0x1e70>
1000077b0: 910454e7    	add	x7, x7, #277
1000077b4: 52800121    	mov	w1, #9
1000077b8: 14000122    	b	0x100007c40 <_barn_filename_action+0x22f8>
1000077bc: f9400308    	ldr	x8, [x24]
1000077c0: 2943250a    	ldp	w10, w9, [x8, #24]
1000077c4: 51000523    	sub	w3, w9, #1
1000077c8: 51000544    	sub	w4, w10, #1
1000077cc: a9409902    	ldp	x2, x6, [x8, #8]
1000077d0: f90003ff    	str	xzr, [sp]
1000077d4: 90000027    	adrp	x7, 0x10000b000 <_barn_filename_action+0x1e9c>
1000077d8: 911b90e7    	add	x7, x7, #1764
1000077dc: 52800121    	mov	w1, #9
1000077e0: 14000118    	b	0x100007c40 <_barn_filename_action+0x22f8>
1000077e4: 52800b88    	mov	w8, #92
1000077e8: d0000009    	adrp	x9, 0x100009000 <_barn_filename_action+0x1ea8>
1000077ec: 911dd529    	add	x9, x9, #1909
1000077f0: 1400003d    	b	0x1000078e4 <_barn_filename_action+0x1f9c>
1000077f4: 528018a8    	mov	w8, #197
1000077f8: d0000009    	adrp	x9, 0x100009000 <_barn_filename_action+0x1eb8>
1000077fc: 91200529    	add	x9, x9, #2049
100007800: 14000039    	b	0x1000078e4 <_barn_filename_action+0x1f9c>
100007804: 7100a1df    	cmp	w14, #40
100007808: 54000561    	b.ne	0x1000078b4 <_barn_filename_action+0x1f6c>
10000780c: f0000008    	adrp	x8, 0x10000a000 <_barn_filename_action+0x1ed0>
100007810: 91072908    	add	x8, x8, #458
100007814: 528012e9    	mov	w9, #151
100007818: a90123e9    	stp	x9, x8, [sp, #16]
10000781c: f0000008    	adrp	x8, 0x10000a000 <_barn_filename_action+0x1ee0>
100007820: 91058508    	add	x8, x8, #353
100007824: 17ffffbf    	b	0x100007720 <_barn_filename_action+0x1dd8>
100007828: 2943250a    	ldp	w10, w9, [x8, #24]
10000782c: 51000523    	sub	w3, w9, #1
100007830: 51000544    	sub	w4, w10, #1
100007834: a9409902    	ldp	x2, x6, [x8, #8]
100007838: f9400108    	ldr	x8, [x8]
10000783c: f90003e8    	str	x8, [sp]
100007840: f0000007    	adrp	x7, 0x10000a000 <_barn_filename_action+0x1f04>
100007844: 913de8e7    	add	x7, x7, #3962
100007848: 52800041    	mov	w1, #2
10000784c: 140000fd    	b	0x100007c40 <_barn_filename_action+0x22f8>
100007850: 29430d09    	ldp	w9, w3, [x8, #24]
100007854: 51000524    	sub	w4, w9, #1
100007858: a9409902    	ldp	x2, x6, [x8, #8]
10000785c: f0000007    	adrp	x7, 0x10000a000 <_barn_filename_action+0x1f20>
100007860: 91103ce7    	add	x7, x7, #1039
100007864: 140000ac    	b	0x100007b14 <_barn_filename_action+0x21cc>
100007868: f9400308    	ldr	x8, [x24]
10000786c: 2943250a    	ldp	w10, w9, [x8, #24]
100007870: 51000523    	sub	w3, w9, #1
100007874: 51000544    	sub	w4, w10, #1
100007878: a9409902    	ldp	x2, x6, [x8, #8]
10000787c: f90003ff    	str	xzr, [sp]
100007880: 90000027    	adrp	x7, 0x10000b000 <_barn_filename_action+0x1f48>
100007884: 911c30e7    	add	x7, x7, #1804
100007888: 52800041    	mov	w1, #2
10000788c: 140000ed    	b	0x100007c40 <_barn_filename_action+0x22f8>
100007890: 528003c8    	mov	w8, #30
100007894: 90000029    	adrp	x9, 0x10000b000 <_barn_filename_action+0x1f5c>
100007898: 91048d29    	add	x9, x9, #291
10000789c: a90123e9    	stp	x9, x8, [sp, #16]
1000078a0: 90000028    	adrp	x8, 0x10000b000 <_barn_filename_action+0x1f68>
1000078a4: 91045508    	add	x8, x8, #277
1000078a8: 90000029    	adrp	x9, 0x10000b000 <_barn_filename_action+0x1f70>
1000078ac: 91042929    	add	x9, x9, #266
1000078b0: 14000012    	b	0x1000078f8 <_barn_filename_action+0x1fb0>
1000078b4: 2943212a    	ldp	w10, w8, [x9, #24]
1000078b8: 51000503    	sub	w3, w8, #1
1000078bc: 51000544    	sub	w4, w10, #1
1000078c0: a9409922    	ldp	x2, x6, [x9, #8]
1000078c4: f90003ff    	str	xzr, [sp]
1000078c8: f0000007    	adrp	x7, 0x10000a000 <_barn_filename_action+0x1f8c>
1000078cc: 9107b0e7    	add	x7, x7, #492
1000078d0: 52800041    	mov	w1, #2
1000078d4: 140000db    	b	0x100007c40 <_barn_filename_action+0x22f8>
1000078d8: 52800f48    	mov	w8, #122
1000078dc: d0000009    	adrp	x9, 0x100009000 <_barn_filename_action+0x1f9c>
1000078e0: 911ee929    	add	x9, x9, #1978
1000078e4: a90123e9    	stp	x9, x8, [sp, #16]
1000078e8: d0000008    	adrp	x8, 0x100009000 <_barn_filename_action+0x1fa8>
1000078ec: 911cc908    	add	x8, x8, #1842
1000078f0: d0000009    	adrp	x9, 0x100009000 <_barn_filename_action+0x1fb0>
1000078f4: 911db529    	add	x9, x9, #1901
1000078f8: a90023e9    	stp	x9, x8, [sp]
1000078fc: 90000021    	adrp	x1, 0x10000b000 <_barn_filename_action+0x1fc4>
100007900: 910ea421    	add	x1, x1, #937
100007904: 17ffff7d    	b	0x1000076f8 <_barn_filename_action+0x1db0>
100007908: f0000008    	adrp	x8, 0x10000a000 <_barn_filename_action+0x1fcc>
10000790c: 913c9908    	add	x8, x8, #3878
100007910: 52801009    	mov	w9, #128
100007914: a90123e9    	stp	x9, x8, [sp, #16]
100007918: f0000008    	adrp	x8, 0x10000a000 <_barn_filename_action+0x1fdc>
10000791c: 913be50a    	add	x10, x8, #3833
100007920: f0000008    	adrp	x8, 0x10000a000 <_barn_filename_action+0x1fe4>
100007924: 913bad08    	add	x8, x8, #3819
100007928: a9002be8    	stp	x8, x10, [sp]
10000792c: 17ffff71    	b	0x1000076f0 <_barn_filename_action+0x1da8>
100007930: f9400308    	ldr	x8, [x24]
100007934: 2943250a    	ldp	w10, w9, [x8, #24]
100007938: 51000523    	sub	w3, w9, #1
10000793c: 51000544    	sub	w4, w10, #1
100007940: a9409902    	ldp	x2, x6, [x8, #8]
100007944: f90003ff    	str	xzr, [sp]
100007948: f0000007    	adrp	x7, 0x10000a000 <_barn_filename_action+0x200c>
10000794c: 910af8e7    	add	x7, x7, #702
100007950: 52800041    	mov	w1, #2
100007954: 140000bb    	b	0x100007c40 <_barn_filename_action+0x22f8>
100007958: f9400308    	ldr	x8, [x24]
10000795c: 2943250a    	ldp	w10, w9, [x8, #24]
100007960: 51000523    	sub	w3, w9, #1
100007964: 51000544    	sub	w4, w10, #1
100007968: a9409902    	ldp	x2, x6, [x8, #8]
10000796c: f90003ff    	str	xzr, [sp]
100007970: f0000007    	adrp	x7, 0x10000a000 <_barn_filename_action+0x2034>
100007974: 910b64e7    	add	x7, x7, #729
100007978: 52800041    	mov	w1, #2
10000797c: 140000b1    	b	0x100007c40 <_barn_filename_action+0x22f8>
100007980: 7100051f    	cmp	w8, #1
100007984: 540017c1    	b.ne	0x100007c7c <_barn_filename_action+0x2334>
100007988: f94017f3    	ldr	x19, [sp, #40]
10000798c: aa1303e0    	mov	x0, x19
100007990: 12800001    	mov	w1, #-1
100007994: 94000201    	bl	0x100008198 <_barn_parser_skip>
100007998: f9400a68    	ldr	x8, [x19, #16]
10000799c: 2943250a    	ldp	w10, w9, [x8, #24]
1000079a0: 51000523    	sub	w3, w9, #1
1000079a4: 51000544    	sub	w4, w10, #1
1000079a8: a9409902    	ldp	x2, x6, [x8, #8]
1000079ac: f90003ff    	str	xzr, [sp]
1000079b0: f0000007    	adrp	x7, 0x10000a000 <_barn_filename_action+0x2074>
1000079b4: 910cb8e7    	add	x7, x7, #814
1000079b8: 52800041    	mov	w1, #2
1000079bc: 140000a1    	b	0x100007c40 <_barn_filename_action+0x22f8>
1000079c0: 2943250a    	ldp	w10, w9, [x8, #24]
1000079c4: 51000523    	sub	w3, w9, #1
1000079c8: 51000544    	sub	w4, w10, #1
1000079cc: a9409902    	ldp	x2, x6, [x8, #8]
1000079d0: f90003ff    	str	xzr, [sp]
1000079d4: f0000007    	adrp	x7, 0x10000a000 <_barn_filename_action+0x2098>
1000079d8: 910ee8e7    	add	x7, x7, #954
1000079dc: 52800041    	mov	w1, #2
1000079e0: 14000098    	b	0x100007c40 <_barn_filename_action+0x22f8>
1000079e4: f9400308    	ldr	x8, [x24]
1000079e8: 2943250a    	ldp	w10, w9, [x8, #24]
1000079ec: 51000523    	sub	w3, w9, #1
1000079f0: 51000544    	sub	w4, w10, #1
1000079f4: a9409902    	ldp	x2, x6, [x8, #8]
1000079f8: f90003ff    	str	xzr, [sp]
1000079fc: d0000007    	adrp	x7, 0x100009000 <_barn_filename_action+0x20bc>
100007a00: 913ff0e7    	add	x7, x7, #4092
100007a04: 52800041    	mov	w1, #2
100007a08: 1400008e    	b	0x100007c40 <_barn_filename_action+0x22f8>
100007a0c: 2943250a    	ldp	w10, w9, [x8, #24]
100007a10: 51000523    	sub	w3, w9, #1
100007a14: 51000544    	sub	w4, w10, #1
100007a18: a9409902    	ldp	x2, x6, [x8, #8]
100007a1c: f90003ff    	str	xzr, [sp]
100007a20: f0000007    	adrp	x7, 0x10000a000 <_barn_filename_action+0x20e4>
100007a24: 91008ce7    	add	x7, x7, #35
100007a28: 52800041    	mov	w1, #2
100007a2c: 14000085    	b	0x100007c40 <_barn_filename_action+0x22f8>
100007a30: f9400308    	ldr	x8, [x24]
100007a34: 2943250a    	ldp	w10, w9, [x8, #24]
100007a38: 51000523    	sub	w3, w9, #1
100007a3c: 51000544    	sub	w4, w10, #1
100007a40: a9409902    	ldp	x2, x6, [x8, #8]
100007a44: f90003f3    	str	x19, [sp]
100007a48: 90000027    	adrp	x7, 0x10000b000 <_barn_filename_action+0x2110>
100007a4c: 911ce0e7    	add	x7, x7, #1848
100007a50: 52800121    	mov	w1, #9
100007a54: 1400007b    	b	0x100007c40 <_barn_filename_action+0x22f8>
100007a58: f9400308    	ldr	x8, [x24]
100007a5c: 2943250a    	ldp	w10, w9, [x8, #24]
100007a60: 51000523    	sub	w3, w9, #1
100007a64: 51000544    	sub	w4, w10, #1
100007a68: a9409902    	ldp	x2, x6, [x8, #8]
100007a6c: f90003ff    	str	xzr, [sp]
100007a70: 90000027    	adrp	x7, 0x10000b000 <_barn_filename_action+0x2138>
100007a74: 911d6ce7    	add	x7, x7, #1883
100007a78: 52800121    	mov	w1, #9
100007a7c: 14000071    	b	0x100007c40 <_barn_filename_action+0x22f8>
100007a80: f9400308    	ldr	x8, [x24]
100007a84: 2943250a    	ldp	w10, w9, [x8, #24]
100007a88: 51000523    	sub	w3, w9, #1
100007a8c: 51000544    	sub	w4, w10, #1
100007a90: a9409902    	ldp	x2, x6, [x8, #8]
100007a94: f90003ff    	str	xzr, [sp]
100007a98: 90000027    	adrp	x7, 0x10000b000 <_barn_filename_action+0x2160>
100007a9c: 911e68e7    	add	x7, x7, #1946
100007aa0: 52800121    	mov	w1, #9
100007aa4: 14000067    	b	0x100007c40 <_barn_filename_action+0x22f8>
100007aa8: f9400308    	ldr	x8, [x24]
100007aac: 2943250a    	ldp	w10, w9, [x8, #24]
100007ab0: 51000523    	sub	w3, w9, #1
100007ab4: 51000544    	sub	w4, w10, #1
100007ab8: a9409902    	ldp	x2, x6, [x8, #8]
100007abc: f9400108    	ldr	x8, [x8]
100007ac0: f90003e8    	str	x8, [sp]
100007ac4: 90000027    	adrp	x7, 0x10000b000 <_barn_filename_action+0x218c>
100007ac8: 911f58e7    	add	x7, x7, #2006
100007acc: 1400005c    	b	0x100007c3c <_barn_filename_action+0x22f4>
100007ad0: f9400308    	ldr	x8, [x24]
100007ad4: 2943250a    	ldp	w10, w9, [x8, #24]
100007ad8: 51000523    	sub	w3, w9, #1
100007adc: 51000544    	sub	w4, w10, #1
100007ae0: a9409902    	ldp	x2, x6, [x8, #8]
100007ae4: f90003ff    	str	xzr, [sp]
100007ae8: 90000027    	adrp	x7, 0x10000b000 <_barn_filename_action+0x21b0>
100007aec: 911fe0e7    	add	x7, x7, #2040
100007af0: 52800121    	mov	w1, #9
100007af4: 14000053    	b	0x100007c40 <_barn_filename_action+0x22f8>
100007af8: f9400688    	ldr	x8, [x20, #8]
100007afc: 29430d09    	ldp	w9, w3, [x8, #24]
100007b00: 51000524    	sub	w4, w9, #1
100007b04: a9409902    	ldp	x2, x6, [x8, #8]
100007b08: f90003f3    	str	x19, [sp]
100007b0c: f0000007    	adrp	x7, 0x10000a000 <_barn_filename_action+0x21d0>
100007b10: 910f88e7    	add	x7, x7, #994
100007b14: 52800061    	mov	w1, #3
100007b18: 1400004a    	b	0x100007c40 <_barn_filename_action+0x22f8>
100007b1c: 2943212a    	ldp	w10, w8, [x9, #24]
100007b20: 51000503    	sub	w3, w8, #1
100007b24: 51000544    	sub	w4, w10, #1
100007b28: a9409922    	ldp	x2, x6, [x9, #8]
100007b2c: f90003ff    	str	xzr, [sp]
100007b30: f0000007    	adrp	x7, 0x10000a000 <_barn_filename_action+0x21f4>
100007b34: 91084ce7    	add	x7, x7, #531
100007b38: 52800041    	mov	w1, #2
100007b3c: 14000041    	b	0x100007c40 <_barn_filename_action+0x22f8>
100007b40: f9400a68    	ldr	x8, [x19, #16]
100007b44: f90003e8    	str	x8, [sp]
100007b48: f0000001    	adrp	x1, 0x10000a000 <_barn_filename_action+0x220c>
100007b4c: 912bf821    	add	x1, x1, #2814
100007b50: 52800020    	mov	w0, #1
100007b54: 17fffeea    	b	0x1000076fc <_barn_filename_action+0x1db4>
100007b58: 52800548    	mov	w8, #42
100007b5c: d0000009    	adrp	x9, 0x100009000 <_barn_filename_action+0x221c>
100007b60: 91219529    	add	x9, x9, #2149
100007b64: a90123e9    	stp	x9, x8, [sp, #16]
100007b68: d0000008    	adrp	x8, 0x100009000 <_barn_filename_action+0x2228>
100007b6c: 91215908    	add	x8, x8, #2134
100007b70: d0000009    	adrp	x9, 0x100009000 <_barn_filename_action+0x2230>
100007b74: 91213929    	add	x9, x9, #2126
100007b78: 17ffff60    	b	0x1000078f8 <_barn_filename_action+0x1fb0>
100007b7c: f9400308    	ldr	x8, [x24]
100007b80: 2943250a    	ldp	w10, w9, [x8, #24]
100007b84: 51000523    	sub	w3, w9, #1
100007b88: 51000544    	sub	w4, w10, #1
100007b8c: a9409902    	ldp	x2, x6, [x8, #8]
100007b90: f9400108    	ldr	x8, [x8]
100007b94: f90003e8    	str	x8, [sp]
100007b98: f0000007    	adrp	x7, 0x10000a000 <_barn_filename_action+0x225c>
100007b9c: 9103d4e7    	add	x7, x7, #245
100007ba0: 52800121    	mov	w1, #9
100007ba4: 14000027    	b	0x100007c40 <_barn_filename_action+0x22f8>
100007ba8: f9400308    	ldr	x8, [x24]
100007bac: 2943250a    	ldp	w10, w9, [x8, #24]
100007bb0: 51000523    	sub	w3, w9, #1
100007bb4: 51000544    	sub	w4, w10, #1
100007bb8: a9409902    	ldp	x2, x6, [x8, #8]
100007bbc: f90003ff    	str	xzr, [sp]
100007bc0: f0000007    	adrp	x7, 0x10000a000 <_barn_filename_action+0x2284>
100007bc4: 910a8ce7    	add	x7, x7, #675
100007bc8: 52800041    	mov	w1, #2
100007bcc: 1400001d    	b	0x100007c40 <_barn_filename_action+0x22f8>
100007bd0: 2943212a    	ldp	w10, w8, [x9, #24]
100007bd4: 51000503    	sub	w3, w8, #1
100007bd8: 51000544    	sub	w4, w10, #1
100007bdc: a9409922    	ldp	x2, x6, [x9, #8]
100007be0: f90003ff    	str	xzr, [sp]
100007be4: f0000007    	adrp	x7, 0x10000a000 <_barn_filename_action+0x22a8>
100007be8: 9109a0e7    	add	x7, x7, #616
100007bec: 52800041    	mov	w1, #2
100007bf0: 14000014    	b	0x100007c40 <_barn_filename_action+0x22f8>
100007bf4: 2943250a    	ldp	w10, w9, [x8, #24]
100007bf8: 51000523    	sub	w3, w9, #1
100007bfc: 51000544    	sub	w4, w10, #1
100007c00: a9409902    	ldp	x2, x6, [x8, #8]
100007c04: f90003ff    	str	xzr, [sp]
100007c08: f0000007    	adrp	x7, 0x10000a000 <_barn_filename_action+0x22cc>
100007c0c: 910e58e7    	add	x7, x7, #918
100007c10: 52800041    	mov	w1, #2
100007c14: 1400000b    	b	0x100007c40 <_barn_filename_action+0x22f8>
100007c18: f9400308    	ldr	x8, [x24]
100007c1c: 2943250a    	ldp	w10, w9, [x8, #24]
100007c20: 51000523    	sub	w3, w9, #1
100007c24: 51000544    	sub	w4, w10, #1
100007c28: a9409902    	ldp	x2, x6, [x8, #8]
100007c2c: f9400108    	ldr	x8, [x8]
100007c30: f90003e8    	str	x8, [sp]
100007c34: f0000007    	adrp	x7, 0x10000a000 <_barn_filename_action+0x22f8>
100007c38: 9104f0e7    	add	x7, x7, #316
100007c3c: 52800081    	mov	w1, #4
100007c40: 52800005    	mov	w5, #0
100007c44: 97ffea9a    	bl	0x1000026ac <_barn_error_show_with_line>
100007c48: 52800020    	mov	w0, #1
100007c4c: 940005d8    	bl	0x1000093ac <_strlen+0x1000093ac>
100007c50: f9400308    	ldr	x8, [x24]
100007c54: 2943250a    	ldp	w10, w9, [x8, #24]
100007c58: 51000523    	sub	w3, w9, #1
100007c5c: 51000544    	sub	w4, w10, #1
100007c60: a9409902    	ldp	x2, x6, [x8, #8]
100007c64: f9400108    	ldr	x8, [x8]
100007c68: f90003e8    	str	x8, [sp]
100007c6c: 90000027    	adrp	x7, 0x10000b000 <_barn_filename_action+0x2334>
100007c70: 911b10e7    	add	x7, x7, #1732
100007c74: 52800121    	mov	w1, #9
100007c78: 17fffff2    	b	0x100007c40 <_barn_filename_action+0x22f8>
100007c7c: 2943212a    	ldp	w10, w8, [x9, #24]
100007c80: 51000503    	sub	w3, w8, #1
100007c84: 51000544    	sub	w4, w10, #1
100007c88: a9409922    	ldp	x2, x6, [x9, #8]
100007c8c: f90003ff    	str	xzr, [sp]
100007c90: f0000007    	adrp	x7, 0x10000a000 <_barn_filename_action+0x2354>
100007c94: 910d98e7    	add	x7, x7, #870
100007c98: 52800041    	mov	w1, #2
100007c9c: 17ffffe9    	b	0x100007c40 <_barn_filename_action+0x22f8>

0000000100007ca0 <_main>:
100007ca0: d101c3ff    	sub	sp, sp, #112
100007ca4: a90267fa    	stp	x26, x25, [sp, #32]
100007ca8: a9035ff8    	stp	x24, x23, [sp, #48]
100007cac: a90457f6    	stp	x22, x21, [sp, #64]
100007cb0: a9054ff4    	stp	x20, x19, [sp, #80]
100007cb4: a9067bfd    	stp	x29, x30, [sp, #96]
100007cb8: aa0103f3    	mov	x19, x1
100007cbc: aa0003f5    	mov	x21, x0
100007cc0: d0000000    	adrp	x0, 0x100009000 <_main+0x28>
100007cc4: 912d1400    	add	x0, x0, #2885
100007cc8: 940005da    	bl	0x100009430 <_strlen+0x100009430>
100007ccc: f0000017    	adrp	x23, 0x10000a000 <_main+0x38>
100007cd0: 912bcaf7    	add	x23, x23, #2802
100007cd4: 52800e28    	mov	w8, #113
100007cd8: a90023f7    	stp	x23, x8, [sp]
100007cdc: d0000000    	adrp	x0, 0x100009000 <_main+0x44>
100007ce0: 912ce800    	add	x0, x0, #2874
100007ce4: 940005d3    	bl	0x100009430 <_strlen+0x100009430>
100007ce8: f0000008    	adrp	x8, 0x10000a000 <_main+0x54>
100007cec: 912e9508    	add	x8, x8, #2981
100007cf0: f90003e8    	str	x8, [sp]
100007cf4: 90000020    	adrp	x0, 0x10000b000 <_main+0x64>
100007cf8: 911b0000    	add	x0, x0, #1728
100007cfc: 940005cd    	bl	0x100009430 <_strlen+0x100009430>
100007d00: 52800038    	mov	w24, #1
100007d04: 52800020    	mov	w0, #1
100007d08: 52800401    	mov	w1, #32
100007d0c: 940005a5    	bl	0x1000093a0 <_strlen+0x1000093a0>
100007d10: aa0003f4    	mov	x20, x0
100007d14: b9000815    	str	w21, [x0, #8]
100007d18: f9000013    	str	x19, [x0]
100007d1c: 3900301f    	strb	wzr, [x0, #12]
100007d20: 52800100    	mov	w0, #8
100007d24: 97ffe7a0    	bl	0x100001ba4 <_barn_create_array>
100007d28: f9000e80    	str	x0, [x20, #24]
100007d2c: b9400a88    	ldr	w8, [x20, #8]
100007d30: 7100091f    	cmp	w8, #2
100007d34: 5400052b    	b.lt	0x100007dd8 <_main+0x138>
100007d38: 52800039    	mov	w25, #1
100007d3c: 14000005    	b	0x100007d50 <_main+0xb0>
100007d40: 91000739    	add	x25, x25, #1
100007d44: b9800a88    	ldrsw	x8, [x20, #8]
100007d48: eb08033f    	cmp	x25, x8
100007d4c: 5400046a    	b.ge	0x100007dd8 <_main+0x138>
100007d50: f9400288    	ldr	x8, [x20]
100007d54: f8797915    	ldr	x21, [x8, x25, lsl  #3]
100007d58: 394002a8    	ldrb	w8, [x21]
100007d5c: 7100b51f    	cmp	w8, #45
100007d60: 540001e1    	b.ne	0x100007d9c <_main+0xfc>
100007d64: f9400e96    	ldr	x22, [x20, #24]
100007d68: b40006d6    	cbz	x22, 0x100007e40 <_main+0x1a0>
100007d6c: a94082c8    	ldp	x8, x0, [x22, #8]
100007d70: d37df108    	lsl	x8, x8, #3
100007d74: 91002101    	add	x1, x8, #8
100007d78: 940005b1    	bl	0x10000943c <_strlen+0x10000943c>
100007d7c: b40007a0    	cbz	x0, 0x100007e70 <_main+0x1d0>
100007d80: f9000ac0    	str	x0, [x22, #16]
100007d84: f94006c8    	ldr	x8, [x22, #8]
100007d88: f8287815    	str	x21, [x0, x8, lsl  #3]
100007d8c: f94006c8    	ldr	x8, [x22, #8]
100007d90: 91000508    	add	x8, x8, #1
100007d94: f90006c8    	str	x8, [x22, #8]
100007d98: 17ffffea    	b	0x100007d40 <_main+0xa0>
100007d9c: 39403288    	ldrb	w8, [x20, #12]
100007da0: 350007a8    	cbnz	w8, 0x100007e94 <_main+0x1f4>
100007da4: 39003298    	strb	w24, [x20, #12]
100007da8: aa1503e0    	mov	x0, x21
100007dac: 940005aa    	bl	0x100009454 <_strlen+0x100009454>
100007db0: 91000400    	add	x0, x0, #1
100007db4: 52800021    	mov	w1, #1
100007db8: 9400057a    	bl	0x1000093a0 <_strlen+0x1000093a0>
100007dbc: b4000760    	cbz	x0, 0x100007ea8 <_main+0x208>
100007dc0: aa0003f6    	mov	x22, x0
100007dc4: aa1503e1    	mov	x1, x21
100007dc8: 92800002    	mov	x2, #-1
100007dcc: 94000566    	bl	0x100009364 <_strlen+0x100009364>
100007dd0: f9000a96    	str	x22, [x20, #16]
100007dd4: 17ffffdb    	b	0x100007d40 <_main+0xa0>
100007dd8: 39403288    	ldrb	w8, [x20, #12]
100007ddc: 34000848    	cbz	w8, 0x100007ee4 <_main+0x244>
100007de0: d0000000    	adrp	x0, 0x100009000 <_main+0x148>
100007de4: 912d1400    	add	x0, x0, #2885
100007de8: 94000592    	bl	0x100009430 <_strlen+0x100009430>
100007dec: 52800ee8    	mov	w8, #119
100007df0: a90023f7    	stp	x23, x8, [sp]
100007df4: d0000000    	adrp	x0, 0x100009000 <_main+0x15c>
100007df8: 912ce800    	add	x0, x0, #2874
100007dfc: 9400058d    	bl	0x100009430 <_strlen+0x100009430>
100007e00: f0000008    	adrp	x8, 0x10000a000 <_main+0x16c>
100007e04: 912ef108    	add	x8, x8, #3004
100007e08: f90003e8    	str	x8, [sp]
100007e0c: 90000020    	adrp	x0, 0x10000b000 <_main+0x17c>
100007e10: 911b0000    	add	x0, x0, #1728
100007e14: 94000587    	bl	0x100009430 <_strlen+0x100009430>
100007e18: aa1403e0    	mov	x0, x20
100007e1c: 97fff6cb    	bl	0x100005948 <_barn_filename_action>
100007e20: 52800000    	mov	w0, #0
100007e24: a9467bfd    	ldp	x29, x30, [sp, #96]
100007e28: a9454ff4    	ldp	x20, x19, [sp, #80]
100007e2c: a94457f6    	ldp	x22, x21, [sp, #64]
100007e30: a9435ff8    	ldp	x24, x23, [sp, #48]
100007e34: a94267fa    	ldp	x26, x25, [sp, #32]
100007e38: 9101c3ff    	add	sp, sp, #112
100007e3c: d65f03c0    	ret
100007e40: 528005c8    	mov	w8, #46
100007e44: d0000009    	adrp	x9, 0x100009000 <_main+0x1ac>
100007e48: 911b2929    	add	x9, x9, #1738
100007e4c: a90123e9    	stp	x9, x8, [sp, #16]
100007e50: d0000008    	adrp	x8, 0x100009000 <_main+0x1b8>
100007e54: 911add08    	add	x8, x8, #1719
100007e58: d0000009    	adrp	x9, 0x100009000 <_main+0x1c0>
100007e5c: 911a0529    	add	x9, x9, #1665
100007e60: a90023e9    	stp	x9, x8, [sp]
100007e64: f0000001    	adrp	x1, 0x10000a000 <_main+0x1d0>
100007e68: 9115d821    	add	x1, x1, #1398
100007e6c: 1400001a    	b	0x100007ed4 <_main+0x234>
100007e70: 52800b88    	mov	w8, #92
100007e74: d0000009    	adrp	x9, 0x100009000 <_main+0x1dc>
100007e78: 911dd529    	add	x9, x9, #1909
100007e7c: a90123e9    	stp	x9, x8, [sp, #16]
100007e80: d0000008    	adrp	x8, 0x100009000 <_main+0x1e8>
100007e84: 911cc908    	add	x8, x8, #1842
100007e88: d0000009    	adrp	x9, 0x100009000 <_main+0x1f0>
100007e8c: 911db529    	add	x9, x9, #1901
100007e90: 1400000e    	b	0x100007ec8 <_main+0x228>
100007e94: f90003f5    	str	x21, [sp]
100007e98: d0000001    	adrp	x1, 0x100009000 <_main+0x200>
100007e9c: 911c0c21    	add	x1, x1, #1795
100007ea0: 52800000    	mov	w0, #0
100007ea4: 1400000d    	b	0x100007ed8 <_main+0x238>
100007ea8: 528003c8    	mov	w8, #30
100007eac: 90000029    	adrp	x9, 0x10000b000 <_main+0x21c>
100007eb0: 91048d29    	add	x9, x9, #291
100007eb4: a90123e9    	stp	x9, x8, [sp, #16]
100007eb8: 90000028    	adrp	x8, 0x10000b000 <_main+0x228>
100007ebc: 91045508    	add	x8, x8, #277
100007ec0: 90000029    	adrp	x9, 0x10000b000 <_main+0x230>
100007ec4: 91042929    	add	x9, x9, #266
100007ec8: a90023e9    	stp	x9, x8, [sp]
100007ecc: 90000021    	adrp	x1, 0x10000b000 <_main+0x23c>
100007ed0: 910ea421    	add	x1, x1, #937
100007ed4: 528000e0    	mov	w0, #7
100007ed8: 97ffeab6    	bl	0x1000029b0 <_barn_error_show>
100007edc: 52800020    	mov	w0, #1
100007ee0: 94000533    	bl	0x1000093ac <_strlen+0x1000093ac>
100007ee4: f9400e81    	ldr	x1, [x20, #24]
100007ee8: aa1303e0    	mov	x0, x19
100007eec: 97fff672    	bl	0x1000058b4 <_barn_no_filename_action>

0000000100007ef0 <_barn_version_message>:
100007ef0: d10183ff    	sub	sp, sp, #96
100007ef4: a90357f6    	stp	x22, x21, [sp, #48]
100007ef8: a9044ff4    	stp	x20, x19, [sp, #64]
100007efc: a9057bfd    	stp	x29, x30, [sp, #80]
100007f00: 52800400    	mov	w0, #32
100007f04: 97ffe98b    	bl	0x100002530 <_barn_get_bold_color_as_str_code>
100007f08: aa0003f3    	mov	x19, x0
100007f0c: 52800000    	mov	w0, #0
100007f10: 97ffe988    	bl	0x100002530 <_barn_get_bold_color_as_str_code>
100007f14: aa0003f4    	mov	x20, x0
100007f18: 52800400    	mov	w0, #32
100007f1c: 97ffe985    	bl	0x100002530 <_barn_get_bold_color_as_str_code>
100007f20: aa0003f5    	mov	x21, x0
100007f24: 52800000    	mov	w0, #0
100007f28: 97ffe982    	bl	0x100002530 <_barn_get_bold_color_as_str_code>
100007f2c: f0000008    	adrp	x8, 0x10000a000 <_barn_version_message+0x48>
100007f30: 9112a108    	add	x8, x8, #1192
100007f34: a90183e8    	stp	x8, x0, [sp, #24]
100007f38: a900d7f4    	stp	x20, x21, [sp, #8]
100007f3c: f90003f3    	str	x19, [sp]
100007f40: f0000000    	adrp	x0, 0x10000a000 <_barn_version_message+0x5c>
100007f44: 912f4400    	add	x0, x0, #3025
100007f48: 9400053a    	bl	0x100009430 <_strlen+0x100009430>
100007f4c: 52800000    	mov	w0, #0
100007f50: 94000517    	bl	0x1000093ac <_strlen+0x1000093ac>

0000000100007f54 <_barn_no_flags_message>:
100007f54: d10103ff    	sub	sp, sp, #64
100007f58: a9024ff4    	stp	x20, x19, [sp, #32]
100007f5c: a9037bfd    	stp	x29, x30, [sp, #48]
100007f60: aa0003f3    	mov	x19, x0
100007f64: 52800400    	mov	w0, #32
100007f68: 97ffe972    	bl	0x100002530 <_barn_get_bold_color_as_str_code>
100007f6c: aa0003f4    	mov	x20, x0
100007f70: f9400273    	ldr	x19, [x19]
100007f74: 52800000    	mov	w0, #0
100007f78: 97ffe96e    	bl	0x100002530 <_barn_get_bold_color_as_str_code>
100007f7c: a90083f3    	stp	x19, x0, [sp, #8]
100007f80: f90003f4    	str	x20, [sp]
100007f84: f0000000    	adrp	x0, 0x10000a000 <_barn_no_flags_message+0x3c>
100007f88: 912fcc00    	add	x0, x0, #3059
100007f8c: 94000529    	bl	0x100009430 <_strlen+0x100009430>
100007f90: 97ffffd8    	bl	0x100007ef0 <_barn_version_message>

0000000100007f94 <_barn_help_message>:
100007f94: d100c3ff    	sub	sp, sp, #48
100007f98: a9014ff4    	stp	x20, x19, [sp, #16]
100007f9c: a9027bfd    	stp	x29, x30, [sp, #32]
100007fa0: 52800400    	mov	w0, #32
100007fa4: 97ffe963    	bl	0x100002530 <_barn_get_bold_color_as_str_code>
100007fa8: aa0003f3    	mov	x19, x0
100007fac: 52800000    	mov	w0, #0
100007fb0: 97ffe960    	bl	0x100002530 <_barn_get_bold_color_as_str_code>
100007fb4: a90003f3    	stp	x19, x0, [sp]
100007fb8: f0000000    	adrp	x0, 0x10000a000 <_barn_help_message+0x30>
100007fbc: 91303800    	add	x0, x0, #3086
100007fc0: 9400051c    	bl	0x100009430 <_strlen+0x100009430>
100007fc4: 52800420    	mov	w0, #33
100007fc8: 97ffe95a    	bl	0x100002530 <_barn_get_bold_color_as_str_code>
100007fcc: aa0003f3    	mov	x19, x0
100007fd0: 52800000    	mov	w0, #0
100007fd4: 97ffe957    	bl	0x100002530 <_barn_get_bold_color_as_str_code>
100007fd8: a90003f3    	stp	x19, x0, [sp]
100007fdc: f0000000    	adrp	x0, 0x10000a000 <_barn_help_message+0x54>
100007fe0: 91307800    	add	x0, x0, #3102
100007fe4: 94000513    	bl	0x100009430 <_strlen+0x100009430>
100007fe8: 52800480    	mov	w0, #36
100007fec: 97ffe951    	bl	0x100002530 <_barn_get_bold_color_as_str_code>
100007ff0: aa0003f3    	mov	x19, x0
100007ff4: 52800000    	mov	w0, #0
100007ff8: 97ffe94e    	bl	0x100002530 <_barn_get_bold_color_as_str_code>
100007ffc: a90003f3    	stp	x19, x0, [sp]
100008000: d0000000    	adrp	x0, 0x10000a000 <_barn_help_message+0x74>
100008004: 9130b400    	add	x0, x0, #3117
100008008: 9400050a    	bl	0x100009430 <_strlen+0x100009430>
10000800c: 52800480    	mov	w0, #36
100008010: 97ffe948    	bl	0x100002530 <_barn_get_bold_color_as_str_code>
100008014: aa0003f3    	mov	x19, x0
100008018: 52800000    	mov	w0, #0
10000801c: 97ffe945    	bl	0x100002530 <_barn_get_bold_color_as_str_code>
100008020: a90003f3    	stp	x19, x0, [sp]
100008024: d0000000    	adrp	x0, 0x10000a000 <_barn_help_message+0x98>
100008028: 91314400    	add	x0, x0, #3153
10000802c: 94000501    	bl	0x100009430 <_strlen+0x100009430>
100008030: 52800480    	mov	w0, #36
100008034: 97ffe93f    	bl	0x100002530 <_barn_get_bold_color_as_str_code>
100008038: aa0003f3    	mov	x19, x0
10000803c: 52800000    	mov	w0, #0
100008040: 97ffe93c    	bl	0x100002530 <_barn_get_bold_color_as_str_code>
100008044: a90003f3    	stp	x19, x0, [sp]
100008048: d0000000    	adrp	x0, 0x10000a000 <_barn_help_message+0xbc>
10000804c: 91321000    	add	x0, x0, #3204
100008050: 940004f8    	bl	0x100009430 <_strlen+0x100009430>
100008054: 52800480    	mov	w0, #36
100008058: 97ffe936    	bl	0x100002530 <_barn_get_bold_color_as_str_code>
10000805c: aa0003f3    	mov	x19, x0
100008060: 52800000    	mov	w0, #0
100008064: 97ffe933    	bl	0x100002530 <_barn_get_bold_color_as_str_code>
100008068: a90003f3    	stp	x19, x0, [sp]
10000806c: d0000000    	adrp	x0, 0x10000a000 <_barn_help_message+0xe0>
100008070: 91331800    	add	x0, x0, #3270
100008074: 940004ef    	bl	0x100009430 <_strlen+0x100009430>
100008078: 52800480    	mov	w0, #36
10000807c: 97ffe92d    	bl	0x100002530 <_barn_get_bold_color_as_str_code>
100008080: aa0003f3    	mov	x19, x0
100008084: 52800000    	mov	w0, #0
100008088: 97ffe92a    	bl	0x100002530 <_barn_get_bold_color_as_str_code>
10000808c: a90003f3    	stp	x19, x0, [sp]
100008090: d0000000    	adrp	x0, 0x10000a000 <_barn_help_message+0x104>
100008094: 91342800    	add	x0, x0, #3338
100008098: 940004e6    	bl	0x100009430 <_strlen+0x100009430>
10000809c: 52800480    	mov	w0, #36
1000080a0: 97ffe924    	bl	0x100002530 <_barn_get_bold_color_as_str_code>
1000080a4: aa0003f3    	mov	x19, x0
1000080a8: 52800000    	mov	w0, #0
1000080ac: 97ffe921    	bl	0x100002530 <_barn_get_bold_color_as_str_code>
1000080b0: a90003f3    	stp	x19, x0, [sp]
1000080b4: d0000000    	adrp	x0, 0x10000a000 <_barn_help_message+0x128>
1000080b8: 91352000    	add	x0, x0, #3400
1000080bc: 940004dd    	bl	0x100009430 <_strlen+0x100009430>
1000080c0: 52800480    	mov	w0, #36
1000080c4: 97ffe91b    	bl	0x100002530 <_barn_get_bold_color_as_str_code>
1000080c8: aa0003f3    	mov	x19, x0
1000080cc: 52800000    	mov	w0, #0
1000080d0: 97ffe918    	bl	0x100002530 <_barn_get_bold_color_as_str_code>
1000080d4: a90003f3    	stp	x19, x0, [sp]
1000080d8: d0000000    	adrp	x0, 0x10000a000 <_barn_help_message+0x14c>
1000080dc: 91362400    	add	x0, x0, #3465
1000080e0: 940004d4    	bl	0x100009430 <_strlen+0x100009430>
1000080e4: 52800480    	mov	w0, #36
1000080e8: 97ffe912    	bl	0x100002530 <_barn_get_bold_color_as_str_code>
1000080ec: aa0003f3    	mov	x19, x0
1000080f0: 52800000    	mov	w0, #0
1000080f4: 97ffe90f    	bl	0x100002530 <_barn_get_bold_color_as_str_code>
1000080f8: a90003f3    	stp	x19, x0, [sp]
1000080fc: d0000000    	adrp	x0, 0x10000a000 <_barn_help_message+0x170>
100008100: 91371800    	add	x0, x0, #3526
100008104: 940004cb    	bl	0x100009430 <_strlen+0x100009430>
100008108: 52800480    	mov	w0, #36
10000810c: 97ffe909    	bl	0x100002530 <_barn_get_bold_color_as_str_code>
100008110: aa0003f3    	mov	x19, x0
100008114: 52800000    	mov	w0, #0
100008118: 97ffe906    	bl	0x100002530 <_barn_get_bold_color_as_str_code>
10000811c: a90003f3    	stp	x19, x0, [sp]
100008120: d0000000    	adrp	x0, 0x10000a000 <_barn_help_message+0x194>
100008124: 9137e400    	add	x0, x0, #3577
100008128: 940004c2    	bl	0x100009430 <_strlen+0x100009430>
10000812c: 52800000    	mov	w0, #0
100008130: 9400049f    	bl	0x1000093ac <_strlen+0x1000093ac>

0000000100008134 <_barn_node_kind_show>:
100008134: d100c3ff    	sub	sp, sp, #48
100008138: a9027bfd    	stp	x29, x30, [sp, #32]
10000813c: 7100141f    	cmp	w0, #5
100008140: 540000e2    	b.hs	0x10000815c <_barn_node_kind_show+0x28>
100008144: 90000028    	adrp	x8, 0x10000c000 <_barn_node_kind_show+0x20>
100008148: 9106c108    	add	x8, x8, #432
10000814c: f8605900    	ldr	x0, [x8, w0, uxtw  #3]
100008150: a9427bfd    	ldp	x29, x30, [sp, #32]
100008154: 9100c3ff    	add	sp, sp, #48
100008158: d65f03c0    	ret
10000815c: d0000008    	adrp	x8, 0x10000a000 <_barn_node_kind_show+0x30>
100008160: 913b0108    	add	x8, x8, #3776
100008164: 52800549    	mov	w9, #42
100008168: a90123e9    	stp	x9, x8, [sp, #16]
10000816c: d0000008    	adrp	x8, 0x10000a000 <_barn_node_kind_show+0x40>
100008170: 913a5108    	add	x8, x8, #3732
100008174: d0000009    	adrp	x9, 0x10000a000 <_barn_node_kind_show+0x48>
100008178: 913a1d29    	add	x9, x9, #3719
10000817c: a90023e9    	stp	x9, x8, [sp]
100008180: f0000001    	adrp	x1, 0x10000b000 <_barn_node_kind_show+0x58>
100008184: 91159421    	add	x1, x1, #1381
100008188: 528000e0    	mov	w0, #7
10000818c: 97ffea09    	bl	0x1000029b0 <_barn_error_show>
100008190: 52800020    	mov	w0, #1
100008194: 94000486    	bl	0x1000093ac <_strlen+0x1000093ac>

0000000100008198 <_barn_parser_skip>:
100008198: b9801c08    	ldrsw	x8, [x0, #28]
10000819c: 8b21c108    	add	x8, x8, w1, sxtw
1000081a0: b9001c08    	str	w8, [x0, #28]
1000081a4: f9400409    	ldr	x9, [x0, #8]
1000081a8: f9400d29    	ldr	x9, [x9, #24]
1000081ac: b4000109    	cbz	x9, 0x1000081cc <_barn_parser_skip+0x34>
1000081b0: f940052a    	ldr	x10, [x9, #8]
1000081b4: eb08015f    	cmp	x10, x8
1000081b8: 540000a9    	b.ls	0x1000081cc <_barn_parser_skip+0x34>
1000081bc: f9400929    	ldr	x9, [x9, #16]
1000081c0: f8687928    	ldr	x8, [x9, x8, lsl  #3]
1000081c4: f9000808    	str	x8, [x0, #16]
1000081c8: d65f03c0    	ret
1000081cc: f900081f    	str	xzr, [x0, #16]
1000081d0: d65f03c0    	ret

00000001000081d4 <_barn_parser_is_next_token>:
1000081d4: d10083ff    	sub	sp, sp, #32
1000081d8: a9017bfd    	stp	x29, x30, [sp, #16]
1000081dc: f9400808    	ldr	x8, [x0, #16]
1000081e0: b9402109    	ldr	w9, [x8, #32]
1000081e4: 7100053f    	cmp	w9, #1
1000081e8: 54000440    	b.eq	0x100008270 <_barn_parser_is_next_token+0x9c>
1000081ec: b9401c09    	ldr	w9, [x0, #28]
1000081f0: 93407d28    	sxtw	x8, w9
1000081f4: 9100050b    	add	x11, x8, #1
1000081f8: b9001c0b    	str	w11, [x0, #28]
1000081fc: f940040a    	ldr	x10, [x0, #8]
100008200: f9400d4c    	ldr	x12, [x10, #24]
100008204: b40000ec    	cbz	x12, 0x100008220 <_barn_parser_is_next_token+0x4c>
100008208: f940058d    	ldr	x13, [x12, #8]
10000820c: eb0b01bf    	cmp	x13, x11
100008210: 54000089    	b.ls	0x100008220 <_barn_parser_is_next_token+0x4c>
100008214: f940098c    	ldr	x12, [x12, #16]
100008218: f86b798b    	ldr	x11, [x12, x11, lsl  #3]
10000821c: 14000002    	b	0x100008224 <_barn_parser_is_next_token+0x50>
100008220: d280000b    	mov	x11, #0
100008224: f900080b    	str	x11, [x0, #16]
100008228: b940216b    	ldr	w11, [x11, #32]
10000822c: b9001c09    	str	w9, [x0, #28]
100008230: f9400d49    	ldr	x9, [x10, #24]
100008234: b4000109    	cbz	x9, 0x100008254 <_barn_parser_is_next_token+0x80>
100008238: f940052a    	ldr	x10, [x9, #8]
10000823c: eb08015f    	cmp	x10, x8
100008240: 54000089    	b.ls	0x100008250 <_barn_parser_is_next_token+0x7c>
100008244: f9400929    	ldr	x9, [x9, #16]
100008248: f8687929    	ldr	x9, [x9, x8, lsl  #3]
10000824c: 14000002    	b	0x100008254 <_barn_parser_is_next_token+0x80>
100008250: d2800009    	mov	x9, #0
100008254: 6b01017f    	cmp	w11, w1
100008258: 1a9f17e8    	cset	w8, eq
10000825c: f9000809    	str	x9, [x0, #16]
100008260: aa0803e0    	mov	x0, x8
100008264: a9417bfd    	ldp	x29, x30, [sp, #16]
100008268: 910083ff    	add	sp, sp, #32
10000826c: d65f03c0    	ret
100008270: 2943250a    	ldp	w10, w9, [x8, #24]
100008274: 51000523    	sub	w3, w9, #1
100008278: 51000544    	sub	w4, w10, #1
10000827c: a9409902    	ldp	x2, x6, [x8, #8]
100008280: f0000008    	adrp	x8, 0x10000b000 <_barn_parser_is_next_token+0xb8>
100008284: 9108bd08    	add	x8, x8, #559
100008288: f90003e8    	str	x8, [sp]
10000828c: d0000007    	adrp	x7, 0x10000a000 <_barn_parser_is_next_token+0xc0>
100008290: 913b50e7    	add	x7, x7, #3796
100008294: 52800041    	mov	w1, #2
100008298: 52800005    	mov	w5, #0
10000829c: 97ffe904    	bl	0x1000026ac <_barn_error_show_with_line>
1000082a0: 52800020    	mov	w0, #1
1000082a4: 94000442    	bl	0x1000093ac <_strlen+0x1000093ac>

00000001000082a8 <_barn_parser_is_id_keyword>:
1000082a8: a9be4ff4    	stp	x20, x19, [sp, #-32]!
1000082ac: a9017bfd    	stp	x29, x30, [sp, #16]
1000082b0: aa0003f3    	mov	x19, x0
1000082b4: d0000000    	adrp	x0, 0x10000a000 <_barn_parser_is_id_keyword+0x14>
1000082b8: 913d6800    	add	x0, x0, #3930
1000082bc: aa1303e1    	mov	x1, x19
1000082c0: 94000462    	bl	0x100009448 <_strlen+0x100009448>
1000082c4: 34000920    	cbz	w0, 0x1000083e8 <_barn_parser_is_id_keyword+0x140>
1000082c8: f0000000    	adrp	x0, 0x10000b000 <_barn_parser_is_id_keyword+0x2c>
1000082cc: 9102b000    	add	x0, x0, #172
1000082d0: aa1303e1    	mov	x1, x19
1000082d4: 9400045d    	bl	0x100009448 <_strlen+0x100009448>
1000082d8: 34000880    	cbz	w0, 0x1000083e8 <_barn_parser_is_id_keyword+0x140>
1000082dc: f0000000    	adrp	x0, 0x10000b000 <_barn_parser_is_id_keyword+0x40>
1000082e0: 9102cc00    	add	x0, x0, #179
1000082e4: aa1303e1    	mov	x1, x19
1000082e8: 94000458    	bl	0x100009448 <_strlen+0x100009448>
1000082ec: 340007e0    	cbz	w0, 0x1000083e8 <_barn_parser_is_id_keyword+0x140>
1000082f0: f0000000    	adrp	x0, 0x10000b000 <_barn_parser_is_id_keyword+0x54>
1000082f4: 9102f400    	add	x0, x0, #189
1000082f8: aa1303e1    	mov	x1, x19
1000082fc: 94000453    	bl	0x100009448 <_strlen+0x100009448>
100008300: 34000740    	cbz	w0, 0x1000083e8 <_barn_parser_is_id_keyword+0x140>
100008304: d0000000    	adrp	x0, 0x10000a000 <_barn_parser_is_id_keyword+0x64>
100008308: 913d9400    	add	x0, x0, #3941
10000830c: aa1303e1    	mov	x1, x19
100008310: 9400044e    	bl	0x100009448 <_strlen+0x100009448>
100008314: 340006a0    	cbz	w0, 0x1000083e8 <_barn_parser_is_id_keyword+0x140>
100008318: f0000000    	adrp	x0, 0x10000b000 <_barn_parser_is_id_keyword+0x7c>
10000831c: 91031400    	add	x0, x0, #197
100008320: aa1303e1    	mov	x1, x19
100008324: 94000449    	bl	0x100009448 <_strlen+0x100009448>
100008328: 34000600    	cbz	w0, 0x1000083e8 <_barn_parser_is_id_keyword+0x140>
10000832c: d0000000    	adrp	x0, 0x10000a000 <_barn_parser_is_id_keyword+0x8c>
100008330: 913d7800    	add	x0, x0, #3934
100008334: aa1303e1    	mov	x1, x19
100008338: 94000444    	bl	0x100009448 <_strlen+0x100009448>
10000833c: 34000560    	cbz	w0, 0x1000083e8 <_barn_parser_is_id_keyword+0x140>
100008340: f0000000    	adrp	x0, 0x10000b000 <_barn_parser_is_id_keyword+0xa4>
100008344: 91032c00    	add	x0, x0, #203
100008348: aa1303e1    	mov	x1, x19
10000834c: 9400043f    	bl	0x100009448 <_strlen+0x100009448>
100008350: 340004c0    	cbz	w0, 0x1000083e8 <_barn_parser_is_id_keyword+0x140>
100008354: f0000000    	adrp	x0, 0x10000b000 <_barn_parser_is_id_keyword+0xb8>
100008358: 91033800    	add	x0, x0, #206
10000835c: aa1303e1    	mov	x1, x19
100008360: 9400043a    	bl	0x100009448 <_strlen+0x100009448>
100008364: 34000420    	cbz	w0, 0x1000083e8 <_barn_parser_is_id_keyword+0x140>
100008368: f0000000    	adrp	x0, 0x10000b000 <_barn_parser_is_id_keyword+0xcc>
10000836c: 91034c00    	add	x0, x0, #211
100008370: aa1303e1    	mov	x1, x19
100008374: 94000435    	bl	0x100009448 <_strlen+0x100009448>
100008378: 34000380    	cbz	w0, 0x1000083e8 <_barn_parser_is_id_keyword+0x140>
10000837c: f0000000    	adrp	x0, 0x10000b000 <_barn_parser_is_id_keyword+0xe0>
100008380: 91036000    	add	x0, x0, #216
100008384: aa1303e1    	mov	x1, x19
100008388: 94000430    	bl	0x100009448 <_strlen+0x100009448>
10000838c: 340002e0    	cbz	w0, 0x1000083e8 <_barn_parser_is_id_keyword+0x140>
100008390: f0000000    	adrp	x0, 0x10000b000 <_barn_parser_is_id_keyword+0xf4>
100008394: 91037800    	add	x0, x0, #222
100008398: aa1303e1    	mov	x1, x19
10000839c: 9400042b    	bl	0x100009448 <_strlen+0x100009448>
1000083a0: 34000240    	cbz	w0, 0x1000083e8 <_barn_parser_is_id_keyword+0x140>
1000083a4: f0000000    	adrp	x0, 0x10000b000 <_barn_parser_is_id_keyword+0x108>
1000083a8: 91039c00    	add	x0, x0, #231
1000083ac: aa1303e1    	mov	x1, x19
1000083b0: 94000426    	bl	0x100009448 <_strlen+0x100009448>
1000083b4: 340001a0    	cbz	w0, 0x1000083e8 <_barn_parser_is_id_keyword+0x140>
1000083b8: f0000000    	adrp	x0, 0x10000b000 <_barn_parser_is_id_keyword+0x11c>
1000083bc: 9103b400    	add	x0, x0, #237
1000083c0: aa1303e1    	mov	x1, x19
1000083c4: 94000421    	bl	0x100009448 <_strlen+0x100009448>
1000083c8: 34000100    	cbz	w0, 0x1000083e8 <_barn_parser_is_id_keyword+0x140>
1000083cc: f0000000    	adrp	x0, 0x10000b000 <_barn_parser_is_id_keyword+0x130>
1000083d0: 9103c400    	add	x0, x0, #241
1000083d4: aa1303e1    	mov	x1, x19
1000083d8: 9400041c    	bl	0x100009448 <_strlen+0x100009448>
1000083dc: 7100001f    	cmp	w0, #0
1000083e0: 1a9f17e0    	cset	w0, eq
1000083e4: 14000002    	b	0x1000083ec <_barn_parser_is_id_keyword+0x144>
1000083e8: 52800020    	mov	w0, #1
1000083ec: a9417bfd    	ldp	x29, x30, [sp, #16]
1000083f0: a8c24ff4    	ldp	x20, x19, [sp], #32
1000083f4: d65f03c0    	ret

00000001000083f8 <_barn_std_get_path>:
1000083f8: d10143ff    	sub	sp, sp, #80
1000083fc: a90257f6    	stp	x22, x21, [sp, #32]
100008400: a9034ff4    	stp	x20, x19, [sp, #48]
100008404: a9047bfd    	stp	x29, x30, [sp, #64]
100008408: f0000000    	adrp	x0, 0x10000b000 <_barn_std_get_path+0x1c>
10000840c: 9103e000    	add	x0, x0, #248
100008410: 94000402    	bl	0x100009418 <_strlen+0x100009418>
100008414: aa0003f4    	mov	x20, x0
100008418: 9400040f    	bl	0x100009454 <_strlen+0x100009454>
10000841c: aa0003f3    	mov	x19, x0
100008420: f0000015    	adrp	x21, 0x10000b000 <_barn_std_get_path+0x34>
100008424: 9103f6b5    	add	x21, x21, #253
100008428: aa1503e0    	mov	x0, x21
10000842c: 9400040a    	bl	0x100009454 <_strlen+0x100009454>
100008430: 8b000268    	add	x8, x19, x0
100008434: 91000500    	add	x0, x8, #1
100008438: 52800021    	mov	w1, #1
10000843c: 940003d9    	bl	0x1000093a0 <_strlen+0x1000093a0>
100008440: aa0003f3    	mov	x19, x0
100008444: a90057f4    	stp	x20, x21, [sp]
100008448: f0000003    	adrp	x3, 0x10000b000 <_barn_std_get_path+0x5c>
10000844c: 91041063    	add	x3, x3, #260
100008450: 52800001    	mov	w1, #0
100008454: 92800002    	mov	x2, #-1
100008458: 940003c0    	bl	0x100009358 <_strlen+0x100009358>
10000845c: aa1303e0    	mov	x0, x19
100008460: 940003fd    	bl	0x100009454 <_strlen+0x100009454>
100008464: 91000400    	add	x0, x0, #1
100008468: 52800021    	mov	w1, #1
10000846c: 940003cd    	bl	0x1000093a0 <_strlen+0x1000093a0>
100008470: b4000160    	cbz	x0, 0x10000849c <_barn_std_get_path+0xa4>
100008474: aa0003f4    	mov	x20, x0
100008478: aa1303e1    	mov	x1, x19
10000847c: 92800002    	mov	x2, #-1
100008480: 940003b9    	bl	0x100009364 <_strlen+0x100009364>
100008484: aa1403e0    	mov	x0, x20
100008488: a9447bfd    	ldp	x29, x30, [sp, #64]
10000848c: a9434ff4    	ldp	x20, x19, [sp, #48]
100008490: a94257f6    	ldp	x22, x21, [sp, #32]
100008494: 910143ff    	add	sp, sp, #80
100008498: d65f03c0    	ret
10000849c: 528003c8    	mov	w8, #30
1000084a0: f0000009    	adrp	x9, 0x10000b000 <_barn_std_get_path+0xb4>
1000084a4: 91048d29    	add	x9, x9, #291
1000084a8: a90123e9    	stp	x9, x8, [sp, #16]
1000084ac: f0000008    	adrp	x8, 0x10000b000 <_barn_std_get_path+0xc0>
1000084b0: 91045508    	add	x8, x8, #277
1000084b4: f0000009    	adrp	x9, 0x10000b000 <_barn_std_get_path+0xc8>
1000084b8: 91042929    	add	x9, x9, #266
1000084bc: a90023e9    	stp	x9, x8, [sp]
1000084c0: f0000001    	adrp	x1, 0x10000b000 <_barn_std_get_path+0xd4>
1000084c4: 910ea421    	add	x1, x1, #937
1000084c8: 528000e0    	mov	w0, #7
1000084cc: 97ffe939    	bl	0x1000029b0 <_barn_error_show>
1000084d0: 52800020    	mov	w0, #1
1000084d4: 940003b6    	bl	0x1000093ac <_strlen+0x1000093ac>

00000001000084d8 <_barn_append_string_to_allocated_string>:
1000084d8: d10183ff    	sub	sp, sp, #96
1000084dc: a9025ff8    	stp	x24, x23, [sp, #32]
1000084e0: a90357f6    	stp	x22, x21, [sp, #48]
1000084e4: a9044ff4    	stp	x20, x19, [sp, #64]
1000084e8: a9057bfd    	stp	x29, x30, [sp, #80]
1000084ec: aa0103f3    	mov	x19, x1
1000084f0: aa0003f4    	mov	x20, x0
1000084f4: d2800016    	mov	x22, #0
1000084f8: aa1303e0    	mov	x0, x19
1000084fc: 940003d6    	bl	0x100009454 <_strlen+0x100009454>
100008500: eb16001f    	cmp	x0, x22
100008504: 54000249    	b.ls	0x10000854c <_barn_append_string_to_allocated_string+0x74>
100008508: 38766a77    	ldrb	w23, [x19, x22]
10000850c: f9400280    	ldr	x0, [x20]
100008510: b40000a0    	cbz	x0, 0x100008524 <_barn_append_string_to_allocated_string+0x4c>
100008514: 940003d0    	bl	0x100009454 <_strlen+0x100009454>
100008518: aa0003f5    	mov	x21, x0
10000851c: f9400280    	ldr	x0, [x20]
100008520: 14000002    	b	0x100008528 <_barn_append_string_to_allocated_string+0x50>
100008524: d2800015    	mov	x21, #0
100008528: 91000aa1    	add	x1, x21, #2
10000852c: 940003c4    	bl	0x10000943c <_strlen+0x10000943c>
100008530: b40001a0    	cbz	x0, 0x100008564 <_barn_append_string_to_allocated_string+0x8c>
100008534: 8b150008    	add	x8, x0, x21
100008538: 39000117    	strb	w23, [x8]
10000853c: 3900051f    	strb	wzr, [x8, #1]
100008540: f9000280    	str	x0, [x20]
100008544: 910006d6    	add	x22, x22, #1
100008548: 17ffffec    	b	0x1000084f8 <_barn_append_string_to_allocated_string+0x20>
10000854c: a9457bfd    	ldp	x29, x30, [sp, #80]
100008550: a9444ff4    	ldp	x20, x19, [sp, #64]
100008554: a94357f6    	ldp	x22, x21, [sp, #48]
100008558: a9425ff8    	ldp	x24, x23, [sp, #32]
10000855c: 910183ff    	add	sp, sp, #96
100008560: d65f03c0    	ret
100008564: 528006a8    	mov	w8, #53
100008568: f0000009    	adrp	x9, 0x10000b000 <_barn_append_string_to_allocated_string+0x9c>
10000856c: 9105e129    	add	x9, x9, #376
100008570: a90123e9    	stp	x9, x8, [sp, #16]
100008574: f0000008    	adrp	x8, 0x10000b000 <_barn_append_string_to_allocated_string+0xa8>
100008578: 91045508    	add	x8, x8, #277
10000857c: f0000009    	adrp	x9, 0x10000b000 <_barn_append_string_to_allocated_string+0xb0>
100008580: 9105c129    	add	x9, x9, #368
100008584: a90023e9    	stp	x9, x8, [sp]
100008588: f0000001    	adrp	x1, 0x10000b000 <_barn_append_string_to_allocated_string+0xbc>
10000858c: 910ea421    	add	x1, x1, #937
100008590: 528000e0    	mov	w0, #7
100008594: 97ffe907    	bl	0x1000029b0 <_barn_error_show>
100008598: 52800020    	mov	w0, #1
10000859c: 94000384    	bl	0x1000093ac <_strlen+0x1000093ac>

00000001000085a0 <_barn_create_token>:
1000085a0: d101c3ff    	sub	sp, sp, #112
1000085a4: a90267fa    	stp	x26, x25, [sp, #32]
1000085a8: a9035ff8    	stp	x24, x23, [sp, #48]
1000085ac: a90457f6    	stp	x22, x21, [sp, #64]
1000085b0: a9054ff4    	stp	x20, x19, [sp, #80]
1000085b4: a9067bfd    	stp	x29, x30, [sp, #96]
1000085b8: aa0503f3    	mov	x19, x5
1000085bc: aa0403f4    	mov	x20, x4
1000085c0: aa0303f5    	mov	x21, x3
1000085c4: aa0203f6    	mov	x22, x2
1000085c8: aa0103f7    	mov	x23, x1
1000085cc: aa0003f8    	mov	x24, x0
1000085d0: 52800020    	mov	w0, #1
1000085d4: 52800501    	mov	w1, #40
1000085d8: 94000372    	bl	0x1000093a0 <_strlen+0x1000093a0>
1000085dc: aa0003f9    	mov	x25, x0
1000085e0: aa1803e0    	mov	x0, x24
1000085e4: 9400039c    	bl	0x100009454 <_strlen+0x100009454>
1000085e8: 91000400    	add	x0, x0, #1
1000085ec: 52800021    	mov	w1, #1
1000085f0: 9400036c    	bl	0x1000093a0 <_strlen+0x1000093a0>
1000085f4: b4000220    	cbz	x0, 0x100008638 <_barn_create_token+0x98>
1000085f8: aa0003fa    	mov	x26, x0
1000085fc: aa1803e1    	mov	x1, x24
100008600: 92800002    	mov	x2, #-1
100008604: 94000358    	bl	0x100009364 <_strlen+0x100009364>
100008608: a9005f3a    	stp	x26, x23, [x25]
10000860c: f9000b36    	str	x22, [x25, #16]
100008610: 29035335    	stp	w21, w20, [x25, #24]
100008614: b9002333    	str	w19, [x25, #32]
100008618: aa1903e0    	mov	x0, x25
10000861c: a9467bfd    	ldp	x29, x30, [sp, #96]
100008620: a9454ff4    	ldp	x20, x19, [sp, #80]
100008624: a94457f6    	ldp	x22, x21, [sp, #64]
100008628: a9435ff8    	ldp	x24, x23, [sp, #48]
10000862c: a94267fa    	ldp	x26, x25, [sp, #32]
100008630: 9101c3ff    	add	sp, sp, #112
100008634: d65f03c0    	ret
100008638: 528003c8    	mov	w8, #30
10000863c: f0000009    	adrp	x9, 0x10000b000 <_barn_create_token+0xa8>
100008640: 91048d29    	add	x9, x9, #291
100008644: a90123e9    	stp	x9, x8, [sp, #16]
100008648: f0000008    	adrp	x8, 0x10000b000 <_barn_create_token+0xb4>
10000864c: 91045508    	add	x8, x8, #277
100008650: f0000009    	adrp	x9, 0x10000b000 <_barn_create_token+0xbc>
100008654: 91042929    	add	x9, x9, #266
100008658: a90023e9    	stp	x9, x8, [sp]
10000865c: f0000001    	adrp	x1, 0x10000b000 <_barn_create_token+0xc8>
100008660: 910ea421    	add	x1, x1, #937
100008664: 528000e0    	mov	w0, #7
100008668: 97ffe8d2    	bl	0x1000029b0 <_barn_error_show>
10000866c: 52800020    	mov	w0, #1
100008670: 9400034f    	bl	0x1000093ac <_strlen+0x1000093ac>

0000000100008674 <_barn_tc_expression_check>:
100008674: d101c3ff    	sub	sp, sp, #112
100008678: a90267fa    	stp	x26, x25, [sp, #32]
10000867c: a9035ff8    	stp	x24, x23, [sp, #48]
100008680: a90457f6    	stp	x22, x21, [sp, #64]
100008684: a9054ff4    	stp	x20, x19, [sp, #80]
100008688: a9067bfd    	stp	x29, x30, [sp, #96]
10000868c: aa0003f3    	mov	x19, x0
100008690: f9402437    	ldr	x23, [x1, #72]
100008694: f94006e8    	ldr	x8, [x23, #8]
100008698: f100051f    	cmp	x8, #1
10000869c: 54000101    	b.ne	0x1000086bc <_barn_tc_expression_check+0x48>
1000086a0: f9400ae8    	ldr	x8, [x23, #16]
1000086a4: f9400108    	ldr	x8, [x8]
1000086a8: f9400109    	ldr	x9, [x8]
1000086ac: 39404529    	ldrb	w9, [x9, #17]
1000086b0: 35000069    	cbnz	w9, 0x1000086bc <_barn_tc_expression_check+0x48>
1000086b4: f9400508    	ldr	x8, [x8, #8]
1000086b8: b4001628    	cbz	x8, 0x10000897c <_barn_tc_expression_check+0x308>
1000086bc: f9400ae8    	ldr	x8, [x23, #16]
1000086c0: f9400108    	ldr	x8, [x8]
1000086c4: f9400108    	ldr	x8, [x8]
1000086c8: 39404509    	ldrb	w9, [x8, #17]
1000086cc: 34000149    	cbz	w9, 0x1000086f4 <_barn_tc_expression_check+0x80>
1000086d0: f9400d01    	ldr	x1, [x8, #24]
1000086d4: aa1303e0    	mov	x0, x19
1000086d8: a9467bfd    	ldp	x29, x30, [sp, #96]
1000086dc: a9454ff4    	ldp	x20, x19, [sp, #80]
1000086e0: a94457f6    	ldp	x22, x21, [sp, #64]
1000086e4: a9435ff8    	ldp	x24, x23, [sp, #48]
1000086e8: a94267fa    	ldp	x26, x25, [sp, #32]
1000086ec: 9101c3ff    	add	sp, sp, #112
1000086f0: 140000f0    	b	0x100008ab0 <_barn_tc_func_call_check>
1000086f4: f0000000    	adrp	x0, 0x10000b000 <_barn_tc_expression_check+0x8c>
1000086f8: 910dac00    	add	x0, x0, #875
1000086fc: 9400034d    	bl	0x100009430 <_strlen+0x100009430>
100008700: f94006e8    	ldr	x8, [x23, #8]
100008704: b40012a8    	cbz	x8, 0x100008958 <_barn_tc_expression_check+0x2e4>
100008708: f9400ae8    	ldr	x8, [x23, #16]
10000870c: f9400114    	ldr	x20, [x8]
100008710: f9400288    	ldr	x8, [x20]
100008714: aa1403f8    	mov	x24, x20
100008718: f8408f09    	ldr	x9, [x24, #8]!
10000871c: a90027e8    	stp	x8, x9, [sp]
100008720: f0000000    	adrp	x0, 0x10000b000 <_barn_tc_expression_check+0xb8>
100008724: 910dc400    	add	x0, x0, #881
100008728: 94000342    	bl	0x100009430 <_strlen+0x100009430>
10000872c: f9400308    	ldr	x8, [x24]
100008730: b4000288    	cbz	x8, 0x100008780 <_barn_tc_expression_check+0x10c>
100008734: 39404509    	ldrb	w9, [x8, #17]
100008738: 340000c9    	cbz	w9, 0x100008750 <_barn_tc_expression_check+0xdc>
10000873c: f9400d01    	ldr	x1, [x8, #24]
100008740: aa1303e0    	mov	x0, x19
100008744: 940000db    	bl	0x100008ab0 <_barn_tc_func_call_check>
100008748: f9400308    	ldr	x8, [x24]
10000874c: b40001a8    	cbz	x8, 0x100008780 <_barn_tc_expression_check+0x10c>
100008750: f940029a    	ldr	x26, [x20]
100008754: 39404749    	ldrb	w9, [x26, #17]
100008758: 340000a9    	cbz	w9, 0x10000876c <_barn_tc_expression_check+0xf8>
10000875c: f9400f41    	ldr	x1, [x26, #24]
100008760: aa1303e0    	mov	x0, x19
100008764: 940000d3    	bl	0x100008ab0 <_barn_tc_func_call_check>
100008768: a940229a    	ldp	x26, x8, [x20]
10000876c: f9400756    	ldr	x22, [x26, #8]
100008770: f9400501    	ldr	x1, [x8, #8]
100008774: aa1603e0    	mov	x0, x22
100008778: 9400011b    	bl	0x100008be4 <_barn_tc_does_types_collides>
10000877c: 370010e0    	tbnz	w0, #0, 0x100008998 <_barn_tc_expression_check+0x324>
100008780: f94006e8    	ldr	x8, [x23, #8]
100008784: f100091f    	cmp	x8, #2
100008788: 54000e83    	b.lo	0x100008958 <_barn_tc_expression_check+0x2e4>
10000878c: d2800019    	mov	x25, #0
100008790: f0000014    	adrp	x20, 0x10000b000 <_barn_tc_expression_check+0x128>
100008794: 910dc694    	add	x20, x20, #881
100008798: f0000015    	adrp	x21, 0x10000b000 <_barn_tc_expression_check+0x130>
10000879c: 91114ab5    	add	x21, x21, #1106
1000087a0: 1400000b    	b	0x1000087cc <_barn_tc_expression_check+0x158>
1000087a4: f9400756    	ldr	x22, [x26, #8]
1000087a8: f9400501    	ldr	x1, [x8, #8]
1000087ac: aa1603e0    	mov	x0, x22
1000087b0: 9400010d    	bl	0x100008be4 <_barn_tc_does_types_collides>
1000087b4: 35000f20    	cbnz	w0, 0x100008998 <_barn_tc_expression_check+0x324>
1000087b8: f94006e8    	ldr	x8, [x23, #8]
1000087bc: 91000b29    	add	x9, x25, #2
1000087c0: 91000739    	add	x25, x25, #1
1000087c4: eb09011f    	cmp	x8, x9
1000087c8: 54000c89    	b.ls	0x100008958 <_barn_tc_expression_check+0x2e4>
1000087cc: 91000729    	add	x9, x25, #1
1000087d0: eb09011f    	cmp	x8, x9
1000087d4: 540000a9    	b.ls	0x1000087e8 <_barn_tc_expression_check+0x174>
1000087d8: f9400ae8    	ldr	x8, [x23, #16]
1000087dc: 8b190d08    	add	x8, x8, x25, lsl #3
1000087e0: f9400516    	ldr	x22, [x8, #8]
1000087e4: 14000002    	b	0x1000087ec <_barn_tc_expression_check+0x178>
1000087e8: d2800016    	mov	x22, #0
1000087ec: f94002c8    	ldr	x8, [x22]
1000087f0: aa1603f8    	mov	x24, x22
1000087f4: f8408f09    	ldr	x9, [x24, #8]!
1000087f8: a90027e8    	stp	x8, x9, [sp]
1000087fc: aa1403e0    	mov	x0, x20
100008800: 9400030c    	bl	0x100009430 <_strlen+0x100009430>
100008804: f9400308    	ldr	x8, [x24]
100008808: b40000c8    	cbz	x8, 0x100008820 <_barn_tc_expression_check+0x1ac>
10000880c: 39404509    	ldrb	w9, [x8, #17]
100008810: 34000089    	cbz	w9, 0x100008820 <_barn_tc_expression_check+0x1ac>
100008814: f9400d01    	ldr	x1, [x8, #24]
100008818: aa1303e0    	mov	x0, x19
10000881c: 940000a5    	bl	0x100008ab0 <_barn_tc_func_call_check>
100008820: f94002da    	ldr	x26, [x22]
100008824: b400015a    	cbz	x26, 0x10000884c <_barn_tc_expression_check+0x1d8>
100008828: f9400308    	ldr	x8, [x24]
10000882c: b4000108    	cbz	x8, 0x10000884c <_barn_tc_expression_check+0x1d8>
100008830: 39404749    	ldrb	w9, [x26, #17]
100008834: 34fffb89    	cbz	w9, 0x1000087a4 <_barn_tc_expression_check+0x130>
100008838: f9400f41    	ldr	x1, [x26, #24]
10000883c: aa1303e0    	mov	x0, x19
100008840: 9400009c    	bl	0x100008ab0 <_barn_tc_func_call_check>
100008844: a94022da    	ldp	x26, x8, [x22]
100008848: 17ffffd7    	b	0x1000087a4 <_barn_tc_expression_check+0x130>
10000884c: f94006e8    	ldr	x8, [x23, #8]
100008850: eb19011f    	cmp	x8, x25
100008854: 540000a9    	b.ls	0x100008868 <_barn_tc_expression_check+0x1f4>
100008858: f9400ae8    	ldr	x8, [x23, #16]
10000885c: f8797916    	ldr	x22, [x8, x25, lsl  #3]
100008860: b50000da    	cbnz	x26, 0x100008878 <_barn_tc_expression_check+0x204>
100008864: 14000003    	b	0x100008870 <_barn_tc_expression_check+0x1fc>
100008868: d2800016    	mov	x22, #0
10000886c: b500007a    	cbnz	x26, 0x100008878 <_barn_tc_expression_check+0x204>
100008870: f9400308    	ldr	x8, [x24]
100008874: b4000208    	cbz	x8, 0x1000088b4 <_barn_tc_expression_check+0x240>
100008878: f94006da    	ldr	x26, [x22, #8]
10000887c: b4fff9fa    	cbz	x26, 0x1000087b8 <_barn_tc_expression_check+0x144>
100008880: 39404748    	ldrb	w8, [x26, #17]
100008884: 340000a8    	cbz	w8, 0x100008898 <_barn_tc_expression_check+0x224>
100008888: f9400f41    	ldr	x1, [x26, #24]
10000888c: aa1303e0    	mov	x0, x19
100008890: 94000088    	bl	0x100008ab0 <_barn_tc_func_call_check>
100008894: f94006da    	ldr	x26, [x22, #8]
100008898: f9400308    	ldr	x8, [x24]
10000889c: f9400756    	ldr	x22, [x26, #8]
1000088a0: f9400501    	ldr	x1, [x8, #8]
1000088a4: aa1603e0    	mov	x0, x22
1000088a8: 940000cf    	bl	0x100008be4 <_barn_tc_does_types_collides>
1000088ac: 34fff860    	cbz	w0, 0x1000087b8 <_barn_tc_expression_check+0x144>
1000088b0: 14000050    	b	0x1000089f0 <_barn_tc_expression_check+0x37c>
1000088b4: 11000b28    	add	w8, w25, #2
1000088b8: f9400ae9    	ldr	x9, [x23, #16]
1000088bc: f8685928    	ldr	x8, [x9, w8, uxtw  #3]
1000088c0: f9400118    	ldr	x24, [x8]
1000088c4: b5000058    	cbnz	x24, 0x1000088cc <_barn_tc_expression_check+0x258>
1000088c8: f9400518    	ldr	x24, [x8, #8]
1000088cc: f94006da    	ldr	x26, [x22, #8]
1000088d0: b4000c1a    	cbz	x26, 0x100008a50 <_barn_tc_expression_check+0x3dc>
1000088d4: b4000d18    	cbz	x24, 0x100008a74 <_barn_tc_expression_check+0x400>
1000088d8: 39404748    	ldrb	w8, [x26, #17]
1000088dc: 34000088    	cbz	w8, 0x1000088ec <_barn_tc_expression_check+0x278>
1000088e0: f9400f41    	ldr	x1, [x26, #24]
1000088e4: aa1303e0    	mov	x0, x19
1000088e8: 94000072    	bl	0x100008ab0 <_barn_tc_func_call_check>
1000088ec: 39404708    	ldrb	w8, [x24, #17]
1000088f0: 34000088    	cbz	w8, 0x100008900 <_barn_tc_expression_check+0x28c>
1000088f4: f9400f01    	ldr	x1, [x24, #24]
1000088f8: aa1303e0    	mov	x0, x19
1000088fc: 9400006d    	bl	0x100008ab0 <_barn_tc_func_call_check>
100008900: f9400348    	ldr	x8, [x26]
100008904: f9400108    	ldr	x8, [x8]
100008908: f9400309    	ldr	x9, [x24]
10000890c: f9400129    	ldr	x9, [x9]
100008910: a90027e8    	stp	x8, x9, [sp]
100008914: aa1503e0    	mov	x0, x21
100008918: 940002c6    	bl	0x100009430 <_strlen+0x100009430>
10000891c: f9400756    	ldr	x22, [x26, #8]
100008920: f9400701    	ldr	x1, [x24, #8]
100008924: aa1603e0    	mov	x0, x22
100008928: 940000af    	bl	0x100008be4 <_barn_tc_does_types_collides>
10000892c: 34fff460    	cbz	w0, 0x1000087b8 <_barn_tc_expression_check+0x144>
100008930: f9400348    	ldr	x8, [x26]
100008934: 29432909    	ldp	w9, w10, [x8, #24]
100008938: a940cd14    	ldp	x20, x19, [x8, #8]
10000893c: 51000555    	sub	w21, w10, #1
100008940: 51000537    	sub	w23, w9, #1
100008944: b94002c0    	ldr	w0, [x22]
100008948: 94000231    	bl	0x10000920c <_barn_convert_type_to_string>
10000894c: aa0003f6    	mov	x22, x0
100008950: f9400708    	ldr	x8, [x24, #8]
100008954: 14000031    	b	0x100008a18 <_barn_tc_expression_check+0x3a4>
100008958: f0000000    	adrp	x0, 0x10000b000 <_barn_tc_expression_check+0x2f0>
10000895c: 91116400    	add	x0, x0, #1113
100008960: a9467bfd    	ldp	x29, x30, [sp, #96]
100008964: a9454ff4    	ldp	x20, x19, [sp, #80]
100008968: a94457f6    	ldp	x22, x21, [sp, #64]
10000896c: a9435ff8    	ldp	x24, x23, [sp, #48]
100008970: a94267fa    	ldp	x26, x25, [sp, #32]
100008974: 9101c3ff    	add	sp, sp, #112
100008978: 140002ae    	b	0x100009430 <_strlen+0x100009430>
10000897c: a9467bfd    	ldp	x29, x30, [sp, #96]
100008980: a9454ff4    	ldp	x20, x19, [sp, #80]
100008984: a94457f6    	ldp	x22, x21, [sp, #64]
100008988: a9435ff8    	ldp	x24, x23, [sp, #48]
10000898c: a94267fa    	ldp	x26, x25, [sp, #32]
100008990: 9101c3ff    	add	sp, sp, #112
100008994: d65f03c0    	ret
100008998: f9400348    	ldr	x8, [x26]
10000899c: 2943250a    	ldp	w10, w9, [x8, #24]
1000089a0: 51000533    	sub	w19, w9, #1
1000089a4: 51000554    	sub	w20, w10, #1
1000089a8: a940dd15    	ldp	x21, x23, [x8, #8]
1000089ac: b94002c0    	ldr	w0, [x22]
1000089b0: 94000217    	bl	0x10000920c <_barn_convert_type_to_string>
1000089b4: aa0003f6    	mov	x22, x0
1000089b8: f9400308    	ldr	x8, [x24]
1000089bc: f9400508    	ldr	x8, [x8, #8]
1000089c0: b9400100    	ldr	w0, [x8]
1000089c4: 94000212    	bl	0x10000920c <_barn_convert_type_to_string>
1000089c8: a90003f6    	stp	x22, x0, [sp]
1000089cc: f0000007    	adrp	x7, 0x10000b000 <_barn_tc_expression_check+0x364>
1000089d0: 910e0ce7    	add	x7, x7, #899
1000089d4: 528000a1    	mov	w1, #5
1000089d8: aa1503e2    	mov	x2, x21
1000089dc: aa1303e3    	mov	x3, x19
1000089e0: aa1403e4    	mov	x4, x20
1000089e4: 52800005    	mov	w5, #0
1000089e8: aa1703e6    	mov	x6, x23
1000089ec: 14000016    	b	0x100008a44 <_barn_tc_expression_check+0x3d0>
1000089f0: f9400348    	ldr	x8, [x26]
1000089f4: 29432909    	ldp	w9, w10, [x8, #24]
1000089f8: a940cd14    	ldp	x20, x19, [x8, #8]
1000089fc: 51000555    	sub	w21, w10, #1
100008a00: 51000537    	sub	w23, w9, #1
100008a04: b94002c0    	ldr	w0, [x22]
100008a08: 94000201    	bl	0x10000920c <_barn_convert_type_to_string>
100008a0c: aa0003f6    	mov	x22, x0
100008a10: f9400308    	ldr	x8, [x24]
100008a14: f9400508    	ldr	x8, [x8, #8]
100008a18: b9400100    	ldr	w0, [x8]
100008a1c: 940001fc    	bl	0x10000920c <_barn_convert_type_to_string>
100008a20: a90003f6    	stp	x22, x0, [sp]
100008a24: f0000007    	adrp	x7, 0x10000b000 <_barn_tc_expression_check+0x3bc>
100008a28: 910e0ce7    	add	x7, x7, #899
100008a2c: 528000a1    	mov	w1, #5
100008a30: aa1403e2    	mov	x2, x20
100008a34: aa1503e3    	mov	x3, x21
100008a38: aa1703e4    	mov	x4, x23
100008a3c: 52800005    	mov	w5, #0
100008a40: aa1303e6    	mov	x6, x19
100008a44: 97ffe71a    	bl	0x1000026ac <_barn_error_show_with_line>
100008a48: 52800020    	mov	w0, #1
100008a4c: 94000258    	bl	0x1000093ac <_strlen+0x1000093ac>
100008a50: 52800f68    	mov	w8, #123
100008a54: f0000009    	adrp	x9, 0x10000b000 <_barn_tc_expression_check+0x3ec>
100008a58: 910fed29    	add	x9, x9, #1019
100008a5c: a90123e9    	stp	x9, x8, [sp, #16]
100008a60: f0000008    	adrp	x8, 0x10000b000 <_barn_tc_expression_check+0x3f8>
100008a64: 910f9d08    	add	x8, x8, #999
100008a68: f0000009    	adrp	x9, 0x10000b000 <_barn_tc_expression_check+0x400>
100008a6c: 910f5529    	add	x9, x9, #981
100008a70: 14000009    	b	0x100008a94 <_barn_tc_expression_check+0x420>
100008a74: 52800f88    	mov	w8, #124
100008a78: f0000009    	adrp	x9, 0x10000b000 <_barn_tc_expression_check+0x410>
100008a7c: 910fed29    	add	x9, x9, #1019
100008a80: a90123e9    	stp	x9, x8, [sp, #16]
100008a84: f0000008    	adrp	x8, 0x10000b000 <_barn_tc_expression_check+0x41c>
100008a88: 910f9d08    	add	x8, x8, #999
100008a8c: f0000009    	adrp	x9, 0x10000b000 <_barn_tc_expression_check+0x424>
100008a90: 9110fd29    	add	x9, x9, #1087
100008a94: a90023e9    	stp	x9, x8, [sp]
100008a98: f0000001    	adrp	x1, 0x10000b000 <_barn_tc_expression_check+0x430>
100008a9c: 910ea421    	add	x1, x1, #937
100008aa0: 528000e0    	mov	w0, #7
100008aa4: 97ffe7c3    	bl	0x1000029b0 <_barn_error_show>
100008aa8: 52800020    	mov	w0, #1
100008aac: 94000240    	bl	0x1000093ac <_strlen+0x1000093ac>

0000000100008ab0 <_barn_tc_func_call_check>:
100008ab0: d10183ff    	sub	sp, sp, #96
100008ab4: a90167fa    	stp	x26, x25, [sp, #16]
100008ab8: a9025ff8    	stp	x24, x23, [sp, #32]
100008abc: a90357f6    	stp	x22, x21, [sp, #48]
100008ac0: a9044ff4    	stp	x20, x19, [sp, #64]
100008ac4: a9057bfd    	stp	x29, x30, [sp, #80]
100008ac8: f9400808    	ldr	x8, [x0, #16]
100008acc: f100003f    	cmp	x1, #0
100008ad0: 9a810109    	csel	x9, x8, x1, eq
100008ad4: f9403528    	ldr	x8, [x9, #104]
100008ad8: f9400516    	ldr	x22, [x8, #8]
100008adc: f94006c8    	ldr	x8, [x22, #8]
100008ae0: b4000488    	cbz	x8, 0x100008b70 <_barn_tc_func_call_check+0xc0>
100008ae4: aa0003f3    	mov	x19, x0
100008ae8: d2800017    	mov	x23, #0
100008aec: f9402d38    	ldr	x24, [x9, #88]
100008af0: eb17011f    	cmp	x8, x23
100008af4: 540000a9    	b.ls	0x100008b08 <_barn_tc_func_call_check+0x58>
100008af8: f9400ac8    	ldr	x8, [x22, #16]
100008afc: f8777915    	ldr	x21, [x8, x23, lsl  #3]
100008b00: b5000098    	cbnz	x24, 0x100008b10 <_barn_tc_func_call_check+0x60>
100008b04: 14000009    	b	0x100008b28 <_barn_tc_func_call_check+0x78>
100008b08: d2800015    	mov	x21, #0
100008b0c: b40000f8    	cbz	x24, 0x100008b28 <_barn_tc_func_call_check+0x78>
100008b10: f9400708    	ldr	x8, [x24, #8]
100008b14: eb17011f    	cmp	x8, x23
100008b18: 54000089    	b.ls	0x100008b28 <_barn_tc_func_call_check+0x78>
100008b1c: f9400b08    	ldr	x8, [x24, #16]
100008b20: f8777914    	ldr	x20, [x8, x23, lsl  #3]
100008b24: 14000002    	b	0x100008b2c <_barn_tc_func_call_check+0x7c>
100008b28: d2800014    	mov	x20, #0
100008b2c: aa1303e0    	mov	x0, x19
100008b30: aa1403e1    	mov	x1, x20
100008b34: 97fffed0    	bl	0x100008674 <_barn_tc_expression_check>
100008b38: f9402688    	ldr	x8, [x20, #72]
100008b3c: f9400908    	ldr	x8, [x8, #16]
100008b40: f9400108    	ldr	x8, [x8]
100008b44: f9400119    	ldr	x25, [x8]
100008b48: f9400734    	ldr	x20, [x25, #8]
100008b4c: f94002b5    	ldr	x21, [x21]
100008b50: aa1403e0    	mov	x0, x20
100008b54: aa1503e1    	mov	x1, x21
100008b58: 94000023    	bl	0x100008be4 <_barn_tc_does_types_collides>
100008b5c: 35000180    	cbnz	w0, 0x100008b8c <_barn_tc_func_call_check+0xdc>
100008b60: 910006f7    	add	x23, x23, #1
100008b64: f94006c8    	ldr	x8, [x22, #8]
100008b68: eb17011f    	cmp	x8, x23
100008b6c: 54fffc28    	b.hi	0x100008af0 <_barn_tc_func_call_check+0x40>
100008b70: a9457bfd    	ldp	x29, x30, [sp, #80]
100008b74: a9444ff4    	ldp	x20, x19, [sp, #64]
100008b78: a94357f6    	ldp	x22, x21, [sp, #48]
100008b7c: a9425ff8    	ldp	x24, x23, [sp, #32]
100008b80: a94167fa    	ldp	x26, x25, [sp, #16]
100008b84: 910183ff    	add	sp, sp, #96
100008b88: d65f03c0    	ret
100008b8c: f9400328    	ldr	x8, [x25]
100008b90: 2943250a    	ldp	w10, w9, [x8, #24]
100008b94: 51000533    	sub	w19, w9, #1
100008b98: 51000556    	sub	w22, w10, #1
100008b9c: a940e117    	ldp	x23, x24, [x8, #8]
100008ba0: b94002a0    	ldr	w0, [x21]
100008ba4: 9400019a    	bl	0x10000920c <_barn_convert_type_to_string>
100008ba8: aa0003f5    	mov	x21, x0
100008bac: b9400280    	ldr	w0, [x20]
100008bb0: 94000197    	bl	0x10000920c <_barn_convert_type_to_string>
100008bb4: a90003f5    	stp	x21, x0, [sp]
100008bb8: f0000007    	adrp	x7, 0x10000b000 <_barn_tc_func_call_check+0x114>
100008bbc: 9112e0e7    	add	x7, x7, #1208
100008bc0: 528000a1    	mov	w1, #5
100008bc4: aa1703e2    	mov	x2, x23
100008bc8: aa1303e3    	mov	x3, x19
100008bcc: aa1603e4    	mov	x4, x22
100008bd0: 52800005    	mov	w5, #0
100008bd4: aa1803e6    	mov	x6, x24
100008bd8: 97ffe6b5    	bl	0x1000026ac <_barn_error_show_with_line>
100008bdc: 52800020    	mov	w0, #1
100008be0: 940001f3    	bl	0x1000093ac <_strlen+0x1000093ac>

0000000100008be4 <_barn_tc_does_types_collides>:
100008be4: b40001a1    	cbz	x1, 0x100008c18 <_barn_tc_does_types_collides+0x34>
100008be8: 39404808    	ldrb	w8, [x0, #18]
100008bec: 340000a8    	cbz	w8, 0x100008c00 <_barn_tc_does_types_collides+0x1c>
100008bf0: 39404828    	ldrb	w8, [x1, #18]
100008bf4: 34000068    	cbz	w8, 0x100008c00 <_barn_tc_does_types_collides+0x1c>
100008bf8: 52800000    	mov	w0, #0
100008bfc: d65f03c0    	ret
100008c00: 39405408    	ldrb	w8, [x0, #21]
100008c04: 340000e8    	cbz	w8, 0x100008c20 <_barn_tc_does_types_collides+0x3c>
100008c08: 39405428    	ldrb	w8, [x1, #21]
100008c0c: 340000a8    	cbz	w8, 0x100008c20 <_barn_tc_does_types_collides+0x3c>
100008c10: 52800000    	mov	w0, #0
100008c14: d65f03c0    	ret
100008c18: 52800020    	mov	w0, #1
100008c1c: d65f03c0    	ret
100008c20: 39405808    	ldrb	w8, [x0, #22]
100008c24: 340000a8    	cbz	w8, 0x100008c38 <_barn_tc_does_types_collides+0x54>
100008c28: 39405828    	ldrb	w8, [x1, #22]
100008c2c: 34000068    	cbz	w8, 0x100008c38 <_barn_tc_does_types_collides+0x54>
100008c30: 52800000    	mov	w0, #0
100008c34: d65f03c0    	ret
100008c38: 39404c08    	ldrb	w8, [x0, #19]
100008c3c: 340000a8    	cbz	w8, 0x100008c50 <_barn_tc_does_types_collides+0x6c>
100008c40: 39404c28    	ldrb	w8, [x1, #19]
100008c44: 34000068    	cbz	w8, 0x100008c50 <_barn_tc_does_types_collides+0x6c>
100008c48: 52800000    	mov	w0, #0
100008c4c: d65f03c0    	ret
100008c50: 39404408    	ldrb	w8, [x0, #17]
100008c54: 340000a8    	cbz	w8, 0x100008c68 <_barn_tc_does_types_collides+0x84>
100008c58: 39404428    	ldrb	w8, [x1, #17]
100008c5c: 34000068    	cbz	w8, 0x100008c68 <_barn_tc_does_types_collides+0x84>
100008c60: 52800000    	mov	w0, #0
100008c64: d65f03c0    	ret
100008c68: 39404008    	ldrb	w8, [x0, #16]
100008c6c: 340000a8    	cbz	w8, 0x100008c80 <_barn_tc_does_types_collides+0x9c>
100008c70: 39404028    	ldrb	w8, [x1, #16]
100008c74: 34000068    	cbz	w8, 0x100008c80 <_barn_tc_does_types_collides+0x9c>
100008c78: 52800000    	mov	w0, #0
100008c7c: d65f03c0    	ret
100008c80: 39405008    	ldrb	w8, [x0, #20]
100008c84: 340000a8    	cbz	w8, 0x100008c98 <_barn_tc_does_types_collides+0xb4>
100008c88: 39405028    	ldrb	w8, [x1, #20]
100008c8c: 34000068    	cbz	w8, 0x100008c98 <_barn_tc_does_types_collides+0xb4>
100008c90: 52800000    	mov	w0, #0
100008c94: d65f03c0    	ret
100008c98: b9400008    	ldr	w8, [x0]
100008c9c: 121e7509    	and	w9, w8, #0xfffffffc
100008ca0: 7100113f    	cmp	w9, #4
100008ca4: 54000100    	b.eq	0x100008cc4 <_barn_tc_does_types_collides+0xe0>
100008ca8: 52800020    	mov	w0, #1
100008cac: 7100311f    	cmp	w8, #12
100008cb0: 540001e8    	b.hi	0x100008cec <_barn_tc_does_types_collides+0x108>
100008cb4: 1ac82008    	lsl	w8, w0, w8
100008cb8: 528301e9    	mov	w9, #6159
100008cbc: 6a09011f    	tst	w8, w9
100008cc0: 54000160    	b.eq	0x100008cec <_barn_tc_does_types_collides+0x108>
100008cc4: b9400028    	ldr	w8, [x1]
100008cc8: 121e7509    	and	w9, w8, #0xfffffffc
100008ccc: 5280002a    	mov	w10, #1
100008cd0: 5280fe0b    	mov	w11, #2032
100008cd4: 1ac8256b    	lsr	w11, w11, w8
100008cd8: 1200016b    	and	w11, w11, #0x1
100008cdc: 7100311f    	cmp	w8, #12
100008ce0: 1a8b8148    	csel	w8, w10, w11, hi
100008ce4: 7100113f    	cmp	w9, #4
100008ce8: 1a8803e0    	csel	w0, wzr, w8, eq
100008cec: d65f03c0    	ret

0000000100008cf0 <_barn_type_checker_main_loop>:
100008cf0: d10183ff    	sub	sp, sp, #96
100008cf4: a9025ff8    	stp	x24, x23, [sp, #32]
100008cf8: a90357f6    	stp	x22, x21, [sp, #48]
100008cfc: a9044ff4    	stp	x20, x19, [sp, #64]
100008d00: a9057bfd    	stp	x29, x30, [sp, #80]
100008d04: b900181f    	str	wzr, [x0, #24]
100008d08: f9400009    	ldr	x9, [x0]
100008d0c: f9400528    	ldr	x8, [x9, #8]
100008d10: b4000a68    	cbz	x8, 0x100008e5c <_barn_type_checker_main_loop+0x16c>
100008d14: aa0103f3    	mov	x19, x1
100008d18: aa0003f4    	mov	x20, x0
100008d1c: d2800008    	mov	x8, #0
100008d20: 52800015    	mov	w21, #0
100008d24: b0000017    	adrp	x23, 0x100009000 <_barn_type_checker_main_loop+0x38>
100008d28: 9119f2f7    	add	x23, x23, #1660
100008d2c: 1400000c    	b	0x100008d5c <_barn_type_checker_main_loop+0x6c>
100008d30: aa1403e0    	mov	x0, x20
100008d34: d2800001    	mov	x1, #0
100008d38: 97ffff5e    	bl	0x100008ab0 <_barn_tc_func_call_check>
100008d3c: b9801a88    	ldrsw	x8, [x20, #24]
100008d40: 91000508    	add	x8, x8, #1
100008d44: b9001a88    	str	w8, [x20, #24]
100008d48: f9400289    	ldr	x9, [x20]
100008d4c: f940052a    	ldr	x10, [x9, #8]
100008d50: aa0803f5    	mov	x21, x8
100008d54: eb08015f    	cmp	x10, x8
100008d58: 54000829    	b.ls	0x100008e5c <_barn_type_checker_main_loop+0x16c>
100008d5c: b9001a95    	str	w21, [x20, #24]
100008d60: f940052a    	ldr	x10, [x9, #8]
100008d64: eb08015f    	cmp	x10, x8
100008d68: 54000089    	b.ls	0x100008d78 <_barn_type_checker_main_loop+0x88>
100008d6c: f9400929    	ldr	x9, [x9, #16]
100008d70: f8687936    	ldr	x22, [x9, x8, lsl  #3]
100008d74: 14000002    	b	0x100008d7c <_barn_type_checker_main_loop+0x8c>
100008d78: d2800016    	mov	x22, #0
100008d7c: f9000a96    	str	x22, [x20, #16]
100008d80: b94002c0    	ldr	w0, [x22]
100008d84: 7100101f    	cmp	w0, #4
100008d88: 54000768    	b.hi	0x100008e74 <_barn_type_checker_main_loop+0x184>
100008d8c: 10fffd28    	adr	x8, #-92
100008d90: 38606ae9    	ldrb	w9, [x23, x0]
100008d94: 8b090908    	add	x8, x8, x9, lsl #2
100008d98: d61f0100    	br	x8
100008d9c: f9400ac8    	ldr	x8, [x22, #16]
100008da0: f9000288    	str	x8, [x20]
100008da4: b9001a9f    	str	wzr, [x20, #24]
100008da8: b40004a8    	cbz	x8, 0x100008e3c <_barn_type_checker_main_loop+0x14c>
100008dac: f9400509    	ldr	x9, [x8, #8]
100008db0: b4000449    	cbz	x9, 0x100008e38 <_barn_type_checker_main_loop+0x148>
100008db4: f9400908    	ldr	x8, [x8, #16]
100008db8: f9400108    	ldr	x8, [x8]
100008dbc: 14000020    	b	0x100008e3c <_barn_type_checker_main_loop+0x14c>
100008dc0: f94016c1    	ldr	x1, [x22, #40]
100008dc4: aa1403e0    	mov	x0, x20
100008dc8: 97fffe2b    	bl	0x100008674 <_barn_tc_expression_check>
100008dcc: a942a2c9    	ldp	x9, x8, [x22, #40]
100008dd0: f9400d16    	ldr	x22, [x8, #24]
100008dd4: f9402528    	ldr	x8, [x9, #72]
100008dd8: f9400908    	ldr	x8, [x8, #16]
100008ddc: f9400108    	ldr	x8, [x8]
100008de0: f9400118    	ldr	x24, [x8]
100008de4: f9400715    	ldr	x21, [x24, #8]
100008de8: aa1603e0    	mov	x0, x22
100008dec: aa1503e1    	mov	x1, x21
100008df0: 97ffff7d    	bl	0x100008be4 <_barn_tc_does_types_collides>
100008df4: 34fffa40    	cbz	w0, 0x100008d3c <_barn_type_checker_main_loop+0x4c>
100008df8: 14000033    	b	0x100008ec4 <_barn_type_checker_main_loop+0x1d4>
100008dfc: f9401ec1    	ldr	x1, [x22, #56]
100008e00: aa1403e0    	mov	x0, x20
100008e04: 97fffe1c    	bl	0x100008674 <_barn_tc_expression_check>
100008e08: a943a2c9    	ldp	x9, x8, [x22, #56]
100008e0c: f9400516    	ldr	x22, [x8, #8]
100008e10: f9402528    	ldr	x8, [x9, #72]
100008e14: f9400908    	ldr	x8, [x8, #16]
100008e18: f9400108    	ldr	x8, [x8]
100008e1c: f9400118    	ldr	x24, [x8]
100008e20: f9400715    	ldr	x21, [x24, #8]
100008e24: aa1603e0    	mov	x0, x22
100008e28: aa1503e1    	mov	x1, x21
100008e2c: 97ffff6e    	bl	0x100008be4 <_barn_tc_does_types_collides>
100008e30: 34fff860    	cbz	w0, 0x100008d3c <_barn_type_checker_main_loop+0x4c>
100008e34: 14000032    	b	0x100008efc <_barn_type_checker_main_loop+0x20c>
100008e38: d2800008    	mov	x8, #0
100008e3c: f9000a88    	str	x8, [x20, #16]
100008e40: aa1403e0    	mov	x0, x20
100008e44: aa1303e1    	mov	x1, x19
100008e48: 97ffffaa    	bl	0x100008cf0 <_barn_type_checker_main_loop>
100008e4c: f9400268    	ldr	x8, [x19]
100008e50: f9000288    	str	x8, [x20]
100008e54: b9001a95    	str	w21, [x20, #24]
100008e58: 17ffffb9    	b	0x100008d3c <_barn_type_checker_main_loop+0x4c>
100008e5c: a9457bfd    	ldp	x29, x30, [sp, #80]
100008e60: a9444ff4    	ldp	x20, x19, [sp, #64]
100008e64: a94357f6    	ldp	x22, x21, [sp, #48]
100008e68: a9425ff8    	ldp	x24, x23, [sp, #32]
100008e6c: 910183ff    	add	sp, sp, #96
100008e70: d65f03c0    	ret
100008e74: 97fffcb0    	bl	0x100008134 <_barn_node_kind_show>
100008e78: f90003e0    	str	x0, [sp]
100008e7c: f0000000    	adrp	x0, 0x10000b000 <_barn_type_checker_main_loop+0x198>
100008e80: 911b0000    	add	x0, x0, #1728
100008e84: 9400016b    	bl	0x100009430 <_strlen+0x100009430>
100008e88: f0000008    	adrp	x8, 0x10000b000 <_barn_type_checker_main_loop+0x1a4>
100008e8c: 91150108    	add	x8, x8, #1344
100008e90: 52802789    	mov	w9, #316
100008e94: a90123e9    	stp	x9, x8, [sp, #16]
100008e98: f0000008    	adrp	x8, 0x10000b000 <_barn_type_checker_main_loop+0x1b4>
100008e9c: 9113dd08    	add	x8, x8, #1271
100008ea0: f0000009    	adrp	x9, 0x10000b000 <_barn_type_checker_main_loop+0x1bc>
100008ea4: 910f9d29    	add	x9, x9, #999
100008ea8: a90023e9    	stp	x9, x8, [sp]
100008eac: f0000001    	adrp	x1, 0x10000b000 <_barn_type_checker_main_loop+0x1c8>
100008eb0: 91159421    	add	x1, x1, #1381
100008eb4: 528000e0    	mov	w0, #7
100008eb8: 97ffe6be    	bl	0x1000029b0 <_barn_error_show>
100008ebc: 52800020    	mov	w0, #1
100008ec0: 9400013b    	bl	0x1000093ac <_strlen+0x1000093ac>
100008ec4: f9400308    	ldr	x8, [x24]
100008ec8: 2943250a    	ldp	w10, w9, [x8, #24]
100008ecc: 51000533    	sub	w19, w9, #1
100008ed0: 51000554    	sub	w20, w10, #1
100008ed4: a940e117    	ldp	x23, x24, [x8, #8]
100008ed8: b94002c0    	ldr	w0, [x22]
100008edc: 940000cc    	bl	0x10000920c <_barn_convert_type_to_string>
100008ee0: aa0003f6    	mov	x22, x0
100008ee4: b94002a0    	ldr	w0, [x21]
100008ee8: 940000c9    	bl	0x10000920c <_barn_convert_type_to_string>
100008eec: a90003f6    	stp	x22, x0, [sp]
100008ef0: f0000007    	adrp	x7, 0x10000b000 <_barn_type_checker_main_loop+0x20c>
100008ef4: 911174e7    	add	x7, x7, #1117
100008ef8: 1400000e    	b	0x100008f30 <_barn_type_checker_main_loop+0x240>
100008efc: f9400308    	ldr	x8, [x24]
100008f00: 2943250a    	ldp	w10, w9, [x8, #24]
100008f04: 51000533    	sub	w19, w9, #1
100008f08: 51000554    	sub	w20, w10, #1
100008f0c: a940e117    	ldp	x23, x24, [x8, #8]
100008f10: b94002c0    	ldr	w0, [x22]
100008f14: 940000be    	bl	0x10000920c <_barn_convert_type_to_string>
100008f18: aa0003f6    	mov	x22, x0
100008f1c: b94002a0    	ldr	w0, [x21]
100008f20: 940000bb    	bl	0x10000920c <_barn_convert_type_to_string>
100008f24: a90003f6    	stp	x22, x0, [sp]
100008f28: f0000007    	adrp	x7, 0x10000b000 <_barn_type_checker_main_loop+0x244>
100008f2c: 911238e7    	add	x7, x7, #1166
100008f30: 528000a1    	mov	w1, #5
100008f34: aa1703e2    	mov	x2, x23
100008f38: aa1303e3    	mov	x3, x19
100008f3c: aa1403e4    	mov	x4, x20
100008f40: 52800005    	mov	w5, #0
100008f44: aa1803e6    	mov	x6, x24
100008f48: 97ffe5d9    	bl	0x1000026ac <_barn_error_show_with_line>
100008f4c: 52800020    	mov	w0, #1
100008f50: 94000117    	bl	0x1000093ac <_strlen+0x1000093ac>

0000000100008f54 <_barn_parser_current_token_type_representation>:
100008f54: a9be4ff4    	stp	x20, x19, [sp, #-32]!
100008f58: a9017bfd    	stp	x29, x30, [sp, #16]
100008f5c: aa0003f3    	mov	x19, x0
100008f60: f8410e68    	ldr	x8, [x19, #16]!
100008f64: f9400100    	ldr	x0, [x8]
100008f68: f0000001    	adrp	x1, 0x10000b000 <_barn_parser_current_token_type_representation+0x20>
100008f6c: 91185421    	add	x1, x1, #1557
100008f70: 94000136    	bl	0x100009448 <_strlen+0x100009448>
100008f74: 34001060    	cbz	w0, 0x100009180 <_barn_parser_current_token_type_representation+0x22c>
100008f78: f9400268    	ldr	x8, [x19]
100008f7c: f9400100    	ldr	x0, [x8]
100008f80: f0000001    	adrp	x1, 0x10000b000 <_barn_parser_current_token_type_representation+0x38>
100008f84: 91186021    	add	x1, x1, #1560
100008f88: 94000130    	bl	0x100009448 <_strlen+0x100009448>
100008f8c: 34000fa0    	cbz	w0, 0x100009180 <_barn_parser_current_token_type_representation+0x22c>
100008f90: f9400268    	ldr	x8, [x19]
100008f94: f9400100    	ldr	x0, [x8]
100008f98: f0000001    	adrp	x1, 0x10000b000 <_barn_parser_current_token_type_representation+0x50>
100008f9c: 91187421    	add	x1, x1, #1565
100008fa0: 9400012a    	bl	0x100009448 <_strlen+0x100009448>
100008fa4: 34000f40    	cbz	w0, 0x10000918c <_barn_parser_current_token_type_representation+0x238>
100008fa8: f9400268    	ldr	x8, [x19]
100008fac: f9400100    	ldr	x0, [x8]
100008fb0: f0000001    	adrp	x1, 0x10000b000 <_barn_parser_current_token_type_representation+0x68>
100008fb4: 91188421    	add	x1, x1, #1569
100008fb8: 94000124    	bl	0x100009448 <_strlen+0x100009448>
100008fbc: 34000e80    	cbz	w0, 0x10000918c <_barn_parser_current_token_type_representation+0x238>
100008fc0: f9400268    	ldr	x8, [x19]
100008fc4: f9400100    	ldr	x0, [x8]
100008fc8: f0000001    	adrp	x1, 0x10000b000 <_barn_parser_current_token_type_representation+0x80>
100008fcc: 9118a021    	add	x1, x1, #1576
100008fd0: 9400011e    	bl	0x100009448 <_strlen+0x100009448>
100008fd4: 34000e20    	cbz	w0, 0x100009198 <_barn_parser_current_token_type_representation+0x244>
100008fd8: f9400268    	ldr	x8, [x19]
100008fdc: f9400100    	ldr	x0, [x8]
100008fe0: f0000001    	adrp	x1, 0x10000b000 <_barn_parser_current_token_type_representation+0x98>
100008fe4: 9118b021    	add	x1, x1, #1580
100008fe8: 94000118    	bl	0x100009448 <_strlen+0x100009448>
100008fec: 34000d60    	cbz	w0, 0x100009198 <_barn_parser_current_token_type_representation+0x244>
100008ff0: f9400268    	ldr	x8, [x19]
100008ff4: f9400100    	ldr	x0, [x8]
100008ff8: f0000001    	adrp	x1, 0x10000b000 <_barn_parser_current_token_type_representation+0xb0>
100008ffc: 9118c421    	add	x1, x1, #1585
100009000: 94000112    	bl	0x100009448 <_strlen+0x100009448>
100009004: 34000d00    	cbz	w0, 0x1000091a4 <_barn_parser_current_token_type_representation+0x250>
100009008: f9400268    	ldr	x8, [x19]
10000900c: f9400100    	ldr	x0, [x8]
100009010: d0000001    	adrp	x1, 0x10000b000 <_barn_parser_current_token_type_representation+0xc4>
100009014: 9118d421    	add	x1, x1, #1589
100009018: 9400010c    	bl	0x100009448 <_strlen+0x100009448>
10000901c: 34000c40    	cbz	w0, 0x1000091a4 <_barn_parser_current_token_type_representation+0x250>
100009020: f9400268    	ldr	x8, [x19]
100009024: f9400100    	ldr	x0, [x8]
100009028: d0000001    	adrp	x1, 0x10000b000 <_barn_parser_current_token_type_representation+0xdc>
10000902c: 9118ec21    	add	x1, x1, #1595
100009030: 94000106    	bl	0x100009448 <_strlen+0x100009448>
100009034: 34000be0    	cbz	w0, 0x1000091b0 <_barn_parser_current_token_type_representation+0x25c>
100009038: f9400268    	ldr	x8, [x19]
10000903c: f9400100    	ldr	x0, [x8]
100009040: d0000001    	adrp	x1, 0x10000b000 <_barn_parser_current_token_type_representation+0xf4>
100009044: 9118f821    	add	x1, x1, #1598
100009048: 94000100    	bl	0x100009448 <_strlen+0x100009448>
10000904c: 34000b20    	cbz	w0, 0x1000091b0 <_barn_parser_current_token_type_representation+0x25c>
100009050: f9400268    	ldr	x8, [x19]
100009054: f9400100    	ldr	x0, [x8]
100009058: d0000001    	adrp	x1, 0x10000b000 <_barn_parser_current_token_type_representation+0x10c>
10000905c: 91190c21    	add	x1, x1, #1603
100009060: 940000fa    	bl	0x100009448 <_strlen+0x100009448>
100009064: 34000ac0    	cbz	w0, 0x1000091bc <_barn_parser_current_token_type_representation+0x268>
100009068: f9400268    	ldr	x8, [x19]
10000906c: f9400100    	ldr	x0, [x8]
100009070: d0000001    	adrp	x1, 0x10000b000 <_barn_parser_current_token_type_representation+0x124>
100009074: 91191c21    	add	x1, x1, #1607
100009078: 940000f4    	bl	0x100009448 <_strlen+0x100009448>
10000907c: 34000a00    	cbz	w0, 0x1000091bc <_barn_parser_current_token_type_representation+0x268>
100009080: f9400268    	ldr	x8, [x19]
100009084: f9400100    	ldr	x0, [x8]
100009088: d0000001    	adrp	x1, 0x10000b000 <_barn_parser_current_token_type_representation+0x13c>
10000908c: 91193421    	add	x1, x1, #1613
100009090: 940000ee    	bl	0x100009448 <_strlen+0x100009448>
100009094: 340009a0    	cbz	w0, 0x1000091c8 <_barn_parser_current_token_type_representation+0x274>
100009098: f9400268    	ldr	x8, [x19]
10000909c: f9400100    	ldr	x0, [x8]
1000090a0: d0000001    	adrp	x1, 0x10000b000 <_barn_parser_current_token_type_representation+0x154>
1000090a4: 91194421    	add	x1, x1, #1617
1000090a8: 940000e8    	bl	0x100009448 <_strlen+0x100009448>
1000090ac: 340008e0    	cbz	w0, 0x1000091c8 <_barn_parser_current_token_type_representation+0x274>
1000090b0: f9400268    	ldr	x8, [x19]
1000090b4: f9400100    	ldr	x0, [x8]
1000090b8: d0000001    	adrp	x1, 0x10000b000 <_barn_parser_current_token_type_representation+0x16c>
1000090bc: 91195421    	add	x1, x1, #1621
1000090c0: 940000e2    	bl	0x100009448 <_strlen+0x100009448>
1000090c4: 34000880    	cbz	w0, 0x1000091d4 <_barn_parser_current_token_type_representation+0x280>
1000090c8: f9400268    	ldr	x8, [x19]
1000090cc: f9400100    	ldr	x0, [x8]
1000090d0: d0000001    	adrp	x1, 0x10000b000 <_barn_parser_current_token_type_representation+0x184>
1000090d4: 91196421    	add	x1, x1, #1625
1000090d8: 940000dc    	bl	0x100009448 <_strlen+0x100009448>
1000090dc: 340007c0    	cbz	w0, 0x1000091d4 <_barn_parser_current_token_type_representation+0x280>
1000090e0: f9400268    	ldr	x8, [x19]
1000090e4: f9400100    	ldr	x0, [x8]
1000090e8: d0000001    	adrp	x1, 0x10000b000 <_barn_parser_current_token_type_representation+0x19c>
1000090ec: 91197821    	add	x1, x1, #1630
1000090f0: 940000d6    	bl	0x100009448 <_strlen+0x100009448>
1000090f4: 34000760    	cbz	w0, 0x1000091e0 <_barn_parser_current_token_type_representation+0x28c>
1000090f8: f9400268    	ldr	x8, [x19]
1000090fc: f9400100    	ldr	x0, [x8]
100009100: d0000001    	adrp	x1, 0x10000b000 <_barn_parser_current_token_type_representation+0x1b4>
100009104: 91198821    	add	x1, x1, #1634
100009108: 940000d0    	bl	0x100009448 <_strlen+0x100009448>
10000910c: 340006a0    	cbz	w0, 0x1000091e0 <_barn_parser_current_token_type_representation+0x28c>
100009110: f9400268    	ldr	x8, [x19]
100009114: f9400100    	ldr	x0, [x8]
100009118: d0000001    	adrp	x1, 0x10000b000 <_barn_parser_current_token_type_representation+0x1cc>
10000911c: 9119a021    	add	x1, x1, #1640
100009120: 940000ca    	bl	0x100009448 <_strlen+0x100009448>
100009124: 34000640    	cbz	w0, 0x1000091ec <_barn_parser_current_token_type_representation+0x298>
100009128: f9400268    	ldr	x8, [x19]
10000912c: f9400100    	ldr	x0, [x8]
100009130: d0000001    	adrp	x1, 0x10000b000 <_barn_parser_current_token_type_representation+0x1e4>
100009134: 9119b021    	add	x1, x1, #1644
100009138: 940000c4    	bl	0x100009448 <_strlen+0x100009448>
10000913c: 34000580    	cbz	w0, 0x1000091ec <_barn_parser_current_token_type_representation+0x298>
100009140: f9400268    	ldr	x8, [x19]
100009144: f9400100    	ldr	x0, [x8]
100009148: d0000001    	adrp	x1, 0x10000b000 <_barn_parser_current_token_type_representation+0x1fc>
10000914c: 9119cc21    	add	x1, x1, #1651
100009150: 940000be    	bl	0x100009448 <_strlen+0x100009448>
100009154: 34000520    	cbz	w0, 0x1000091f8 <_barn_parser_current_token_type_representation+0x2a4>
100009158: f9400268    	ldr	x8, [x19]
10000915c: f9400100    	ldr	x0, [x8]
100009160: d0000001    	adrp	x1, 0x10000b000 <_barn_parser_current_token_type_representation+0x214>
100009164: 9119e821    	add	x1, x1, #1658
100009168: 940000b8    	bl	0x100009448 <_strlen+0x100009448>
10000916c: f0000028    	adrp	x8, 0x100010000 <_barn_parser_current_token_type_representation+0x234>
100009170: f9402908    	ldr	x8, [x8, #80]
100009174: 7100001f    	cmp	w0, #0
100009178: 9a9f0100    	csel	x0, x8, xzr, eq
10000917c: 14000021    	b	0x100009200 <_barn_parser_current_token_type_representation+0x2ac>
100009180: f0000028    	adrp	x8, 0x100010000 <_barn_parser_current_token_type_representation+0x248>
100009184: f9400100    	ldr	x0, [x8]
100009188: 1400001e    	b	0x100009200 <_barn_parser_current_token_type_representation+0x2ac>
10000918c: f0000028    	adrp	x8, 0x100010000 <_barn_parser_current_token_type_representation+0x254>
100009190: f9400500    	ldr	x0, [x8, #8]
100009194: 1400001b    	b	0x100009200 <_barn_parser_current_token_type_representation+0x2ac>
100009198: f0000028    	adrp	x8, 0x100010000 <_barn_parser_current_token_type_representation+0x260>
10000919c: f9400900    	ldr	x0, [x8, #16]
1000091a0: 14000018    	b	0x100009200 <_barn_parser_current_token_type_representation+0x2ac>
1000091a4: f0000028    	adrp	x8, 0x100010000 <_barn_parser_current_token_type_representation+0x26c>
1000091a8: f9400d00    	ldr	x0, [x8, #24]
1000091ac: 14000015    	b	0x100009200 <_barn_parser_current_token_type_representation+0x2ac>
1000091b0: f0000028    	adrp	x8, 0x100010000 <_barn_parser_current_token_type_representation+0x278>
1000091b4: f9401100    	ldr	x0, [x8, #32]
1000091b8: 14000012    	b	0x100009200 <_barn_parser_current_token_type_representation+0x2ac>
1000091bc: f0000028    	adrp	x8, 0x100010000 <_barn_parser_current_token_type_representation+0x284>
1000091c0: f9401500    	ldr	x0, [x8, #40]
1000091c4: 1400000f    	b	0x100009200 <_barn_parser_current_token_type_representation+0x2ac>
1000091c8: f0000028    	adrp	x8, 0x100010000 <_barn_parser_current_token_type_representation+0x290>
1000091cc: f9401900    	ldr	x0, [x8, #48]
1000091d0: 1400000c    	b	0x100009200 <_barn_parser_current_token_type_representation+0x2ac>
1000091d4: f0000028    	adrp	x8, 0x100010000 <_barn_parser_current_token_type_representation+0x29c>
1000091d8: f9401d00    	ldr	x0, [x8, #56]
1000091dc: 14000009    	b	0x100009200 <_barn_parser_current_token_type_representation+0x2ac>
1000091e0: f0000028    	adrp	x8, 0x100010000 <_barn_parser_current_token_type_representation+0x2a8>
1000091e4: f9402d00    	ldr	x0, [x8, #88]
1000091e8: 14000006    	b	0x100009200 <_barn_parser_current_token_type_representation+0x2ac>
1000091ec: f0000028    	adrp	x8, 0x100010000 <_barn_parser_current_token_type_representation+0x2b4>
1000091f0: f9403100    	ldr	x0, [x8, #96]
1000091f4: 14000003    	b	0x100009200 <_barn_parser_current_token_type_representation+0x2ac>
1000091f8: f0000028    	adrp	x8, 0x100010000 <_barn_convert_type_to_string+0x8>
1000091fc: f9402500    	ldr	x0, [x8, #72]
100009200: a9417bfd    	ldp	x29, x30, [sp, #16]
100009204: a8c24ff4    	ldp	x20, x19, [sp], #32
100009208: d65f03c0    	ret

000000010000920c <_barn_convert_type_to_string>:
10000920c: d100c3ff    	sub	sp, sp, #48
100009210: a9027bfd    	stp	x29, x30, [sp, #32]
100009214: 71003c1f    	cmp	w0, #15
100009218: 54000142    	b.hs	0x100009240 <_barn_convert_type_to_string+0x34>
10000921c: 528bffe8    	mov	w8, #24575
100009220: 1ac02508    	lsr	w8, w8, w0
100009224: 360000e8    	tbz	w8, #0, 0x100009240 <_barn_convert_type_to_string+0x34>
100009228: f0000008    	adrp	x8, 0x10000c000 <_barn_convert_type_to_string+0x28>
10000922c: 910c8108    	add	x8, x8, #800
100009230: f8605900    	ldr	x0, [x8, w0, uxtw  #3]
100009234: a9427bfd    	ldp	x29, x30, [sp, #32]
100009238: 9100c3ff    	add	sp, sp, #48
10000923c: d65f03c0    	ret
100009240: d0000008    	adrp	x8, 0x10000b000 <_barn_convert_type_to_string+0x3c>
100009244: 91180508    	add	x8, x8, #1537
100009248: 52801ee9    	mov	w9, #247
10000924c: a90123e9    	stp	x9, x8, [sp, #16]
100009250: d0000008    	adrp	x8, 0x10000b000 <_barn_convert_type_to_string+0x4c>
100009254: 911a2508    	add	x8, x8, #1673
100009258: d0000009    	adrp	x9, 0x10000b000 <_barn_convert_type_to_string+0x54>
10000925c: 9117d129    	add	x9, x9, #1524
100009260: a90023e9    	stp	x9, x8, [sp]
100009264: d0000001    	adrp	x1, 0x10000b000 <_barn_convert_type_to_string+0x60>
100009268: 91159421    	add	x1, x1, #1381
10000926c: 528000e0    	mov	w0, #7
100009270: 97ffe5d0    	bl	0x1000029b0 <_barn_error_show>
100009274: 52800020    	mov	w0, #1
100009278: 9400004d    	bl	0x1000093ac <_strlen+0x1000093ac>

000000010000927c <_barn_parser_is_variable_defined_lg>:
10000927c: d10103ff    	sub	sp, sp, #64
100009280: a90157f6    	stp	x22, x21, [sp, #16]
100009284: a9024ff4    	stp	x20, x19, [sp, #32]
100009288: a9037bfd    	stp	x29, x30, [sp, #48]
10000928c: aa0103f3    	mov	x19, x1
100009290: aa0003f4    	mov	x20, x0
100009294: f90003e1    	str	x1, [sp]
100009298: d0000000    	adrp	x0, 0x10000b000 <_barn_parser_is_variable_defined_lg+0x24>
10000929c: 911b0000    	add	x0, x0, #1728
1000092a0: 94000064    	bl	0x100009430 <_strlen+0x100009430>
1000092a4: f9401688    	ldr	x8, [x20, #40]
1000092a8: f9400509    	ldr	x9, [x8, #8]
1000092ac: b40001a9    	cbz	x9, 0x1000092e0 <_barn_parser_is_variable_defined_lg+0x64>
1000092b0: d2800015    	mov	x21, #0
1000092b4: f9400908    	ldr	x8, [x8, #16]
1000092b8: f8757908    	ldr	x8, [x8, x21, lsl  #3]
1000092bc: f9400900    	ldr	x0, [x8, #16]
1000092c0: aa1303e1    	mov	x1, x19
1000092c4: 94000061    	bl	0x100009448 <_strlen+0x100009448>
1000092c8: 34000360    	cbz	w0, 0x100009334 <_barn_parser_is_variable_defined_lg+0xb8>
1000092cc: 910006b5    	add	x21, x21, #1
1000092d0: f9401688    	ldr	x8, [x20, #40]
1000092d4: f9400509    	ldr	x9, [x8, #8]
1000092d8: eb15013f    	cmp	x9, x21
1000092dc: 54fffec8    	b.hi	0x1000092b4 <_barn_parser_is_variable_defined_lg+0x38>
1000092e0: f9401a88    	ldr	x8, [x20, #48]
1000092e4: f9400508    	ldr	x8, [x8, #8]
1000092e8: b4000228    	cbz	x8, 0x10000932c <_barn_parser_is_variable_defined_lg+0xb0>
1000092ec: d2800015    	mov	x21, #0
1000092f0: f9401688    	ldr	x8, [x20, #40]
1000092f4: f9400908    	ldr	x8, [x8, #16]
1000092f8: f8757908    	ldr	x8, [x8, x21, lsl  #3]
1000092fc: f9400900    	ldr	x0, [x8, #16]
100009300: aa1303e1    	mov	x1, x19
100009304: 94000051    	bl	0x100009448 <_strlen+0x100009448>
100009308: aa0003e8    	mov	x8, x0
10000930c: 7100001f    	cmp	w0, #0
100009310: 1a9f17e0    	cset	w0, eq
100009314: 34000128    	cbz	w8, 0x100009338 <_barn_parser_is_variable_defined_lg+0xbc>
100009318: 910006b5    	add	x21, x21, #1
10000931c: f9401a88    	ldr	x8, [x20, #48]
100009320: f9400508    	ldr	x8, [x8, #8]
100009324: eb15011f    	cmp	x8, x21
100009328: 54fffe48    	b.hi	0x1000092f0 <_barn_parser_is_variable_defined_lg+0x74>
10000932c: 52800000    	mov	w0, #0
100009330: 14000002    	b	0x100009338 <_barn_parser_is_variable_defined_lg+0xbc>
100009334: 52800020    	mov	w0, #1
100009338: a9437bfd    	ldp	x29, x30, [sp, #48]
10000933c: a9424ff4    	ldp	x20, x19, [sp, #32]
100009340: a94157f6    	ldp	x22, x21, [sp, #16]
100009344: 910103ff    	add	sp, sp, #64
100009348: d65f03c0    	ret

Disassembly of section __TEXT,__stubs:

000000010000934c <__stubs>:
10000934c: f0000010    	adrp	x16, 0x10000c000 <__stubs+0xc>
100009350: f9400210    	ldr	x16, [x16]
100009354: d61f0200    	br	x16
100009358: f0000010    	adrp	x16, 0x10000c000 <__stubs+0x18>
10000935c: f9400a10    	ldr	x16, [x16, #16]
100009360: d61f0200    	br	x16
100009364: f0000010    	adrp	x16, 0x10000c000 <__stubs+0x24>
100009368: f9400e10    	ldr	x16, [x16, #24]
10000936c: d61f0200    	br	x16
100009370: f0000010    	adrp	x16, 0x10000c000 <__stubs+0x30>
100009374: f9401210    	ldr	x16, [x16, #32]
100009378: d61f0200    	br	x16
10000937c: f0000010    	adrp	x16, 0x10000c000 <__stubs+0x3c>
100009380: f9401610    	ldr	x16, [x16, #40]
100009384: d61f0200    	br	x16
100009388: f0000010    	adrp	x16, 0x10000c000 <__stubs+0x48>
10000938c: f9401a10    	ldr	x16, [x16, #48]
100009390: d61f0200    	br	x16
100009394: f0000010    	adrp	x16, 0x10000c000 <__stubs+0x54>
100009398: f9401e10    	ldr	x16, [x16, #56]
10000939c: d61f0200    	br	x16
1000093a0: f0000010    	adrp	x16, 0x10000c000 <__stubs+0x60>
1000093a4: f9402210    	ldr	x16, [x16, #64]
1000093a8: d61f0200    	br	x16
1000093ac: f0000010    	adrp	x16, 0x10000c000 <__stubs+0x6c>
1000093b0: f9402610    	ldr	x16, [x16, #72]
1000093b4: d61f0200    	br	x16
1000093b8: f0000010    	adrp	x16, 0x10000c000 <__stubs+0x78>
1000093bc: f9402a10    	ldr	x16, [x16, #80]
1000093c0: d61f0200    	br	x16
1000093c4: f0000010    	adrp	x16, 0x10000c000 <__stubs+0x84>
1000093c8: f9402e10    	ldr	x16, [x16, #88]
1000093cc: d61f0200    	br	x16
1000093d0: f0000010    	adrp	x16, 0x10000c000 <__stubs+0x90>
1000093d4: f9403210    	ldr	x16, [x16, #96]
1000093d8: d61f0200    	br	x16
1000093dc: f0000010    	adrp	x16, 0x10000c000 <__stubs+0x9c>
1000093e0: f9403610    	ldr	x16, [x16, #104]
1000093e4: d61f0200    	br	x16
1000093e8: f0000010    	adrp	x16, 0x10000c000 <__stubs+0xa8>
1000093ec: f9403a10    	ldr	x16, [x16, #112]
1000093f0: d61f0200    	br	x16
1000093f4: f0000010    	adrp	x16, 0x10000c000 <__stubs+0xb4>
1000093f8: f9403e10    	ldr	x16, [x16, #120]
1000093fc: d61f0200    	br	x16
100009400: f0000010    	adrp	x16, 0x10000c000 <__stubs+0xc0>
100009404: f9404210    	ldr	x16, [x16, #128]
100009408: d61f0200    	br	x16
10000940c: f0000010    	adrp	x16, 0x10000c000 <__stubs+0xcc>
100009410: f9404610    	ldr	x16, [x16, #136]
100009414: d61f0200    	br	x16
100009418: f0000010    	adrp	x16, 0x10000c000 <__stubs+0xd8>
10000941c: f9404a10    	ldr	x16, [x16, #144]
100009420: d61f0200    	br	x16
100009424: f0000010    	adrp	x16, 0x10000c000 <__stubs+0xe4>
100009428: f9404e10    	ldr	x16, [x16, #152]
10000942c: d61f0200    	br	x16
100009430: f0000010    	adrp	x16, 0x10000c000 <__stubs+0xf0>
100009434: f9405210    	ldr	x16, [x16, #160]
100009438: d61f0200    	br	x16
10000943c: f0000010    	adrp	x16, 0x10000c000 <__stubs+0xfc>
100009440: f9405610    	ldr	x16, [x16, #168]
100009444: d61f0200    	br	x16
100009448: f0000010    	adrp	x16, 0x10000c000 <__stubs+0x108>
10000944c: f9405a10    	ldr	x16, [x16, #176]
100009450: d61f0200    	br	x16
100009454: f0000010    	adrp	x16, 0x10000c000 <_strlen+0x100009460>
100009458: f9405e10    	ldr	x16, [x16, #184]
10000945c: d61f0200    	br	x16

Disassembly of section __TEXT,__const:

0000000100009460 <__const>:
100009460: 06060600    	<unknown>
100009464: 06060606    	<unknown>
100009468: 06060000    	<unknown>
10000946c: 06060600    	<unknown>
100009470: 06060606    	<unknown>
100009474: 06060606    	<unknown>
100009478: 06000606    	<unknown>
10000947c: 06060606    	<unknown>
100009480: 06060606    	<unknown>
100009484: 06060606    	<unknown>
100009488: 06060606    	<unknown>
10000948c: 06060606    	<unknown>
100009490: 06060606    	<unknown>
100009494: 06060606    	<unknown>
100009498: 00060606    	<unknown>
10000949c: 06060006    	<unknown>
1000094a0: 06060606    	<unknown>
1000094a4: 06060606    	<unknown>
1000094a8: 06060606    	<unknown>
1000094ac: 06060606    	<unknown>
1000094b0: 06060606    	<unknown>
1000094b4: 06060606    	<unknown>
1000094b8: 00060606    	<unknown>
1000094bc: 9d900000    	<unknown>
1000094c0: 1d1a0900    	<unknown>
1000094c4: 9d9d9d35    	<unknown>
1000094c8: 9d9d9d9d    	<unknown>
1000094cc: 9d9d9d9d    	<unknown>
1000094d0: 9d9d9d9d    	<unknown>
1000094d4: 9d9d9d9d    	<unknown>
1000094d8: 2a219d9d    	<unknown>
1000094dc: 0055553e    	<unknown>
1000094e0: 55555555    	<unknown>
1000094e4: 55555555    	<unknown>
1000094e8: 55555555    	<unknown>
1000094ec: 55555555    	<unknown>
1000094f0: 552a5555    	<unknown>
1000094f4: 55555555    	<unknown>
1000094f8: 55555555    	<unknown>
1000094fc: 5555554b    	<unknown>
100009500: 00893255    	<unknown>
100009504: 03300330    	<unknown>
100009508: 03300330    	<unknown>
10000950c: 00000330    	udf	#816
100009510: 03300330    	<unknown>
100009514: 0330008d    	<unknown>
100009518: 03300330    	<unknown>
10000951c: 03300330    	<unknown>
100009520: 03300330    	<unknown>
100009524: 00930330    	<unknown>
100009528: 03300330    	<unknown>
10000952c: 00990330    	<unknown>
100009530: 009f0330    	<unknown>
100009534: 00ec0000    	<unknown>
100009538: 00ec0000    	<unknown>
10000953c: 00ec0000    	<unknown>
100009540: 00ec00fc    	<unknown>
100009544: 00ec00ec    	<unknown>
100009548: 00ec00ec    	<unknown>
10000954c: 00ec00ec    	<unknown>
100009550: 00ec00ec    	<unknown>
100009554: 00ec00ec    	<unknown>
100009558: 00ec00ec    	<unknown>
10000955c: 00ec00ec    	<unknown>
100009560: 00ec00ec    	<unknown>
100009564: 00ec00ec    	<unknown>
100009568: 00ec00ec    	<unknown>
10000956c: 00ec00ec    	<unknown>
100009570: 00ec00ec    	<unknown>
100009574: 00ec00ec    	<unknown>
100009578: 00000102    	udf	#258
10000957c: 01d701d7    	<unknown>
100009580: 001001d7    	<unknown>
100009584: 01d70014    	<unknown>
100009588: 00280024    	<unknown>
10000958c: 003c002c    	<unknown>
100009590: 00a70047    	<unknown>
100009594: 004b00b4    	<unknown>
100009598: 01d701d7    	<unknown>
10000959c: 01d701d7    	<unknown>
1000095a0: 01d701d7    	<unknown>
1000095a4: 01d701d7    	<unknown>
1000095a8: 01d701d7    	<unknown>
1000095ac: 005f005b    	<unknown>
1000095b0: 00730063    	<unknown>
1000095b4: 01d70083    	<unknown>
1000095b8: 01d701d7    	<unknown>
1000095bc: 01d701d7    	<unknown>
1000095c0: 01d701d7    	<unknown>
1000095c4: 01d701d7    	<unknown>
1000095c8: 01d701d7    	<unknown>
1000095cc: 01d701d7    	<unknown>
1000095d0: 01d701d7    	<unknown>
1000095d4: 01d701d7    	<unknown>
1000095d8: 01d701d7    	<unknown>
1000095dc: 01d701d7    	<unknown>
1000095e0: 01d701d7    	<unknown>
1000095e4: 01d701d7    	<unknown>
1000095e8: 01d701d7    	<unknown>
1000095ec: 00c401d7    	<unknown>
1000095f0: 00c801d7    	<unknown>
1000095f4: 01d701d7    	<unknown>
1000095f8: 01d701d7    	<unknown>
1000095fc: 01d701d7    	<unknown>
100009600: 01d701d7    	<unknown>
100009604: 01d701d7    	<unknown>
100009608: 01d701d7    	<unknown>
10000960c: 01d701d7    	<unknown>
100009610: 01d701d7    	<unknown>
100009614: 01d701d7    	<unknown>
100009618: 01d701d7    	<unknown>
10000961c: 01d701d7    	<unknown>
100009620: 01d701d7    	<unknown>
100009624: 01d701d7    	<unknown>
100009628: 01d701d7    	<unknown>
10000962c: 009301d7    	<unknown>
100009630: 00cc0097    	<unknown>
100009634: 000002d9    	udf	#729
100009638: 050c050c    	<unknown>
10000963c: 050c050c    	<unknown>
100009640: 050c0018    	<unknown>
100009644: 050c050c    	<unknown>
100009648: 050c050c    	<unknown>
10000964c: 050c050c    	<unknown>
100009650: 050c050c    	<unknown>
100009654: 050c050c    	<unknown>
100009658: 050c050c    	<unknown>
10000965c: 050c050c    	<unknown>
100009660: 050c050c    	<unknown>
100009664: 050c050c    	<unknown>
100009668: 050c050c    	<unknown>
10000966c: 050c050c    	<unknown>
100009670: 050c050c    	<unknown>
100009674: 004d050c    	<unknown>
100009678: 1a1000b2    	adc	w18, w5, w16
10000967c: 3300241b    	bfxil	w27, w0, #0, #10
100009680: 03          	<unknown>

Disassembly of section __TEXT,__cstring:

0000000100009681 <__cstring>:
100009681: 6e726162    	rsubhn2.8h	v2, v11, v18
100009685: 7070615f    	adr	xzr, #920619
100009689: 5f646e65    	<unknown>
10000968d: 6d656c65    	ldp	d5, d27, [x3, #-432]
100009691: 5f746e65    	<unknown>
100009695: 615f6f74    	<unknown>
100009699: 79617272    	ldrh	w18, [x19, #4280]
10000969d: 67726128    	<unknown>
1000096a1: 61705f73    	<unknown>
1000096a5: 72657372    	<unknown>
1000096a9: 6c663e2d    	ldnp	d13, d15, [x17, #-416]
1000096ad: 2c736761    	ldnp	s1, s25, [x27, #-104]
1000096b1: 67726120    	<unknown>
1000096b5: 61620029    	<unknown>
1000096b9: 615f6e72    	<unknown>
1000096bd: 5f736772    	<unknown>
1000096c1: 73726170    	<unknown>
1000096c5: 632e7265    	<unknown>
1000096c9: 72616200    	<unknown>
1000096cd: 72615f6e    	<unknown>
1000096d1: 705f7367    	adr	x7, #781935
1000096d5: 65737261    	fnmls	z1.h, p4/m, z19.h, z19.h
1000096d9: 20745f72    	<unknown>
1000096dd: 7261622a    	<unknown>
1000096e1: 72615f6e    	<unknown>
1000096e5: 705f7367    	adr	x7, #781935
1000096e9: 65737261    	fnmls	z1.h, p4/m, z19.h, z19.h
1000096ed: 74735f72    	<unknown>
1000096f1: 28747261    	ldnp	w1, w28, [x19, #-96]
1000096f5: 2c746e69    	ldnp	s9, s27, [x19, #-96]
1000096f9: 61686320    	<unknown>
1000096fd: 2a2a2072    	orn	w18, w3, w10, lsl #8
100009701: 6e750029    	uaddl2.4s	v9, v1, v21
100009705: 776f6e6b    	<unknown>
100009709: 7375206e    	<unknown>
10000970d: 666f2065    	<unknown>
100009711: 67726120    	<unknown>
100009715: 6e656d75    	umin.8h	v21, v11, v5
100009719: 25272074    	<unknown>
10000971d: 62002773    	<unknown>
100009721: 5f6e7261    	sqdmlsl.h	s1, h19, v14[2]
100009725: 61657263    	<unknown>
100009729: 615f6574    	<unknown>
10000972d: 79617272    	ldrh	w18, [x19, #4280]
100009731: 72616200    	<unknown>
100009735: 72615f6e    	<unknown>
100009739: 2e796172    	rsubhn.4h	v18, v11, v25
10000973d: 72610063    	<unknown>
100009741: 00796172    	<unknown>
100009745: 6e726162    	rsubhn2.8h	v2, v11, v18
100009749: 7272615f    	<unknown>
10000974d: 745f7961    	<unknown>
100009751: 61622a20    	<unknown>
100009755: 635f6e72    	<unknown>
100009759: 74616572    	<unknown>
10000975d: 72615f65    	<unknown>
100009761: 28796172    	ldnp	w18, w24, [x11, #-56]
100009765: 657a6973    	fnmls	z19.h, p2/m, z11.h, z26.h
100009769: 0029745f    	<unknown>
10000976d: 5f77656e    	<unknown>
100009771: 00727470    	<unknown>
100009775: 6e726162    	rsubhn2.8h	v2, v11, v18
100009779: 7272655f    	<unknown>
10000977d: 6f5f726f    	fcmla.8h	v15, v19, v31[0], #270
100009781: 20745f72    	<unknown>
100009785: 6e726162    	rsubhn2.8h	v2, v11, v18
100009789: 7070615f    	adr	xzr, #920619
10000978d: 5f646e65    	<unknown>
100009791: 6d656c65    	ldp	d5, d27, [x3, #-432]
100009795: 5f746e65    	<unknown>
100009799: 615f6f74    	<unknown>
10000979d: 79617272    	ldrh	w18, [x19, #4280]
1000097a1: 72616228    	<unknown>
1000097a5: 72615f6e    	<unknown>
1000097a9: 5f796172    	<unknown>
1000097ad: 2c2a2074    	stnp	s20, s8, [x3, #-176]
1000097b1: 696f7620    	ldpsw	x0, x29, [x17, #-136]
1000097b5: 292a2064    	stp	w4, w8, [x3, #-176]
1000097b9: 72616200    	<unknown>
1000097bd: 72655f6e    	<unknown>
1000097c1: 5f726f72    	<unknown>
1000097c5: 745f726f    	<unknown>
1000097c9: 72616220    	<unknown>
1000097cd: 65645f6e    	fnmla	z14.h, p7/m, z27.h, z4.h
1000097d1: 6574656c    	fnmls	z12.h, p1/m, z11.h, z20.h
1000097d5: 656c655f    	fnmls	z31.h, p1/m, z10.h, z12.h
1000097d9: 746e656d    	<unknown>
1000097dd: 6f72665f    	sqshlu.2d	v31, v18, #50
1000097e1: 72615f6d    	<unknown>
1000097e5: 28796172    	ldnp	w18, w24, [x11, #-56]
1000097e9: 6e726162    	rsubhn2.8h	v2, v11, v18
1000097ed: 7272615f    	<unknown>
1000097f1: 745f7961    	<unknown>
1000097f5: 202c2a20    	<unknown>
1000097f9: 657a6973    	fnmls	z19.h, p2/m, z11.h, z26.h
1000097fd: 0029745f    	<unknown>
100009801: 6e726162    	rsubhn2.8h	v2, v11, v18
100009805: 7272655f    	<unknown>
100009809: 6f5f726f    	fcmla.8h	v15, v19, v31[0], #270
10000980d: 20745f72    	<unknown>
100009811: 6e726162    	rsubhn2.8h	v2, v11, v18
100009815: 736e695f    	<unknown>
100009819: 5f747265    	sqdmlsl.h	s5, h19, v4[3]
10000981d: 6d656c65    	ldp	d5, d27, [x3, #-432]
100009821: 5f746e65    	<unknown>
100009825: 615f6e69    	<unknown>
100009829: 79617272    	ldrh	w18, [x19, #4280]
10000982d: 72616228    	<unknown>
100009831: 72615f6e    	<unknown>
100009835: 5f796172    	<unknown>
100009839: 2c2a2074    	stnp	s20, s8, [x3, #-176]
10000983d: 7a697320    	<unknown>
100009841: 2c745f65    	ldnp	s5, s23, [x27, #-96]
100009845: 696f7620    	ldpsw	x0, x29, [x17, #-136]
100009849: 292a2064    	stp	w4, w8, [x3, #-176]
10000984d: 646f6300    	<unknown>
100009851: 6e656765    	umax.8h	v5, v27, v5
100009855: 72616200    	<unknown>
100009859: 6f635f6e    	<unknown>
10000985d: 65676564    	fnmls	z4.h, p1/m, z11.h, z7.h
100009861: 00632e6e    	<unknown>
100009865: 6e726162    	rsubhn2.8h	v2, v11, v18
100009869: 646f635f    	<unknown>
10000986d: 6e656765    	umax.8h	v5, v27, v5
100009871: 2a20745f    	orn	wzr, w2, w0, lsl #29
100009875: 6e726162    	rsubhn2.8h	v2, v11, v18
100009879: 646f635f    	<unknown>
10000987d: 6e656765    	umax.8h	v5, v27, v5
100009881: 6572635f    	fnmls	z31.h, p0/m, z26.h, z18.h
100009885: 28657461    	ldnp	w1, w29, [x3, #-216]
100009889: 6e726162    	rsubhn2.8h	v2, v11, v18
10000988d: 7261705f    	<unknown>
100009891: 5f726573    	<unknown>
100009895: 292a2074    	stp	w20, w8, [x3, #-176]
100009899: 72616200    	<unknown>
10000989d: 00632e6e    	<unknown>
1000098a1: 23002b77    	<unknown>
1000098a5: 6c636e69    	ldnp	d9, d27, [x19, #-464]
1000098a9: 20656475    	<unknown>
1000098ad: 0a220022    	bic	w2, w1, w2
1000098b1: 6863000a    	<unknown>
1000098b5: 2a207261    	orn	w1, w19, w0, lsl #28
1000098b9: 6e726162    	rsubhn2.8h	v2, v11, v18
1000098bd: 646f635f    	<unknown>
1000098c1: 6e656765    	umax.8h	v5, v27, v5
1000098c5: 65706f5f    	fnmls	z31.h, p3/m, z26.h, z16.h
1000098c9: 6f746172    	umlsl2.4s	v18, v11, v4[3]
1000098cd: 6f745f72    	<unknown>
1000098d1: 646f635f    	<unknown>
1000098d5: 61622865    	<unknown>
1000098d9: 745f6e72    	<unknown>
1000098dd: 6e656b6f    	<unknown>
1000098e1: 6e696b5f    	<unknown>
1000098e5: 29745f64    	ldp	w4, w23, [x27, #-96]
1000098e9: 6b6e7500    	<unknown>
1000098ed: 6e776f6e    	umin.8h	v14, v27, v23
1000098f1: 65706f20    	fnmls	z0.h, p3/m, z25.h, z16.h
1000098f5: 6f746172    	umlsl2.4s	v18, v11, v4[3]
1000098f9: 6f742072    	umlal2.4s	v18, v3, v4[3]
1000098fd: 646f6320    	<unknown>
100009901: 65672065    	fmls	z5.h, p0/m, z3.h, z7.h
100009905: 6172656e    	<unknown>
100009909: 25006574    	bic	p4.b, p9/z, p11.b, p0.b
10000990d: 70252070    	adr	x16, #304143
100009911: 6b6f000a    	<unknown>
100009915: 2d6f6b6f    	ldp	s15, s26, [x27, #-136]
100009919: 25203e20    	<unknown>
10000991d: 72000a64    	ands	w4, w19, #0x7
100009921: 72757465    	<unknown>
100009925: 7325206e    	<unknown>
100009929: 7325003b    	<unknown>
10000992d: 20732520    	<unknown>
100009931: 6300203d    	<unknown>
100009935: 756b206f    	<unknown>
100009939: 0a617772    	bic	w18, w27, w1, lsr #29
10000993d: 696f7600    	ldpsw	x0, x29, [x16, #-136]
100009941: 61622064    	<unknown>
100009945: 635f6e72    	<unknown>
100009949: 6765646f    	<unknown>
10000994d: 675f6e65    	<unknown>
100009951: 72656e65    	<unknown>
100009955: 5f657461    	sqshl	d1, d3, #37
100009959: 636e7566    	<unknown>
10000995d: 6e6f6974    	<unknown>
100009961: 646f625f    	<unknown>
100009965: 61622879    	<unknown>
100009969: 635f6e72    	<unknown>
10000996d: 6765646f    	<unknown>
100009971: 745f6e65    	<unknown>
100009975: 202c2a20    	<unknown>
100009979: 6e726162    	rsubhn2.8h	v2, v11, v18
10000997d: 646f6e5f    	<unknown>
100009981: 20745f65    	<unknown>
100009985: 6300292a    	<unknown>
100009989: 69706d6f    	ldpsw	x15, x27, [x11, #-128]
10000998d: 2072656c    	<unknown>
100009991: 6f727265    	fcmla.8h	v5, v19, v18[1], #270
100009995: 66202c72    	<unknown>
100009999: 74636e75    	<unknown>
10000999d: 206e6f69    	<unknown>
1000099a1: 6c636564    	ldnp	d4, d25, [x11, #-464]
1000099a5: 74617261    	<unknown>
1000099a9: 206e6f69    	<unknown>
1000099ad: 276e6163    	<unknown>
1000099b1: 61682074    	<unknown>
1000099b5: 6e657070    	uabdl2.4s	v16, v3, v5
1000099b9: 6e692064    	usubl2.4s	v4, v3, v9
1000099bd: 65646973    	fnmls	z19.h, p2/m, z11.h, z4.h
1000099c1: 66206120    	<unknown>
1000099c5: 69636e75    	ldpsw	x21, x27, [x19, #-232]
1000099c9: 006e6f74    	<unknown>
1000099cd: 6d696e75    	ldp	d21, d27, [x19, #-368]
1000099d1: 6d656c70    	ldp	d16, d27, [x3, #-432]
1000099d5: 65746e65    	fnmls	z5.h, p3/m, z19.h, z20.h
1000099d9: 6f6e2064    	umlal2.4s	v4, v3, v14[2]
1000099dd: 6b206564    	subs	w4, w11, w0, uxtx #1
1000099e1: 20646e69    	<unknown>
1000099e5: 25203e2d    	<unknown>
1000099e9: 67000a73    	<unknown>
1000099ed: 72656e65    	<unknown>
1000099f1: 6e697461    	uabd.8h	v1, v3, v9
1000099f5: 6f632067    	umlal2.4s	v7, v3, v3[2]
1000099f9: 66206564    	<unknown>
1000099fd: 6720726f    	<unknown>
100009a01: 6e657669    	uabd.8h	v9, v19, v5
100009a05: 646f6e20    	<unknown>
100009a09: 696b2065    	ldpsw	x5, x8, [x3, #-168]
100009a0d: 6920646e    	stgp	x14, x25, [x3, #-1024]
100009a11: 7566206e    	<unknown>
100009a15: 6974636e    	ldpsw	x14, x24, [x27, #-96]
100009a19: 62206e6f    	<unknown>
100009a1d: 2079646f    	<unknown>
100009a21: 75207369    	<unknown>
100009a25: 706d696e    	adr	x14, #896303
100009a29: 656d656c    	fnmls	z12.h, p1/m, z11.h, z13.h
100009a2d: 6465746e    	<unknown>
100009a31: 61656620    	<unknown>
100009a35: 72657475    	<unknown>
100009a39: 425f5f00    	<unknown>
100009a3d: 5f4e5241    	<unknown>
100009a41: 434e5546    	<unknown>
100009a45: 4e4f4954    	<unknown>
100009a49: 25205f5f    	<unknown>
100009a4d: 73252073    	<unknown>
100009a51: 73250028    	<unknown>
100009a55: 00732520    	<unknown>
100009a59: 25207325    	<unknown>
100009a5d: 00202c73    	<unknown>
100009a61: 0a7b0a29    	bic	w9, w17, w27, lsr #2
100009a65: 0a7d0a00    	bic	w0, w16, w29, lsr #2
100009a69: 7473000a    	<unknown>
100009a6d: 2f632d64    	<unknown>
100009a71: 6e726162    	rsubhn2.8h	v2, v11, v18
100009a75: 726f665f    	<unknown>
100009a79: 2e74616d    	rsubhn.4h	v13, v11, v20
100009a7d: 74730068    	<unknown>
100009a81: 2f632d64    	<unknown>
100009a85: 6e726162    	rsubhn2.8h	v2, v11, v18
100009a89: 6165685f    	<unknown>
100009a8d: 2e726564    	umax.4h	v4, v11, v18
100009a91: 6e750068    	uaddl2.4s	v8, v3, v21
100009a95: 6e676973    	<unknown>
100009a99: 63206465    	<unknown>
100009a9d: 00726168    	<unknown>
100009aa1: 69736e75    	ldpsw	x21, x27, [x19, #-104]
100009aa5: 64656e67    	<unknown>
100009aa9: 6f687320    	fcmla.8h	v0, v25, v8[1], #270
100009aad: 75007472    	<unknown>
100009ab1: 6769736e    	<unknown>
100009ab5: 2064656e    	<unknown>
100009ab9: 00746e69    	<unknown>
100009abd: 67736e75    	<unknown>
100009ac1: 64656e69    	<unknown>
100009ac5: 6e6f6c20    	umin.8h	v0, v1, v15
100009ac9: 6f6c0067    	mla.8h	v7, v3, v12[2]
100009acd: 0073676e    	<unknown>
100009ad1: 72616863    	<unknown>
100009ad5: 6f76002a    	mla.8h	v10, v1, v6[3]
100009ad9: 63006469    	<unknown>
100009add: 74736e6f    	<unknown>
100009ae1: 61686320    	<unknown>
100009ae5: 622a2072    	<unknown>
100009ae9: 5f6e7261    	sqdmlsl.h	s1, h19, v14[2]
100009aed: 65646f63    	fnmls	z3.h, p3/m, z27.h, z4.h
100009af1: 5f6e6567    	<unknown>
100009af5: 65707974    	fnmls	z20.h, p6/m, z11.h, z16.h
100009af9: 6e6f635f    	rsubhn2.8h	v31, v26, v15
100009afd: 74726576    	<unknown>
100009b01: 5f6f745f    	sqshl	d31, d2, #47
100009b05: 61622863    	<unknown>
100009b09: 635f6e72    	<unknown>
100009b0d: 6765646f    	<unknown>
100009b11: 745f6e65    	<unknown>
100009b15: 202c2a20    	<unknown>
100009b19: 6e726162    	rsubhn2.8h	v2, v11, v18
100009b1d: 7079745f    	adr	xzr, #994955
100009b21: 20745f65    	<unknown>
100009b25: 1b00292a    	madd	w10, w9, w0, w10
100009b29: 253b305b    	whilerw	p11.b, x2, x27
100009b2d: 1b006d64    	madd	w4, w11, w0, w27
100009b31: 253b315b    	whilerw	p11.b, x10, x27
100009b35: 09006d64    	<unknown>
100009b39: 20732500    	<unknown>
100009b3d: 25206e69    	<unknown>
100009b41: 00203a64    	<unknown>
100009b45: 3b305b1b    	<unknown>
100009b49: 456d3433    	uqshrnt	z19.s, z1.d, #19
100009b4d: 5952544e    	<unknown>
100009b51: 305b1b3a    	adr	x26, #746341
100009b55: 206d303b    	<unknown>
100009b59: 67724100    	<unknown>
100009b5d: 6e656d75    	umin.8h	v21, v11, v5
100009b61: 72724574    	<unknown>
100009b65: 4600726f    	<unknown>
100009b69: 45656c69    	raddhnt	z9.b, z3.h, z5.h
100009b6d: 726f7272    	<unknown>
100009b71: 6e795300    	uabal2.4s	v0, v24, v25
100009b75: 45786174    	addhnb	z20.b, z11.h, z24.h
100009b79: 726f7272    	<unknown>
100009b7d: 72615000    	<unknown>
100009b81: 45726573    	addhnt	z19.b, z11.h, z18.h
100009b85: 726f7272    	<unknown>
100009b89: 646e5500    	<unknown>
100009b8d: 6e696665    	umax.8h	v5, v19, v9
100009b91: 72456465    	<unknown>
100009b95: 00726f72    	<unknown>
100009b99: 65707954    	fnmls	z20.h, p6/m, z10.h, z16.h
100009b9d: 6f727245    	fcmla.8h	v5, v18, v18[1], #270
100009ba1: 6e550072    	<unknown>
100009ba5: 776f6e6b    	<unknown>
100009ba9: 7272456e    	<unknown>
100009bad: 4300726f    	<unknown>
100009bb1: 69706d6f    	ldpsw	x15, x27, [x11, #-128]
100009bb5: 4572656c    	addhnt	z12.b, z11.h, z18.h
100009bb9: 726f7272    	<unknown>
100009bbd: 65764f00    	fnmla	z0.h, p3/m, z24.h, z22.h
100009bc1: 6f6c6672    	sqshlu.2d	v18, v19, #44
100009bc5: 72724577    	<unknown>
100009bc9: 4e00726f    	tbx.16b	v15, { v19, v20, v21, v22 }, v0
100009bcd: 73656d61    	<unknown>
100009bd1: 65636170    	fnmls	z16.h, p0/m, z11.h, z3.h
100009bd5: 6f727245    	fcmla.8h	v5, v18, v18[1], #270
100009bd9: 614d0072    	<unknown>
100009bdd: 72456874    	<unknown>
100009be1: 00726f72    	<unknown>
100009be5: 73257325    	<unknown>
100009be9: 203a7325    	<unknown>
100009bed: 253a7325    	<unknown>
100009bf1: 64253a64    	<unknown>
100009bf5: 7325203a    	<unknown>
100009bf9: 7325000a    	<unknown>
100009bfd: 25206425    	<unknown>
100009c01: 25207c73    	<unknown>
100009c05: 2e2e2e73    	uqsub.8b	v19, v19, v14
100009c09: 000a7325    	<unknown>
100009c0d: 64257325    	<unknown>
100009c11: 7c732520    	<unknown>
100009c15: 00732520    	<unknown>
100009c19: 25007325    	eor	p5.b, p12/z, p9.b, p0.b
100009c1d: 64250063    	fmla	z3.h, z3.h, z5.h[0]
100009c21: 000a0020    	<unknown>
100009c25: 73250020    	<unknown>
100009c29: 0073257c    	<unknown>
100009c2d: 7e5e7325    	<unknown>
100009c31: 73257e7e    	<unknown>
100009c35: 72726520    	<unknown>
100009c39: 6f20726f    	<unknown>
100009c3d: 72756363    	<unknown>
100009c41: 20646572    	<unknown>
100009c45: 65726568    	fnmls	z8.h, p1/m, z11.h, z18.h
100009c49: 7325000a    	<unknown>
100009c4d: 73257325    	<unknown>
100009c51: 7325203a    	<unknown>
100009c55: 7865000a    	ldaddlh	w5, w10, [x0]
100009c59: 765f7270    	<unknown>
100009c5d: 65756c61    	fnmls	z1.h, p3/m, z3.h, z21.h
100009c61: 72616200    	<unknown>
100009c65: 78655f6e    	<unknown>
100009c69: 73657270    	<unknown>
100009c6d: 6e6f6973    	<unknown>
100009c71: 00632e73    	<unknown>
100009c75: 6e726162    	rsubhn2.8h	v2, v11, v18
100009c79: 7078655f    	adr	xzr, #986283
100009c7d: 73736572    	<unknown>
100009c81: 5f6e6f69    	<unknown>
100009c85: 756c6176    	<unknown>
100009c89: 20745f65    	<unknown>
100009c8d: 7261622a    	<unknown>
100009c91: 72635f6e    	<unknown>
100009c95: 65746165    	fnmls	z5.h, p0/m, z11.h, z20.h
100009c99: 7078655f    	adr	xzr, #986283
100009c9d: 73736572    	<unknown>
100009ca1: 5f6e6f69    	<unknown>
100009ca5: 756c6176    	<unknown>
100009ca9: 61622865    	<unknown>
100009cad: 745f6e72    	<unknown>
100009cb1: 6e656b6f    	<unknown>
100009cb5: 2a20745f    	orn	wzr, w2, w0, lsl #29
100009cb9: 6162202c    	<unknown>
100009cbd: 745f6e72    	<unknown>
100009cc1: 5f657079    	sqdmlsl.h	s25, h3, v5[2]
100009cc5: 292a2074    	stp	w20, w8, [x3, #-176]
100009cc9: 70786500    	adr	x0, #986275
100009ccd: 6f6e5f72    	<unknown>
100009cd1: 62006564    	<unknown>
100009cd5: 5f6e7261    	sqdmlsl.h	s1, h19, v14[2]
100009cd9: 72707865    	<unknown>
100009cdd: 69737365    	ldpsw	x5, x28, [x27, #-104]
100009ce1: 6e5f6e6f    	<unknown>
100009ce5: 5f65646f    	<unknown>
100009ce9: 622a2074    	<unknown>
100009ced: 5f6e7261    	sqdmlsl.h	s1, h19, v14[2]
100009cf1: 61657263    	<unknown>
100009cf5: 655f6574    	fcmne	p4.h, p1/z, z11.h, z31.h
100009cf9: 65727078    	fnmls	z24.h, p4/m, z3.h, z18.h
100009cfd: 6f697373    	fcmla.8h	v19, v27, v9[1], #270
100009d01: 6f6e5f6e    	<unknown>
100009d05: 62286564    	<unknown>
100009d09: 5f6e7261    	sqdmlsl.h	s1, h19, v14[2]
100009d0d: 72707865    	<unknown>
100009d11: 69737365    	ldpsw	x5, x28, [x27, #-104]
100009d15: 765f6e6f    	<unknown>
100009d19: 65756c61    	fnmls	z1.h, p3/m, z3.h, z21.h
100009d1d: 2a20745f    	orn	wzr, w2, w0, lsl #29
100009d21: 6162202c    	<unknown>
100009d25: 655f6e72    	fcmne	p2.h, p3/z, z19.h, z31.h
100009d29: 65727078    	fnmls	z24.h, p4/m, z3.h, z18.h
100009d2d: 6f697373    	fcmla.8h	v19, v27, v9[1], #270
100009d31: 61765f6e    	<unknown>
100009d35: 5f65756c    	sqshl	d12, d11, #37
100009d39: 2c2a2074    	stnp	s20, s8, [x3, #-176]
100009d3d: 72616220    	<unknown>
100009d41: 6f745f6e    	<unknown>
100009d45: 5f6e656b    	<unknown>
100009d49: 646e696b    	<unknown>
100009d4d: 202c745f    	<unknown>
100009d51: 69736e75    	ldpsw	x21, x27, [x19, #-104]
100009d55: 64656e67    	<unknown>
100009d59: 6e6f6c20    	umin.8h	v0, v1, v15
100009d5d: 65002967    	<unknown>
100009d61: 63657078    	<unknown>
100009d65: 20646574    	<unknown>
100009d69: 756c6176    	<unknown>
100009d6d: 6f742065    	umlal2.4s	v5, v3, v4[3]
100009d71: 206e656b    	<unknown>
100009d75: 20746f6e    	<unknown>
100009d79: 00464f45    	<unknown>
100009d7d: 65757274    	fnmls	z20.h, p4/m, z19.h, z21.h
100009d81: 6c616600    	ldnp	d0, d25, [x16, #-496]
100009d85: 67006573    	<unknown>
100009d89: 6e657669    	uabd.8h	v9, v19, v5
100009d8d: 65646920    	fnmls	z0.h, p2/m, z9.h, z4.h
100009d91: 6669746e    	<unknown>
100009d95: 20726569    	<unknown>
100009d99: 22732522    	<unknown>
100009d9d: 20736920    	<unknown>
100009da1: 65646e75    	fnmls	z21.h, p3/m, z19.h, z4.h
100009da5: 656e6966    	fnmls	z6.h, p2/m, z11.h, z14.h
100009da9: 6e750064    	uaddl2.4s	v4, v3, v21
100009dad: 65707865    	fnmls	z5.h, p6/m, z3.h, z16.h
100009db1: 64657463    	<unknown>
100009db5: 65737520    	fnmls	z0.h, p5/m, z9.h, z19.h
100009db9: 20666f20    	<unknown>
100009dbd: 22732522    	<unknown>
100009dc1: 206e6920    	<unknown>
100009dc5: 73696874    	<unknown>
100009dc9: 616c7020    	<unknown>
100009dcd: 70006563    	adr	x3, #3247
100009dd1: 6e657261    	uabdl2.4s	v1, v19, v5
100009dd5: 2b207374    	adds	w20, w27, w0, uxtx #4
100009dd9: 25203b2b    	<unknown>
100009ddd: 75000a64    	<unknown>
100009de1: 7078656e    	adr	x14, #986287
100009de5: 65746365    	fnmls	z5.h, p0/m, z27.h, z20.h
100009de9: 73752064    	<unknown>
100009ded: 666f2065    	<unknown>
100009df1: 6f6c6320    	umlsl2.4s	v0, v25, v12[2]
100009df5: 70206573    	adr	x19, #265391
100009df9: 6e657261    	uabdl2.4s	v1, v19, v5
100009dfd: 6c630074    	ldnp	d20, d0, [x3, #-464]
100009e01: 6e69736f    	uabdl2.4s	v15, v27, v9
100009e05: 6e6f2067    	usubl2.4s	v7, v3, v15
100009e09: 61702065    	<unknown>
100009e0d: 746e6572    	<unknown>
100009e11: 0a642520    	bic	w0, w9, w4, lsr #9
100009e15: 70786500    	adr	x0, #986275
100009e19: 65746365    	fnmls	z5.h, p0/m, z27.h, z20.h
100009e1d: 706f2064    	adr	x4, #910351
100009e21: 74617265    	<unknown>
100009e25: 6e20726f    	uabdl2.8h	v15, v19, v0
100009e29: 2220746f    	<unknown>
100009e2d: 00227325    	<unknown>
100009e31: 000a7025    	<unknown>
100009e35: 65707865    	fnmls	z5.h, p6/m, z3.h, z16.h
100009e39: 64657463    	<unknown>
100009e3d: 70786520    	adr	x0, #986279
100009e41: 73736572    	<unknown>
100009e45: 206e6f69    	<unknown>
100009e49: 756c6176    	<unknown>
100009e4d: 6f6e2065    	umlal2.4s	v5, v3, v14[2]
100009e51: 4f452074    	smlal2.4s	v20, v3, v5[0]
100009e55: 69640046    	ldpsw	x6, x0, [x2, #-224]
100009e59: 69736976    	ldpsw	x22, x26, [x11, #-104]
100009e5d: 62206e6f    	<unknown>
100009e61: 20302079    	<unknown>
100009e65: 6e207369    	uabdl2.8h	v9, v27, v0
100009e69: 6120746f    	<unknown>
100009e6d: 776f6c6c    	<unknown>
100009e71: 65006465    	<unknown>
100009e75: 63657078    	<unknown>
100009e79: 20646574    	<unknown>
100009e7d: 756c6176    	<unknown>
100009e81: 726f2065    	<unknown>
100009e85: 222c2220    	<unknown>
100009e89: 206f7420    	<unknown>
100009e8d: 61657263    	<unknown>
100009e91: 61206574    	<unknown>
100009e95: 6d756772    	ldp	d18, d25, [x27, #-176]
100009e99: 20746e65    	<unknown>
100009e9d: 7473696c    	<unknown>
100009ea1: 746f6e20    	<unknown>
100009ea5: 464f4520    	<unknown>
100009ea9: 70786500    	adr	x0, #986275
100009ead: 65746365    	fnmls	z5.h, p0/m, z27.h, z20.h
100009eb1: 2c222064    	stnp	s4, s8, [x3, #-240]
100009eb5: 726f2022    	<unknown>
100009eb9: 22292220    	<unknown>
100009ebd: 74666120    	<unknown>
100009ec1: 61207265    	<unknown>
100009ec5: 6d756772    	ldp	d18, d25, [x27, #-176]
100009ec9: 20746e65    	<unknown>
100009ecd: 756c6176    	<unknown>
100009ed1: 6f740065    	mla.8h	v5, v3, v4[3]
100009ed5: 6566206f    	fmls	z15.h, p0/m, z3.h, z6.h
100009ed9: 72612077    	<unknown>
100009edd: 656d7567    	fnmls	z7.h, p5/m, z11.h, z13.h
100009ee1: 2073746e    	<unknown>
100009ee5: 63206f74    	<unknown>
100009ee9: 206c6c61    	<unknown>
100009eed: 636e7566    	<unknown>
100009ef1: 6e6f6974    	<unknown>
100009ef5: 73252220    	<unknown>
100009ef9: 65202c22    	<unknown>
100009efd: 63657078    	<unknown>
100009f01: 20646574    	<unknown>
100009f05: 202c6425    	<unknown>
100009f09: 20746f67    	<unknown>
100009f0d: 74006425    	<unknown>
100009f11: 6d206f6f    	stp	d15, d27, [x27, #-512]
100009f15: 20796e61    	<unknown>
100009f19: 75677261    	<unknown>
100009f1d: 746e656d    	<unknown>
100009f21: 6f742073    	umlal2.4s	v19, v3, v4[3]
100009f25: 6c616320    	ldnp	d0, d24, [x25, #-496]
100009f29: 7566206c    	<unknown>
100009f2d: 6974636e    	ldpsw	x14, x24, [x27, #-96]
100009f31: 22206e6f    	<unknown>
100009f35: 2c227325    	stnp	s5, s28, [x25, #-240]
100009f39: 70786520    	adr	x0, #986279
100009f3d: 65746365    	fnmls	z5.h, p0/m, z27.h, z20.h
100009f41: 64252064    	fmul	z4.h, z3.h, z5.h[0]
100009f45: 6f67202c    	umlal2.4s	v12, v1, v7[2]
100009f49: 64252074    	fmul	z20.h, z3.h, z5.h[0]
100009f4d: 6e756600    	umax.8h	v0, v16, v21
100009f51: 6f697463    	uqshl.2d	v3, v3, #41
100009f55: 6873206e    	<unknown>
100009f59: 646c756f    	<unknown>
100009f5d: 20656220    	<unknown>
100009f61: 6e65706f    	uabdl2.4s	v15, v3, v5
100009f65: 74206465    	<unknown>
100009f69: 6163206f    	<unknown>
100009f6d: 61206c6c    	<unknown>
100009f71: 6e756620    	umax.8h	v0, v17, v21
100009f75: 6f697463    	uqshl.2d	v3, v3, #41
100009f79: 7566006e    	<unknown>
100009f7d: 6974636e    	ldpsw	x14, x24, [x27, #-96]
100009f81: 6e206e6f    	umin.16b	v15, v19, v0
100009f85: 64656d61    	<unknown>
100009f89: 73252220    	<unknown>
100009f8d: 6f642022    	umlal2.4s	v2, v1, v4[2]
100009f91: 276e7365    	<unknown>
100009f95: 78652074    	ldeorlh	w5, w20, [x3]
100009f99: 73747369    	<unknown>
100009f9d: 72616200    	<unknown>
100009fa1: 75665f6e    	<unknown>
100009fa5: 635f636e    	<unknown>
100009fa9: 2e6c6c61    	umin.4h	v1, v3, v12
100009fad: 61620063    	<unknown>
100009fb1: 6e5f6e72    	<unknown>
100009fb5: 5f65646f    	<unknown>
100009fb9: 5f2a2074    	<unknown>
100009fbd: 7261625f    	<unknown>
100009fc1: 61705f6e    	<unknown>
100009fc5: 72657372    	<unknown>
100009fc9: 6e75665f    	umax.8h	v31, v18, v21
100009fcd: 61635f63    	<unknown>
100009fd1: 62286c6c    	<unknown>
100009fd5: 5f6e7261    	sqdmlsl.h	s1, h19, v14[2]
100009fd9: 73726170    	<unknown>
100009fdd: 745f7265    	<unknown>
100009fe1: 00292a20    	<unknown>
100009fe5: 73696874    	<unknown>
100009fe9: 6f687320    	fcmla.8h	v0, v25, v8[1], #270
100009fed: 6e646c75    	umin.8h	v21, v3, v4
100009ff1: 68207427    	<unknown>
100009ff5: 65707061    	fnmls	z1.h, p4/m, z3.h, z16.h
100009ff9: 6500646e    	<unknown>
100009ffd: 63657078    	<unknown>
10000a001: 20646574    	<unknown>
10000a005: 74657222    	<unknown>
10000a009: 226e7275    	<unknown>
10000a00d: 736e6920    	<unknown>
10000a011: 20656469    	<unknown>
10000a015: 636e7566    	<unknown>
10000a019: 6e6f6974    	<unknown>
10000a01d: 646f6220    	<unknown>
10000a021: 78650079    	ldaddlh	w5, w25, [x3]
10000a025: 74636570    	<unknown>
10000a029: 72206465    	ands	w5, w3, #0x3ffffff
10000a02d: 72757465    	<unknown>
10000a031: 7865206e    	ldeorlh	w5, w14, [x3]
10000a035: 73657270    	<unknown>
10000a039: 6e6f6973    	<unknown>
10000a03d: 6c617620    	ldnp	d0, d29, [x17, #-496]
10000a041: 6e206575    	umax.16b	v21, v11, v0
10000a045: 4520746f    	<unknown>
10000a049: 5f00464f    	<unknown>
10000a04d: 646f635f    	<unknown>
10000a051: 735f5f65    	<unknown>
10000a055: 5f007274    	<unknown>
10000a059: 646f635f    	<unknown>
10000a05d: 005f5f65    	<unknown>
10000a061: 73755f5f    	<unknown>
10000a065: 735f5f65    	<unknown>
10000a069: 5f007274    	<unknown>
10000a06d: 6573755f    	fnmls	z31.h, p5/m, z10.h, z19.h
10000a071: 62005f5f    	<unknown>
10000a075: 5f6e7261    	sqdmlsl.h	s1, h19, v14[2]
10000a079: 636e7566    	<unknown>
10000a07d: 6e6f6974    	<unknown>
10000a081: 00632e73    	<unknown>
10000a085: 6e726162    	rsubhn2.8h	v2, v11, v18
10000a089: 646f6e5f    	<unknown>
10000a08d: 20745f65    	<unknown>
10000a091: 7261622a    	<unknown>
10000a095: 61705f6e    	<unknown>
10000a099: 72657372    	<unknown>
10000a09d: 6e75665f    	umax.8h	v31, v18, v21
10000a0a1: 6f697463    	uqshl.2d	v3, v3, #41
10000a0a5: 65675f6e    	fnmla	z14.h, p7/m, z27.h, z7.h
10000a0a9: 79625f74    	ldrh	w20, [x27, #4398]
10000a0ad: 6d616e5f    	ldp	d31, d27, [x18, #-496]
10000a0b1: 61622865    	<unknown>
10000a0b5: 705f6e72    	adr	x18, #781775
10000a0b9: 65737261    	fnmls	z1.h, p4/m, z19.h, z19.h
10000a0bd: 20745f72    	<unknown>
10000a0c1: 63202c2a    	<unknown>
10000a0c5: 20726168    	<unknown>
10000a0c9: 7500292a    	<unknown>
10000a0cd: 6f6e6b6e    	umlsl2.4s	v14, v27, v14[6]
10000a0d1: 6e206e77    	umin.16b	v23, v19, v0
10000a0d5: 5f65646f    	<unknown>
10000a0d9: 646e696b    	<unknown>
10000a0dd: 61687420    	<unknown>
10000a0e1: 68732074    	<unknown>
10000a0e5: 646c756f    	<unknown>
10000a0e9: 2074276e    	<unknown>
10000a0ed: 68206562    	<unknown>
10000a0f1: 00657265    	<unknown>
10000a0f5: 636e7566    	<unknown>
10000a0f9: 6e6f6974    	<unknown>
10000a0fd: 756f6320    	<unknown>
10000a101: 276e646c    	<unknown>
10000a105: 65622074    	fmls	z20.h, p0/m, z3.h, z2.h
10000a109: 6d616e20    	ldp	d0, d27, [x17, #-496]
10000a10d: 27206465    	<unknown>
10000a111: 00277325    	<unknown>
10000a115: 636e7566    	<unknown>
10000a119: 6e6f6974    	<unknown>
10000a11d: 74697720    	<unknown>
10000a121: 68742068    	<unknown>
10000a125: 6e207369    	uabdl2.8h	v9, v27, v0
10000a129: 20656d61    	<unknown>
10000a12d: 65726c61    	fnmls	z1.h, p3/m, z3.h, z18.h
10000a131: 20796461    	<unknown>
10000a135: 73697865    	<unknown>
10000a139: 75007374    	<unknown>
10000a13d: 6665646e    	<unknown>
10000a141: 64656e69    	<unknown>
10000a145: 646e6120    	<unknown>
10000a149: 6b6e7520    	<unknown>
10000a14d: 6e776f6e    	umin.8h	v14, v27, v23
10000a151: 70797420    	adr	x0, #994951
10000a155: 616e2065    	<unknown>
10000a159: 2720656d    	<unknown>
10000a15d: 00277325    	<unknown>
10000a161: 64696f76    	<unknown>
10000a165: 72616220    	<unknown>
10000a169: 61705f6e    	<unknown>
10000a16d: 72657372    	<unknown>
10000a171: 6e75665f    	umax.8h	v31, v18, v21
10000a175: 6f697463    	uqshl.2d	v3, v3, #41
10000a179: 72615f6e    	<unknown>
10000a17d: 705f7367    	adr	x7, #781935
10000a181: 65737261    	fnmls	z1.h, p4/m, z19.h, z19.h
10000a185: 7079745f    	adr	xzr, #994955
10000a189: 61622865    	<unknown>
10000a18d: 705f6e72    	adr	x18, #781775
10000a191: 65737261    	fnmls	z1.h, p4/m, z19.h, z19.h
10000a195: 20745f72    	<unknown>
10000a199: 62202c2a    	<unknown>
10000a19d: 5f6e7261    	sqdmlsl.h	s1, h19, v14[2]
10000a1a1: 73726170    	<unknown>
10000a1a5: 75665f65    	<unknown>
10000a1a9: 6974636e    	ldpsw	x14, x24, [x27, #-96]
10000a1ad: 615f6e6f    	<unknown>
10000a1b1: 5f736772    	<unknown>
10000a1b5: 2c2a2074    	stnp	s20, s8, [x3, #-176]
10000a1b9: 72616220    	<unknown>
10000a1bd: 72615f6e    	<unknown>
10000a1c1: 5f796172    	<unknown>
10000a1c5: 292a2074    	stp	w20, w8, [x3, #-176]
10000a1c9: 696e7500    	ldpsw	x0, x29, [x8, #-144]
10000a1cd: 656c706d    	fnmls	z13.h, p4/m, z3.h, z12.h
10000a1d1: 746e656d    	<unknown>
10000a1d5: 74206465    	<unknown>
10000a1d9: 6c706972    	ldnp	d18, d26, [x11, #-256]
10000a1dd: 746f6465    	<unknown>
10000a1e1: 67726120    	<unknown>
10000a1e5: 6e656d75    	umin.8h	v21, v11, v5
10000a1e9: 65007374    	<unknown>
10000a1ed: 63657078    	<unknown>
10000a1f1: 20646574    	<unknown>
10000a1f5: 65707974    	fnmls	z20.h, p6/m, z11.h, z16.h
10000a1f9: 6d616e20    	ldp	d0, d27, [x17, #-496]
10000a1fd: 726f2065    	<unknown>
10000a201: 69727420    	ldpsw	x0, x29, [x1, #-112]
10000a205: 20656c70    	<unknown>
10000a209: 20746f64    	<unknown>
10000a20d: 656b6f74    	fnmls	z20.h, p3/m, z27.h, z11.h
10000a211: 7865006e    	ldaddlh	w5, w14, [x3]
10000a215: 74636570    	<unknown>
10000a219: 61206465    	<unknown>
10000a21d: 6d756772    	ldp	d18, d25, [x27, #-176]
10000a221: 20746e65    	<unknown>
10000a225: 656d616e    	fnmls	z14.h, p0/m, z11.h, z13.h
10000a229: 74666120    	<unknown>
10000a22d: 63207265    	<unknown>
10000a231: 6572726f    	fnmls	z15.h, p4/m, z19.h, z18.h
10000a235: 74207463    	<unknown>
10000a239: 20657079    	<unknown>
10000a23d: 656d616e    	fnmls	z14.h, p0/m, z11.h, z13.h
10000a241: 76696700    	<unknown>
10000a245: 61206e65    	<unknown>
10000a249: 6d756772    	ldp	d18, d25, [x27, #-176]
10000a24d: 20746e65    	<unknown>
10000a251: 656d616e    	fnmls	z14.h, p0/m, z11.h, z13.h
10000a255: 20736920    	<unknown>
10000a259: 65726c61    	fnmls	z1.h, p3/m, z3.h, z18.h
10000a25d: 20796461    	<unknown>
10000a261: 75206e69    	<unknown>
10000a265: 65006573    	<unknown>
10000a269: 63657078    	<unknown>
10000a26d: 20646574    	<unknown>
10000a271: 6d6d6f63    	ldp	d3, d27, [x27, #-304]
10000a275: 69732061    	ldpsw	x1, x8, [x3, #-104]
10000a279: 27206e67    	<unknown>
10000a27d: 6120272c    	<unknown>
10000a281: 72657466    	<unknown>
10000a285: 67726120    	<unknown>
10000a289: 6e656d75    	umin.8h	v21, v11, v5
10000a28d: 616e2074    	<unknown>
10000a291: 7420656d    	<unknown>
10000a295: 6573206f    	fmls	z15.h, p0/m, z3.h, z19.h
10000a299: 61726570    	<unknown>
10000a29d: 69206574    	stgp	x20, x25, [x11, #-1024]
10000a2a1: 78650074    	ldaddlh	w5, w20, [x3]
10000a2a5: 74636570    	<unknown>
10000a2a9: 6e206465    	umax.16b	v5, v3, v0
10000a2ad: 20747865    	<unknown>
10000a2b1: 656b6f74    	fnmls	z20.h, p3/m, z27.h, z11.h
10000a2b5: 6f6e206e    	umlal2.4s	v14, v3, v14[2]
10000a2b9: 464f4520    	<unknown>
10000a2bd: 6e756600    	umax.8h	v0, v16, v21
10000a2c1: 6f697463    	uqshl.2d	v3, v3, #41
10000a2c5: 7369206e    	<unknown>
10000a2c9: 726c6120    	<unknown>
10000a2cd: 79646165    	ldrh	w5, [x11, #4656]
10000a2d1: 65706f20    	fnmls	z0.h, p3/m, z25.h, z16.h
10000a2d5: 0064656e    	<unknown>
10000a2d9: 65707865    	fnmls	z5.h, p6/m, z3.h, z16.h
10000a2dd: 64657463    	<unknown>
10000a2e1: 27282720    	<unknown>
10000a2e5: 74666120    	<unknown>
10000a2e9: 66207265    	<unknown>
10000a2ed: 74636e75    	<unknown>
10000a2f1: 206e6f69    	<unknown>
10000a2f5: 656d616e    	fnmls	z14.h, p0/m, z11.h, z13.h
10000a2f9: 64255b00    	<unknown>
10000a2fd: 72613d5d    	<unknown>
10000a301: 656d7567    	fnmls	z7.h, p5/m, z11.h, z13.h
10000a305: 6e5f746e    	<unknown>
10000a309: 3a656d61    	<unknown>
10000a30d: 22732522    	<unknown>
10000a311: 7261202c    	<unknown>
10000a315: 656d7567    	fnmls	z7.h, p5/m, z11.h, z13.h
10000a319: 745f746e    	<unknown>
10000a31d: 2d657079    	ldp	s25, s28, [x3, #-216]
10000a321: 7a69733e    	<unknown>
10000a325: 25223a65    	<unknown>
10000a329: 0a22756c    	bic	w12, w11, w2, lsl #29
10000a32d: 70786500    	adr	x0, #986275
10000a331: 65746365    	fnmls	z5.h, p0/m, z27.h, z20.h
10000a335: 7b272064    	<unknown>
10000a339: 726f2027    	<unknown>
10000a33d: 3e2d2720    	<unknown>
10000a341: 66612027    	<unknown>
10000a345: 20726574    	<unknown>
10000a349: 6c636564    	ldnp	d4, d25, [x11, #-464]
10000a34d: 6e697261    	uabdl2.4s	v1, v19, v9
10000a351: 20612067    	<unknown>
10000a355: 636e7566    	<unknown>
10000a359: 6e6f6974    	<unknown>
10000a35d: 746f6e20    	<unknown>
10000a361: 464f4520    	<unknown>
10000a365: 70786500    	adr	x0, #986275
10000a369: 65746365    	fnmls	z5.h, p0/m, z27.h, z20.h
10000a36d: 7b272064    	<unknown>
10000a371: 726f2027    	<unknown>
10000a375: 3e2d2720    	<unknown>
10000a379: 66612027    	<unknown>
10000a37d: 20726574    	<unknown>
10000a381: 6c636564    	ldnp	d4, d25, [x11, #-464]
10000a385: 6e697261    	uabdl2.4s	v1, v19, v9
10000a389: 20612067    	<unknown>
10000a38d: 636e7566    	<unknown>
10000a391: 6e6f6974    	<unknown>
10000a395: 70786500    	adr	x0, #986275
10000a399: 65746365    	fnmls	z5.h, p0/m, z27.h, z20.h
10000a39d: 79742064    	ldrh	w4, [x3, #6672]
10000a3a1: 6e206570    	umax.16b	v16, v11, v0
10000a3a5: 20656d61    	<unknown>
10000a3a9: 65746661    	fnmls	z1.h, p1/m, z19.h, z20.h
10000a3ad: 2d272072    	stp	s18, s8, [x3, #-200]
10000a3b1: 6120273e    	<unknown>
10000a3b5: 776f7272    	<unknown>
10000a3b9: 70786500    	adr	x0, #986275
10000a3bd: 65746365    	fnmls	z5.h, p0/m, z27.h, z20.h
10000a3c1: 7b272064    	<unknown>
10000a3c5: 6f742027    	umlal2.4s	v7, v1, v4[3]
10000a3c9: 65706f20    	fnmls	z0.h, p3/m, z25.h, z16.h
10000a3cd: 7566206e    	<unknown>
10000a3d1: 6974636e    	ldpsw	x14, x24, [x27, #-96]
10000a3d5: 62206e6f    	<unknown>
10000a3d9: 0079646f    	<unknown>
10000a3dd: 73257325    	<unknown>
10000a3e1: 756f6300    	<unknown>
10000a3e5: 276e646c    	<unknown>
10000a3e9: 69662074    	ldpsw	x20, x8, [x3, #-208]
10000a3ed: 6620646e    	<unknown>
10000a3f1: 20656c69    	<unknown>
10000a3f5: 656d616e    	fnmls	z14.h, p0/m, z11.h, z13.h
10000a3f9: 25272064    	<unknown>
10000a3fd: 62002773    	<unknown>
10000a401: 5f6e7261    	sqdmlsl.h	s1, h19, v14[2]
10000a405: 6c636e69    	ldnp	d9, d27, [x19, #-464]
10000a409: 2e656475    	umax.4h	v21, v3, v5
10000a40d: 78650063    	ldaddlh	w5, w3, [x3]
10000a411: 74636570    	<unknown>
10000a415: 69206465    	stgp	x5, x25, [x3, #-1024]
10000a419: 726f706d    	<unknown>
10000a41d: 69662074    	ldpsw	x20, x8, [x3, #-208]
10000a421: 616e656c    	<unknown>
10000a425: 6120656d    	<unknown>
10000a429: 72657466    	<unknown>
10000a42d: 69402720    	ldpsw	x0, x9, [x25]
10000a431: 726f706d    	<unknown>
10000a435: 6b202774    	subs	w20, w27, w0, uxth #1
10000a439: 6f777965    	fcmla.8h	v5, v11, v23[3], #270
10000a43d: 72006472    	ands	w18, w3, #0x3ffffff
10000a441: 72616200    	<unknown>
10000a445: 6f695f6e    	<unknown>
10000a449: 6300632e    	<unknown>
10000a44d: 20726168    	<unknown>
10000a451: 7261622a    	<unknown>
10000a455: 65725f6e    	fnmla	z14.h, p7/m, z27.h, z18.h
10000a459: 775f6461    	<unknown>
10000a45d: 656c6f68    	fnmls	z8.h, p3/m, z27.h, z12.h
10000a461: 6c69665f    	ldnp	d31, d25, [x18, #-368]
10000a465: 6f632865    	umlal2.4s	v5, v3, v3[6]
10000a469: 2074736e    	<unknown>
10000a46d: 72616863    	<unknown>
10000a471: 00292a20    	<unknown>
10000a475: 66667562    	<unknown>
10000a479: 66007265    	<unknown>
10000a47d: 64616572    	<unknown>
10000a481: 66756228    	<unknown>
10000a485: 2c726566    	ldnp	s6, s25, [x11, #-112]
10000a489: 202c3120    	<unknown>
10000a48d: 656c6966    	fnmls	z6.h, p2/m, z11.h, z12.h
10000a491: 7a69735f    	<unknown>
10000a495: 66202c65    	<unknown>
10000a499: 3d3d2029    	str	b9, [x1, #3912]
10000a49d: 6c696620    	ldnp	d0, d25, [x17, #-368]
10000a4a1: 69735f65    	ldpsw	x5, x23, [x27, #-104]
10000a4a5: 4100657a    	<unknown>
10000a4a9: 34364d52    	cbz	w18, 0x100076e51 <_barn_type_f64_global+0x66df1>
10000a4ad: 72616200    	<unknown>
10000a4b1: 656c5f6e    	fnmla	z14.h, p7/m, z27.h, z12.h
10000a4b5: 5f726578    	<unknown>
10000a4b9: 726f7473    	<unknown>
10000a4bd: 69665f65    	ldpsw	x5, x23, [x27, #-208]
10000a4c1: 6c5f656c    	ldnp	d12, d25, [x11, #496]
10000a4c5: 73656e69    	<unknown>
10000a4c9: 72616200    	<unknown>
10000a4cd: 656c5f6e    	fnmla	z14.h, p7/m, z27.h, z12.h
10000a4d1: 2e726578    	umax.4h	v24, v11, v18
10000a4d5: 61620063    	<unknown>
10000a4d9: 6c5f6e72    	ldnp	d18, d27, [x19, #496]
10000a4dd: 72657865    	<unknown>
10000a4e1: 69616d5f    	ldpsw	xzr, x27, [x10, #-248]
10000a4e5: 6272006e    	<unknown>
10000a4e9: 76006600    	<unknown>
10000a4ed: 2064696f    	<unknown>
10000a4f1: 6e726162    	rsubhn2.8h	v2, v11, v18
10000a4f5: 78656c5f    	<unknown>
10000a4f9: 735f7265    	<unknown>
10000a4fd: 65726f74    	fnmls	z20.h, p3/m, z27.h, z18.h
10000a501: 6c69665f    	ldnp	d31, d25, [x18, #-368]
10000a505: 696c5f65    	ldpsw	x5, x23, [x27, #-160]
10000a509: 2873656e    	ldnp	w14, w25, [x11, #-104]
10000a50d: 6e726162    	rsubhn2.8h	v2, v11, v18
10000a511: 78656c5f    	<unknown>
10000a515: 745f7265    	<unknown>
10000a519: 202c2a20    	<unknown>
10000a51d: 736e6f63    	<unknown>
10000a521: 68632074    	<unknown>
10000a525: 2a207261    	orn	w1, w19, w0, lsl #28
10000a529: 64250029    	fmla	z9.h, z1.h, z5.h[0]
10000a52d: 6e696c20    	umin.8h	v0, v1, v9
10000a531: 73692065    	<unknown>
10000a535: 6f6f7420    	uqshl.2d	v0, v1, #47
10000a539: 6e6f6c20    	umin.8h	v0, v1, v15
10000a53d: 31282067    	adds	w7, w3, #2568
10000a541: 20343230    	<unknown>
10000a545: 3233202a    	orr	w10, w1, #0x3fe000
10000a549: 6d696c20    	ldp	d0, d27, [x1, #-368]
10000a54d: 2c297469    	stnp	s9, s29, [x3, #-184]
10000a551: 696b7320    	ldpsw	x0, x28, [x25, #-168]
10000a555: 6e697070    	uabdl2.4s	v16, v3, v9
10000a559: 78652067    	ldeorlh	w5, w7, [x3]
10000a55d: 73736563    	<unknown>
10000a561: 61686320    	<unknown>
10000a565: 74636172    	<unknown>
10000a569: 00737265    	<unknown>
10000a56d: 5f77656e    	<unknown>
10000a571: 656e696c    	fnmls	z12.h, p2/m, z11.h, z14.h
10000a575: 6e756600    	umax.8h	v0, v16, v21
10000a579: 6f697463    	uqshl.2d	v3, v3, #41
10000a57d: 25203a6e    	<unknown>
10000a581: 72202c73    	ands	w19, w3, #0xfff
10000a585: 72757465    	<unknown>
10000a589: 2064656e    	<unknown>
10000a58d: 6f727265    	fcmla.8h	v5, v19, v18[1], #270
10000a591: 2d282072    	stp	s18, s8, [x3, #-192]
10000a595: 62002931    	<unknown>
10000a599: 5f6e7261    	sqdmlsl.h	s1, h19, v14[2]
10000a59d: 65707061    	fnmls	z1.h, p4/m, z3.h, z16.h
10000a5a1: 655f646e    	fcmeq	p14.h, p1/z, z3.h, z31.h
10000a5a5: 656d656c    	fnmls	z12.h, p1/m, z11.h, z13.h
10000a5a9: 745f746e    	<unknown>
10000a5ad: 72615f6f    	<unknown>
10000a5b1: 28796172    	ldnp	w18, w24, [x11, #-56]
10000a5b5: 6578656c    	fnmls	z12.h, p1/m, z11.h, z24.h
10000a5b9: 743e2d72    	<unknown>
10000a5bd: 6e656b6f    	<unknown>
10000a5c1: 74202c73    	<unknown>
10000a5c5: 6e656b6f    	<unknown>
10000a5c9: 6f760029    	mla.8h	v9, v1, v6[3]
10000a5cd: 62206469    	<unknown>
10000a5d1: 5f6e7261    	sqdmlsl.h	s1, h19, v14[2]
10000a5d5: 6578656c    	fnmls	z12.h, p1/m, z11.h, z24.h
10000a5d9: 656e5f72    	fnmla	z18.h, p7/m, z27.h, z14.h
10000a5dd: 696c5f77    	ldpsw	x23, x23, [x27, #-160]
10000a5e1: 6228656e    	<unknown>
10000a5e5: 5f6e7261    	sqdmlsl.h	s1, h19, v14[2]
10000a5e9: 6578656c    	fnmls	z12.h, p1/m, z11.h, z24.h
10000a5ed: 20745f72    	<unknown>
10000a5f1: 6f00292a    	<unknown>
10000a5f5: 696e6570    	ldpsw	x16, x25, [x11, #-144]
10000a5f9: 6120676e    	<unknown>
10000a5fd: 68746f6e    	<unknown>
10000a601: 6d207265    	stp	d5, d28, [x19, #-512]
10000a605: 69746c75    	ldpsw	x21, x27, [x3, #-96]
10000a609: 656e696c    	fnmls	z12.h, p2/m, z11.h, z14.h
10000a60d: 6d6f6320    	ldp	d0, d24, [x25, #-272]
10000a611: 746e656d    	<unknown>
10000a615: 65687720    	fnmls	z0.h, p5/m, z25.h, z8.h
10000a619: 6874206e    	<unknown>
10000a61d: 6c6f2065    	ldnp	d5, d8, [x3, #-272]
10000a621: 6e6f2064    	usubl2.4s	v4, v3, v15
10000a625: 73692065    	<unknown>
10000a629: 2074276e    	<unknown>
10000a62d: 736f6c63    	<unknown>
10000a631: 74006465    	<unknown>
10000a635: 65726568    	fnmls	z8.h, p1/m, z11.h, z18.h
10000a639: 6e736920    	<unknown>
10000a63d: 61207427    	<unknown>
10000a641: 6d20796e    	stp	d14, d30, [x11, #-512]
10000a645: 69746c75    	ldpsw	x21, x27, [x3, #-96]
10000a649: 656e696c    	fnmls	z12.h, p2/m, z11.h, z14.h
10000a64d: 6d6f6320    	ldp	d0, d24, [x25, #-272]
10000a651: 746e656d    	<unknown>
10000a655: 61687420    	<unknown>
10000a659: 656e2074    	fmls	z20.h, p0/m, z3.h, z14.h
10000a65d: 74206465    	<unknown>
10000a661: 6562206f    	fmls	z15.h, p0/m, z3.h, z2.h
10000a665: 6f6c6320    	umlsl2.4s	v0, v25, v12[2]
10000a669: 00646573    	<unknown>
10000a66d: 64696f76    	<unknown>
10000a671: 72616220    	<unknown>
10000a675: 656c5f6e    	fnmla	z14.h, p7/m, z27.h, z12.h
10000a679: 5f726578    	<unknown>
10000a67d: 61657263    	<unknown>
10000a681: 735f6574    	<unknown>
10000a685: 6e697274    	uabdl2.4s	v20, v19, v9
10000a689: 61622867    	<unknown>
10000a68d: 6c5f6e72    	ldnp	d18, d27, [x19, #496]
10000a691: 72657865    	<unknown>
10000a695: 2a20745f    	orn	wzr, w2, w0, lsl #29
10000a699: 6e750029    	uaddl2.4s	v9, v1, v21
10000a69d: 776f6e6b    	<unknown>
10000a6a1: 7365206e    	<unknown>
10000a6a5: 65706163    	fnmls	z3.h, p0/m, z11.h, z16.h
10000a6a9: 71657320    	subs	w0, w25, #2396, lsl #12 ; =9814016
10000a6ad: 636e6575    	<unknown>
10000a6b1: 5c272065    	ldr	d5, 0x100058abd <_barn_type_f64_global+0x48a5d>
10000a6b5: 00276325    	<unknown>
10000a6b9: 65707865    	fnmls	z5.h, p6/m, z3.h, z16.h
10000a6bd: 64657463    	<unknown>
10000a6c1: 61686320    	<unknown>
10000a6c5: 74636172    	<unknown>
10000a6c9: 69207265    	stgp	x5, x28, [x19, #-1024]
10000a6cd: 6574736e    	fnmls	z14.h, p4/m, z27.h, z20.h
10000a6d1: 6f206461    	sqshlu.4s	v1, v3, #0
10000a6d5: 4f452066    	smlal2.4s	v6, v3, v5[0]
10000a6d9: 78650046    	ldaddlh	w5, w6, [x2]
10000a6dd: 74636570    	<unknown>
10000a6e1: 61206465    	<unknown>
10000a6e5: 6863206e    	<unknown>
10000a6e9: 63617261    	<unknown>
10000a6ed: 20726574    	<unknown>
10000a6f1: 77746562    	<unknown>
10000a6f5: 206e6565    	<unknown>
10000a6f9: 65002727    	<unknown>
10000a6fd: 63657078    	<unknown>
10000a701: 20646574    	<unknown>
10000a705: 6f742027    	umlal2.4s	v7, v1, v4[3]
10000a709: 6f6c6320    	umlsl2.4s	v0, v25, v12[2]
10000a70d: 63206573    	<unknown>
10000a711: 61726168    	<unknown>
10000a715: 72657463    	<unknown>
10000a719: 6b6f7420    	<unknown>
10000a71d: 76006e65    	<unknown>
10000a721: 2064696f    	<unknown>
10000a725: 6e726162    	rsubhn2.8h	v2, v11, v18
10000a729: 78656c5f    	<unknown>
10000a72d: 635f7265    	<unknown>
10000a731: 74616572    	<unknown>
10000a735: 68635f65    	<unknown>
10000a739: 62287261    	<unknown>
10000a73d: 5f6e7261    	sqdmlsl.h	s1, h19, v14[2]
10000a741: 6578656c    	fnmls	z12.h, p1/m, z11.h, z24.h
10000a745: 20745f72    	<unknown>
10000a749: 6100292a    	<unknown>
10000a74d: 65646362    	fnmls	z2.h, p0/m, z27.h, z4.h
10000a751: 69686766    	ldpsw	x6, x25, [x27, #-192]
10000a755: 6d6c6b6a    	ldp	d10, d26, [x27, #-320]
10000a759: 71706f6e    	subs	w14, w27, #3099, lsl #12 ; =12693504
10000a75d: 75747372    	<unknown>
10000a761: 79787776    	ldrh	w22, [x27, #7226]
10000a765: 4342417a    	<unknown>
10000a769: 47464544    	<unknown>
10000a76d: 4b4a4948    	sub	w8, w10, w10, lsr #18
10000a771: 4f4e4d4c    	<unknown>
10000a775: 53525150    	<unknown>
10000a779: 58565554    	ldr	x20, 0x1000b7221 <_barn_type_f64_global+0xa71c1>
10000a77d: 405f5a59    	<unknown>
10000a781: 31300024    	adds	w4, w1, #3072
10000a785: 35343332    	cbnz	w18, 0x100072de9 <_barn_type_f64_global+0x62d89>
10000a789: 39383736    	strb	w22, [x25, #3597]
10000a78d: 6f425f00    	<unknown>
10000a791: 62206c6f    	<unknown>
10000a795: 5f6e7261    	sqdmlsl.h	s1, h19, v14[2]
10000a799: 6578656c    	fnmls	z12.h, p1/m, z11.h, z24.h
10000a79d: 72635f72    	<unknown>
10000a7a1: 65746165    	fnmls	z5.h, p0/m, z11.h, z20.h
10000a7a5: 6564695f    	fnmls	z31.h, p2/m, z10.h, z4.h
10000a7a9: 6669746e    	<unknown>
10000a7ad: 5f726569    	<unknown>
10000a7b1: 7473616c    	<unknown>
10000a7b5: 6b6f745f    	<unknown>
10000a7b9: 6e5f6e65    	<unknown>
10000a7bd: 286c6c75    	ldnp	w21, w27, [x3, #-160]
10000a7c1: 6e726162    	rsubhn2.8h	v2, v11, v18
10000a7c5: 78656c5f    	<unknown>
10000a7c9: 745f7265    	<unknown>
10000a7cd: 202c2a20    	<unknown>
10000a7d1: 72616863    	<unknown>
10000a7d5: 00292a20    	<unknown>
10000a7d9: 6f6f425f    	mls.8h	v31, v18, v15[2]
10000a7dd: 6162206c    	<unknown>
10000a7e1: 6c5f6e72    	ldnp	d18, d27, [x19, #496]
10000a7e5: 72657865    	<unknown>
10000a7e9: 6572635f    	fnmls	z31.h, p0/m, z26.h, z18.h
10000a7ed: 5f657461    	sqshl	d1, d3, #37
10000a7f1: 6e656469    	umax.8h	v9, v3, v5
10000a7f5: 69666974    	ldpsw	x20, x26, [x11, #-208]
10000a7f9: 6e5f7265    	<unknown>
10000a7fd: 70735f6f    	adr	x15, #945135
10000a801: 28656361    	ldnp	w1, w24, [x27, #-216]
10000a805: 6e726162    	rsubhn2.8h	v2, v11, v18
10000a809: 78656c5f    	<unknown>
10000a80d: 745f7265    	<unknown>
10000a811: 202c2a20    	<unknown>
10000a815: 72616863    	<unknown>
10000a819: 00292a20    	<unknown>
10000a81d: 64696f76    	<unknown>
10000a821: 72616220    	<unknown>
10000a825: 656c5f6e    	fnmla	z14.h, p7/m, z27.h, z12.h
10000a829: 5f726578    	<unknown>
10000a82d: 61657263    	<unknown>
10000a831: 695f6574    	ldpsw	x20, x25, [x11, #248]
10000a835: 746e6564    	<unknown>
10000a839: 65696669    	fnmls	z9.h, p1/m, z19.h, z9.h
10000a83d: 61622872    	<unknown>
10000a841: 6c5f6e72    	ldnp	d18, d27, [x19, #496]
10000a845: 72657865    	<unknown>
10000a849: 2a20745f    	orn	wzr, w2, w0, lsl #29
10000a84d: 425f0029    	<unknown>
10000a851: 206c6f6f    	<unknown>
10000a855: 6e726162    	rsubhn2.8h	v2, v11, v18
10000a859: 78656c5f    	<unknown>
10000a85d: 635f7265    	<unknown>
10000a861: 74616572    	<unknown>
10000a865: 756e5f65    	<unknown>
10000a869: 7265626d    	<unknown>
10000a86d: 73616c5f    	<unknown>
10000a871: 6f745f74    	<unknown>
10000a875: 5f6e656b    	<unknown>
10000a879: 6c6c756e    	ldnp	d14, d29, [x11, #-320]
10000a87d: 72616228    	<unknown>
10000a881: 656c5f6e    	fnmla	z14.h, p7/m, z27.h, z12.h
10000a885: 5f726578    	<unknown>
10000a889: 2c2a2074    	stnp	s20, s8, [x3, #-176]
10000a88d: 61686320    	<unknown>
10000a891: 292a2072    	stp	w18, w8, [x3, #-176]
10000a895: 6f425f00    	<unknown>
10000a899: 62206c6f    	<unknown>
10000a89d: 5f6e7261    	sqdmlsl.h	s1, h19, v14[2]
10000a8a1: 6578656c    	fnmls	z12.h, p1/m, z11.h, z24.h
10000a8a5: 72635f72    	<unknown>
10000a8a9: 65746165    	fnmls	z5.h, p0/m, z11.h, z20.h
10000a8ad: 6d756e5f    	ldp	d31, d27, [x18, #-176]
10000a8b1: 5f726562    	<unknown>
10000a8b5: 735f6f6e    	<unknown>
10000a8b9: 65636170    	fnmls	z16.h, p0/m, z11.h, z3.h
10000a8bd: 72616228    	<unknown>
10000a8c1: 656c5f6e    	fnmla	z14.h, p7/m, z27.h, z12.h
10000a8c5: 5f726578    	<unknown>
10000a8c9: 2c2a2074    	stnp	s20, s8, [x3, #-176]
10000a8cd: 61686320    	<unknown>
10000a8d1: 292a2072    	stp	w18, w8, [x3, #-176]
10000a8d5: 696f7600    	ldpsw	x0, x29, [x16, #-136]
10000a8d9: 61622064    	<unknown>
10000a8dd: 6c5f6e72    	ldnp	d18, d27, [x19, #496]
10000a8e1: 72657865    	<unknown>
10000a8e5: 6572635f    	fnmls	z31.h, p0/m, z26.h, z18.h
10000a8e9: 5f657461    	sqshl	d1, d3, #37
10000a8ed: 626d756e    	<unknown>
10000a8f1: 62287265    	<unknown>
10000a8f5: 5f6e7261    	sqdmlsl.h	s1, h19, v14[2]
10000a8f9: 6578656c    	fnmls	z12.h, p1/m, z11.h, z24.h
10000a8fd: 20745f72    	<unknown>
10000a901: 6300292a    	<unknown>
10000a905: 74276e61    	<unknown>
10000a909: 64646120    	<unknown>
10000a90d: 6f6e6120    	umlsl2.4s	v0, v9, v14[2]
10000a911: 72656874    	<unknown>
10000a915: 272e2720    	<unknown>
10000a919: 206f7420    	<unknown>
10000a91d: 616f6c66    	<unknown>
10000a921: 425f0074    	<unknown>
10000a925: 206c6f6f    	<unknown>
10000a929: 6e726162    	rsubhn2.8h	v2, v11, v18
10000a92d: 78656c5f    	<unknown>
10000a931: 635f7265    	<unknown>
10000a935: 74616572    	<unknown>
10000a939: 6c665f65    	ldnp	d5, d23, [x27, #-416]
10000a93d: 5f74616f    	<unknown>
10000a941: 7473616c    	<unknown>
10000a945: 6b6f745f    	<unknown>
10000a949: 6e5f6e65    	<unknown>
10000a94d: 756e5f6f    	<unknown>
10000a951: 62286c6c    	<unknown>
10000a955: 5f6e7261    	sqdmlsl.h	s1, h19, v14[2]
10000a959: 6578656c    	fnmls	z12.h, p1/m, z11.h, z24.h
10000a95d: 20745f72    	<unknown>
10000a961: 63202c2a    	<unknown>
10000a965: 20726168    	<unknown>
10000a969: 7600292a    	<unknown>
10000a96d: 2064696f    	<unknown>
10000a971: 6e726162    	rsubhn2.8h	v2, v11, v18
10000a975: 78656c5f    	<unknown>
10000a979: 635f7265    	<unknown>
10000a97d: 74616572    	<unknown>
10000a981: 6c665f65    	ldnp	d5, d23, [x27, #-416]
10000a985: 5f74616f    	<unknown>
10000a989: 626d756e    	<unknown>
10000a98d: 62287265    	<unknown>
10000a991: 5f6e7261    	sqdmlsl.h	s1, h19, v14[2]
10000a995: 6578656c    	fnmls	z12.h, p1/m, z11.h, z24.h
10000a999: 20745f72    	<unknown>
10000a99d: 2800292a    	stnp	w10, w10, [x9]
10000a9a1: 5b002900    	<unknown>
10000a9a5: 7b005d00    	<unknown>
10000a9a9: 2e007d00    	<unknown>
10000a9ad: 65002e2e    	<unknown>
10000a9b1: 63657078    	<unknown>
10000a9b5: 20646574    	<unknown>
10000a9b9: 20272e27    	<unknown>
10000a9bd: 65746661    	fnmls	z1.h, p1/m, z19.h, z20.h
10000a9c1: 2e272072    	usubl.8h	v18, v3, v7
10000a9c5: 7420272e    	<unknown>
10000a9c9: 7263206f    	<unknown>
10000a9cd: 65746165    	fnmls	z5.h, p0/m, z11.h, z20.h
10000a9d1: 49525420    	<unknown>
10000a9d5: 44454c50    	umlalt	z16.h, z2.b, z5.b
10000a9d9: 7420544f    	<unknown>
10000a9dd: 6e656b6f    	<unknown>
10000a9e1: 3a003b00    	<unknown>
10000a9e5: 25002c00    	cmplt	p0.b, p3/z, z0.b, #0
10000a9e9: 007c7c00    	<unknown>
10000a9ed: 65707865    	fnmls	z5.h, p6/m, z3.h, z16.h
10000a9f1: 64657463    	<unknown>
10000a9f5: 7c7c2720    	<unknown>
10000a9f9: 6f742027    	umlal2.4s	v7, v1, v4[3]
10000a9fd: 65726320    	fnmls	z0.h, p0/m, z25.h, z18.h
10000aa01: 20657461    	<unknown>
10000aa05: 7420524f    	<unknown>
10000aa09: 6e656b6f    	<unknown>
10000aa0d: 00262600    	<unknown>
10000aa11: 65707865    	fnmls	z5.h, p6/m, z3.h, z16.h
10000aa15: 64657463    	<unknown>
10000aa19: 26262720    	<unknown>
10000aa1d: 6f742027    	umlal2.4s	v7, v1, v4[3]
10000aa21: 65726320    	fnmls	z0.h, p0/m, z25.h, z18.h
10000aa25: 20657461    	<unknown>
10000aa29: 7420524f    	<unknown>
10000aa2d: 6e656b6f    	<unknown>
10000aa31: 003d2100    	<unknown>
10000aa35: 3d2b0021    	str	b1, [x1, #2752]
10000aa39: 002b2b00    	<unknown>
10000aa3d: 3d2d002b    	str	b11, [x1, #2880]
10000aa41: 003e2d00    	<unknown>
10000aa45: 2d002d2d    	stp	s13, s11, [x9]
10000aa49: 003d2a00    	<unknown>
10000aa4d: 3d2f002a    	str	b10, [x1, #3008]
10000aa51: 3e002f00    	<unknown>
10000aa55: 003e003d    	<unknown>
10000aa59: 3c003d3c    	str	b28, [x9, #3]!
10000aa5d: 003d3d00    	<unknown>
10000aa61: 6f76003d    	mla.8h	v29, v1, v6[3]
10000aa65: 62206469    	<unknown>
10000aa69: 5f6e7261    	sqdmlsl.h	s1, h19, v14[2]
10000aa6d: 6578656c    	fnmls	z12.h, p1/m, z11.h, z24.h
10000aa71: 616d5f72    	<unknown>
10000aa75: 62286e69    	<unknown>
10000aa79: 5f6e7261    	sqdmlsl.h	s1, h19, v14[2]
10000aa7d: 6578656c    	fnmls	z12.h, p1/m, z11.h, z24.h
10000aa81: 20745f72    	<unknown>
10000aa85: 7500292a    	<unknown>
10000aa89: 6f6e6b6e    	umlsl2.4s	v14, v27, v14[6]
10000aa8d: 75206e77    	<unknown>
10000aa91: 6f206573    	sqshlu.4s	v19, v11, #0
10000aa95: 68632066    	<unknown>
10000aa99: 63617261    	<unknown>
10000aa9d: 3a726574    	<unknown>
10000aaa1: 63252720    	<unknown>
10000aaa5: 25282027    	<unknown>
10000aaa9: 65002964    	<unknown>
10000aaad: 0000666f    	udf	#26223
10000aab1: 65682d2d    	fmls	z13.h, p3/m, z9.h, z8.h
10000aab5: 2d00706c    	stp	s12, s28, [x3]
10000aab9: 2d2d0068    	stp	s8, s0, [x3, #-152]
10000aabd: 73726576    	<unknown>
10000aac1: 006e6f69    	<unknown>
10000aac5: 7500762d    	<unknown>
10000aac9: 6f6e6b6e    	umlsl2.4s	v14, v27, v14[6]
10000aacd: 75206e77    	<unknown>
10000aad1: 6f206573    	sqshlu.4s	v19, v11, #0
10000aad5: 25272066    	<unknown>
10000aad9: 66202773    	<unknown>
10000aadd: 0067616c    	<unknown>
10000aae1: 6e726162    	rsubhn2.8h	v2, v11, v18
10000aae5: 6c69665f    	ldnp	d31, d25, [x18, #-368]
10000aae9: 78655f65    	<unknown>
10000aaed: 73747369    	<unknown>
10000aaf1: 72616200    	<unknown>
10000aaf5: 616d5f6e    	<unknown>
10000aaf9: 632e6e69    	<unknown>
10000aafd: 6c696600    	ldnp	d0, d25, [x16, #-368]
10000ab01: 616e2065    	<unknown>
10000ab05: 2064656d    	<unknown>
10000ab09: 27732527    	<unknown>
10000ab0d: 656f6420    	fnmls	z0.h, p1/m, z1.h, z15.h
10000ab11: 74276e73    	<unknown>
10000ab15: 69786520    	ldpsw	x0, x25, [x9, #-64]
10000ab19: 00737473    	<unknown>
10000ab1d: 6e726162    	rsubhn2.8h	v2, v11, v18
10000ab21: 6174735f    	<unknown>
10000ab25: 745f7472    	<unknown>
10000ab29: 5f656d69    	<unknown>
10000ab2d: 706d6f63    	adr	x3, #896495
10000ab31: 74616c69    	<unknown>
10000ab35: 006e6f69    	<unknown>
10000ab39: 6e726162    	rsubhn2.8h	v2, v11, v18
10000ab3d: 6165725f    	<unknown>
10000ab41: 68775f64    	<unknown>
10000ab45: 5f656c6f    	<unknown>
10000ab49: 656c6966    	fnmls	z6.h, p2/m, z11.h, z12.h
10000ab4d: 72616200    	<unknown>
10000ab51: 74735f6e    	<unknown>
10000ab55: 5f747261    	sqdmlsl.h	s1, h19, v4[3]
10000ab59: 6578656c    	fnmls	z12.h, p1/m, z11.h, z24.h
10000ab5d: 61620072    	<unknown>
10000ab61: 695f6e72    	ldpsw	x18, x27, [x19, #248]
10000ab65: 756c636e    	<unknown>
10000ab69: 665f6564    	<unknown>
10000ab6d: 73656c69    	<unknown>
10000ab71: 72616200    	<unknown>
10000ab75: 74735f6e    	<unknown>
10000ab79: 5f747261    	sqdmlsl.h	s1, h19, v4[3]
10000ab7d: 73726170    	<unknown>
10000ab81: 62007265    	<unknown>
10000ab85: 5f6e7261    	sqdmlsl.h	s1, h19, v14[2]
10000ab89: 72617473    	<unknown>
10000ab8d: 63745f74    	<unknown>
10000ab91: 72616200    	<unknown>
10000ab95: 74735f6e    	<unknown>
10000ab99: 5f747261    	sqdmlsl.h	s1, h19, v4[3]
10000ab9d: 65646f63    	fnmls	z3.h, p3/m, z27.h, z4.h
10000aba1: 006e6567    	<unknown>
10000aba5: 6e726162    	rsubhn2.8h	v2, v11, v18
10000aba9: 6772615f    	<unknown>
10000abad: 61705f73    	<unknown>
10000abb1: 72657372    	<unknown>
10000abb5: 6174735f    	<unknown>
10000abb9: 62007472    	<unknown>
10000abbd: 5f6e7261    	sqdmlsl.h	s1, h19, v14[2]
10000abc1: 656c6966    	fnmls	z6.h, p2/m, z11.h, z12.h
10000abc5: 656d616e    	fnmls	z14.h, p0/m, z11.h, z13.h
10000abc9: 7463615f    	<unknown>
10000abcd: 006e6f69    	<unknown>
10000abd1: 6e726162    	rsubhn2.8h	v2, v11, v18
10000abd5: 6f632063    	umlal2.4s	v3, v3, v3[2]
10000abd9: 6c69706d    	ldnp	d13, d28, [x3, #-368]
10000abdd: 25207265    	<unknown>
10000abe1: 332e3073    	<unknown>
10000abe5: 20732576    	<unknown>
10000abe9: 25732528    	<unknown>
10000abed: 29732573    	ldp	w19, w9, [x11, #-104]
10000abf1: 6553000a    	fadd	z10.h, z0.h, z19.h
10000abf5: 6f6d2065    	umlal2.4s	v5, v3, v13[2]
10000abf9: 69206572    	stgp	x18, x25, [x11, #-1024]
10000abfd: 7325206e    	<unknown>
10000ac01: 2d207325    	stp	s5, s28, [x25, #-256]
10000ac05: 6c65682d    	ldnp	d13, d26, [x1, #-432]
10000ac09: 0a732570    	bic	w16, w11, w19, lsr #9
10000ac0d: 42732500    	<unknown>
10000ac11: 206e7261    	<unknown>
10000ac15: 706c6548    	adr	x8, #887979
10000ac19: 0a73253a    	bic	w26, w9, w19, lsr #9
10000ac1d: 2d202000    	stp	s0, s8, [x0, #-256]
10000ac21: 46732520    	<unknown>
10000ac25: 7367616c    	<unknown>
10000ac29: 000a7325    	<unknown>
10000ac2d: 20202020    	<unknown>
10000ac31: 7325203e    	<unknown>
10000ac35: 65682d2d    	fmls	z13.h, p3/m, z9.h, z8.h
10000ac39: 7325706c    	<unknown>
10000ac3d: 6f687320    	fcmla.8h	v0, v25, v8[1], #270
10000ac41: 68742077    	<unknown>
10000ac45: 6d207369    	stp	d9, d28, [x27, #-512]
10000ac49: 61737365    	<unknown>
10000ac4d: 000a6567    	<unknown>
10000ac51: 20202020    	<unknown>
10000ac55: 7325203e    	<unknown>
10000ac59: 65762d2d    	fmls	z13.h, p3/m, z9.h, z22.h
10000ac5d: 6f697372    	fcmla.8h	v18, v27, v9[1], #270
10000ac61: 2073256e    	<unknown>
10000ac65: 776f6873    	<unknown>
10000ac69: 72657620    	<unknown>
10000ac6d: 6e6f6973    	<unknown>
10000ac71: 20666f20    	<unknown>
10000ac75: 6e726162    	rsubhn2.8h	v2, v11, v18
10000ac79: 6d6f6320    	ldp	d0, d24, [x25, #-272]
10000ac7d: 656c6970    	fnmls	z16.h, p2/m, z11.h, z12.h
10000ac81: 20000a72    	<unknown>
10000ac85: 3e202020    	<unknown>
10000ac89: 2d732520    	ldp	s0, s9, [x9, #-104]
10000ac8d: 7325632d    	<unknown>
10000ac91: 6d6f6320    	ldp	d0, d24, [x25, #-272]
10000ac95: 656c6970    	fnmls	z16.h, p2/m, z11.h, z12.h
10000ac99: 646e6120    	<unknown>
10000ac9d: 69727720    	ldpsw	x0, x29, [x25, #-112]
10000aca1: 6f206574    	sqshlu.4s	v20, v11, #0
10000aca5: 75707475    	<unknown>
10000aca9: 666f2074    	<unknown>
10000acad: 6f727020    	fcmla.8h	v0, v1, v18[1], #270
10000acb1: 6d617267    	ldp	d7, d28, [x19, #-496]
10000acb5: 206e6920    	<unknown>
10000acb9: 64282043    	fmul	z3.h, z2.h, z0.h[1]
10000acbd: 75616665    	<unknown>
10000acc1: 0a29746c    	bic	w12, w3, w9, lsl #29
10000acc5: 20202000    	<unknown>
10000acc9: 25203e20    	<unknown>
10000accd: 742d2d73    	<unknown>
10000acd1: 6e656b6f    	<unknown>
10000acd5: 20732573    	<unknown>
10000acd9: 776f6873    	<unknown>
10000acdd: 6c6c6120    	ldnp	d0, d24, [x9, #-320]
10000ace1: 6b6f7420    	<unknown>
10000ace5: 20736e65    	<unknown>
10000ace9: 6d6f7266    	ldp	d6, d28, [x19, #-272]
10000aced: 78656c20    	<unknown>
10000acf1: 28207265    	stnp	w5, w28, [x19, #-256]
10000acf5: 20726f66    	<unknown>
10000acf9: 75626564    	<unknown>
10000acfd: 75702067    	<unknown>
10000ad01: 736f7072    	<unknown>
10000ad05: 0a297365    	bic	w5, w27, w9, lsl #28
10000ad09: 20202000    	<unknown>
10000ad0d: 25203e20    	<unknown>
10000ad11: 742d2d73    	<unknown>
10000ad15: 25656d69    	<unknown>
10000ad19: 68732073    	<unknown>
10000ad1d: 6c20776f    	stnp	d15, d29, [x27, #-512]
10000ad21: 72657865    	<unknown>
10000ad25: 6170202c    	<unknown>
10000ad29: 72657372    	<unknown>
10000ad2d: 646e6120    	<unknown>
10000ad31: 646f6320    	<unknown>
10000ad35: 6e656765    	umax.8h	v5, v27, v5
10000ad39: 6f727020    	fcmla.8h	v0, v1, v18[1], #270
10000ad3d: 73736563    	<unknown>
10000ad41: 6d697420    	ldp	d0, d29, [x1, #-368]
10000ad45: 20000a65    	<unknown>
10000ad49: 3e202020    	<unknown>
10000ad4d: 2d732520    	ldp	s0, s9, [x9, #-104]
10000ad51: 6c66632d    	ldnp	d13, d24, [x25, #-416]
10000ad55: 25736761    	<unknown>
10000ad59: 72612073    	<unknown>
10000ad5d: 656d7567    	fnmls	z7.h, p5/m, z11.h, z13.h
10000ad61: 7420746e    	<unknown>
10000ad65: 20746168    	<unknown>
10000ad69: 206e6163    	<unknown>
10000ad6d: 20646461    	<unknown>
10000ad71: 6c662063    	ldnp	d3, d8, [x3, #-416]
10000ad75: 20736761    	<unknown>
10000ad79: 63206f74    	<unknown>
10000ad7d: 69706d6f    	ldpsw	x15, x27, [x11, #-128]
10000ad81: 6974616c    	ldpsw	x12, x24, [x11, #-96]
10000ad85: 000a6e6f    	<unknown>
10000ad89: 20202020    	<unknown>
10000ad8d: 7325203e    	<unknown>
10000ad91: 6f6e2d2d    	<unknown>
10000ad95: 69616d2d    	ldpsw	x13, x27, [x9, #-248]
10000ad99: 2073256e    	<unknown>
10000ad9d: 276e6f64    	<unknown>
10000ada1: 68732074    	<unknown>
10000ada5: 6520776f    	<unknown>
10000ada9: 726f7272    	<unknown>
10000adad: 6f626120    	umlsl2.4s	v0, v9, v2[2]
10000adb1: 6e207475    	uabd.16b	v21, v3, v0
10000adb5: 616d206f    	<unknown>
10000adb9: 66206e69    	<unknown>
10000adbd: 74636e75    	<unknown>
10000adc1: 0a6e6f69    	bic	w9, w27, w14, lsr #27
10000adc5: 20202000    	<unknown>
10000adc9: 25203e20    	<unknown>
10000adcd: 6e2d2d73    	uqsub.16b	v19, v11, v13
10000add1: 74732d6f    	<unknown>
10000add5: 62696c64    	<unknown>
10000add9: 64207325    	<unknown>
10000addd: 74276e6f    	<unknown>
10000ade1: 636e6920    	<unknown>
10000ade5: 6564756c    	fnmls	z12.h, p5/m, z11.h, z4.h
10000ade9: 72616220    	<unknown>
10000aded: 65685f6e    	fnmla	z14.h, p7/m, z27.h, z8.h
10000adf1: 72656461    	<unknown>
10000adf5: 000a682e    	<unknown>
10000adf9: 20202020    	<unknown>
10000adfd: 7325203e    	<unknown>
10000ae01: 6f6e2d2d    	<unknown>
10000ae05: 6c65642d    	ldnp	d13, d25, [x1, #-432]
10000ae09: 2d657465    	ldp	s5, s29, [x3, #-216]
10000ae0d: 74756f63    	<unknown>
10000ae11: 64207325    	<unknown>
10000ae15: 74276e6f    	<unknown>
10000ae19: 6c656420    	ldnp	d0, d25, [x1, #-432]
10000ae1d: 20657465    	<unknown>
10000ae21: 656e6567    	fnmls	z7.h, p1/m, z11.h, z14.h
10000ae25: 65746172    	fnmls	z18.h, p0/m, z11.h, z20.h
10000ae29: 6f732064    	umlal2.4s	v4, v3, v3[3]
10000ae2d: 65637275    	fnmls	z21.h, p4/m, z19.h, z3.h
10000ae31: 646f6320    	<unknown>
10000ae35: 46000a65    	<unknown>
10000ae39: 74636e75    	<unknown>
10000ae3d: 446e6f69    	<unknown>
10000ae41: 616c6365    	<unknown>
10000ae45: 69746172    	ldpsw	x18, x24, [x11, #-96]
10000ae49: 46006e6f    	<unknown>
10000ae4d: 74636e75    	<unknown>
10000ae51: 526e6f69    	<unknown>
10000ae55: 72757465    	<unknown>
10000ae59: 7546006e    	<unknown>
10000ae5d: 6974636e    	ldpsw	x14, x24, [x27, #-96]
10000ae61: 61436e6f    	<unknown>
10000ae65: 45006c6c    	pmullt	z12.q, z3.d, z0.d
10000ae69: 65727078    	fnmls	z24.h, p4/m, z3.h, z18.h
10000ae6d: 6f697373    	fcmla.8h	v19, v27, v9[1], #270
10000ae71: 6156006e    	<unknown>
10000ae75: 62616972    	<unknown>
10000ae79: 6544656c    	fcmeq	p12.h, p1/z, z11.h, z4.h
10000ae7d: 72616c63    	<unknown>
10000ae81: 6f697461    	uqshl.2d	v1, v3, #41
10000ae85: 6162006e    	<unknown>
10000ae89: 6e5f6e72    	<unknown>
10000ae8d: 7365646f    	<unknown>
10000ae91: 6300632e    	<unknown>
10000ae95: 20726168    	<unknown>
10000ae99: 7261622a    	<unknown>
10000ae9d: 6f6e5f6e    	<unknown>
10000aea1: 6b5f6564    	subs	w4, w11, wzr, lsr #25
10000aea5: 5f646e69    	<unknown>
10000aea9: 776f6873    	<unknown>
10000aead: 72616228    	<unknown>
10000aeb1: 6f6e5f6e    	<unknown>
10000aeb5: 6b5f6564    	subs	w4, w11, wzr, lsr #25
10000aeb9: 5f646e69    	<unknown>
10000aebd: 75002974    	<unknown>
10000aec1: 6e61686e    	fcvtxn2	v14.4s, v3.2d
10000aec5: 64656c64    	<unknown>
10000aec9: 646f6e20    	<unknown>
10000aecd: 79742065    	ldrh	w5, [x3, #6672]
10000aed1: 65006570    	<unknown>
10000aed5: 63657078    	<unknown>
10000aed9: 64657465    	<unknown>
10000aedd: 73252720    	<unknown>
10000aee1: 6f6e2027    	umlal2.4s	v7, v1, v14[2]
10000aee5: 4f452074    	smlal2.4s	v20, v3, v5[0]
10000aee9: 61620046    	<unknown>
10000aeed: 705f6e72    	adr	x18, #781775
10000aef1: 65737261    	fnmls	z1.h, p4/m, z19.h, z19.h
10000aef5: 00632e72    	<unknown>
10000aef9: 64696f76    	<unknown>
10000aefd: 72616220    	<unknown>
10000af01: 61705f6e    	<unknown>
10000af05: 72657372    	<unknown>
10000af09: 6564695f    	fnmls	z31.h, p2/m, z10.h, z4.h
10000af0d: 6669746e    	<unknown>
10000af11: 28726569    	ldnp	w9, w25, [x11, #-112]
10000af15: 6e726162    	rsubhn2.8h	v2, v11, v18
10000af19: 7261705f    	<unknown>
10000af1d: 5f726573    	<unknown>
10000af21: 292a2074    	stp	w20, w8, [x3, #-176]
10000af25: 61747300    	<unknown>
10000af29: 656d6574    	fnmls	z20.h, p1/m, z11.h, z13.h
10000af2d: 2073746e    	<unknown>
10000af31: 656b696c    	fnmls	z12.h, p2/m, z11.h, z11.h
10000af35: 2c3d2b20    	stnp	s0, s10, [x25, #-24]
10000af39: 2c3d2d20    	stnp	s0, s11, [x9, #-24]
10000af3d: 203d2a20    	<unknown>
10000af41: 2e637465    	uabd.4h	v5, v3, v3
10000af45: 65726120    	fnmls	z0.h, p0/m, z9.h, z18.h
10000af49: 746f6e20    	<unknown>
10000af4d: 706d6920    	adr	x0, #896295
10000af51: 656d656c    	fnmls	z12.h, p1/m, z11.h, z13.h
10000af55: 6465746e    	<unknown>
10000af59: 6e756600    	umax.8h	v0, v16, v21
10000af5d: 74657200    	<unknown>
10000af61: 006e7275    	<unknown>
10000af65: 0074656c    	<unknown>
10000af69: 72727563    	<unknown>
10000af6d: 6b6f745f    	<unknown>
10000af71: 3d206e65    	str	b5, [x19, #2075]
10000af75: 0a732520    	bic	w0, w9, w19, lsr #9
10000af79: 6b6e7500    	<unknown>
10000af7d: 6e776f6e    	umin.8h	v14, v27, v23
10000af81: 65737520    	fnmls	z0.h, p5/m, z9.h, z19.h
10000af85: 20666f20    	<unknown>
10000af89: 27732527    	<unknown>
10000af8d: 6b6f7420    	<unknown>
10000af91: 69206e65    	stgp	x5, x27, [x19, #-1024]
10000af95: 6874206e    	<unknown>
10000af99: 70207369    	adr	x9, #265839
10000af9d: 6563616c    	fnmls	z12.h, p0/m, z11.h, z3.h
10000afa1: 72616200    	<unknown>
10000afa5: 61705f6e    	<unknown>
10000afa9: 72657372    	<unknown>
10000afad: 69616d5f    	ldpsw	xzr, x27, [x10, #-248]
10000afb1: 6f6c5f6e    	<unknown>
10000afb5: 7000706f    	adr	x15, #3599
10000afb9: 65737261    	fnmls	z1.h, p4/m, z19.h, z19.h
10000afbd: 6e3e2d72    	uqsub.16b	v18, v11, v30
10000afc1: 7365646f    	<unknown>
10000afc5: 5d64255b    	<unknown>
10000afc9: 6e207b3d    	sqneg.16b	v29, v25
10000afcd: 5f65646f    	<unknown>
10000afd1: 646e696b    	<unknown>
10000afd5: 7325203a    	<unknown>
10000afd9: 7600202c    	<unknown>
10000afdd: 61697261    	<unknown>
10000afe1: 5f656c62    	<unknown>
10000afe5: 6c636564    	ldnp	d4, d25, [x11, #-464]
10000afe9: 74617261    	<unknown>
10000afed: 3a6e6f69    	<unknown>
10000aff1: 76207b20    	<unknown>
10000aff5: 6e5f7261    	<unknown>
10000aff9: 3a656d61    	<unknown>
10000affd: 73252220    	<unknown>
10000b001: 76202c22    	<unknown>
10000b005: 745f7261    	<unknown>
10000b009: 3a657079    	<unknown>
10000b00d: 73252220    	<unknown>
10000b011: 2c7d2022    	ldnp	s2, s8, [x1, #-24]
10000b015: 75660020    	<unknown>
10000b019: 6974636e    	ldpsw	x14, x24, [x27, #-96]
10000b01d: 635f6e6f    	<unknown>
10000b021: 3a6c6c61    	<unknown>
10000b025: 66207b20    	<unknown>
10000b029: 5f636e75    	<unknown>
10000b02d: 656d616e    	fnmls	z14.h, p0/m, z11.h, z13.h
10000b031: 2522203a    	<unknown>
10000b035: 202c2273    	<unknown>
10000b039: 636e7566    	<unknown>
10000b03d: 6772615f    	<unknown>
10000b041: 6c3e2d73    	stnp	d19, d11, [x11, #-32]
10000b045: 203a6e65    	<unknown>
10000b049: 20756c25    	<unknown>
10000b04d: 00202c7d    	<unknown>
10000b051: 41000a7d    	<unknown>
10000b055: 54205453    	bc.lo	0x10004badd <_barn_type_f64_global+0x3ba7d>
10000b059: 20656572    	<unknown>
10000b05d: 75626564    	<unknown>
10000b061: 000a3a67    	<unknown>
10000b065: 636e7566    	<unknown>
10000b069: 6e6f6974    	<unknown>
10000b06d: 6365645f    	<unknown>
10000b071: 6172616c    	<unknown>
10000b075: 6e6f6974    	<unknown>
10000b079: 207b203a    	<unknown>
10000b07d: 636e7566    	<unknown>
10000b081: 6e6f6974    	<unknown>
10000b085: 6d616e5f    	ldp	d31, d27, [x18, #-496]
10000b089: 22203a65    	<unknown>
10000b08d: 2c227325    	stnp	s5, s28, [x25, #-240]
10000b091: 6e756620    	umax.8h	v0, v17, v21
10000b095: 6f697463    	uqshl.2d	v3, v3, #41
10000b099: 6f6e5f6e    	<unknown>
10000b09d: 3a736564    	<unknown>
10000b0a1: 20702520    	<unknown>
10000b0a5: 00202c7d    	<unknown>
10000b0a9: 65000a7b    	<unknown>
10000b0ad: 72657478    	<unknown>
10000b0b1: 6940006e    	ldpsw	x14, x0, [x3]
10000b0b5: 726f706d    	<unknown>
10000b0b9: 00635f74    	<unknown>
10000b0bd: 706d6940    	adr	x0, #896299
10000b0c1: 0074726f    	<unknown>
10000b0c5: 736e6f63    	<unknown>
10000b0c9: 66690074    	<unknown>
10000b0cd: 736c6500    	<unknown>
10000b0d1: 6c650065    	ldnp	d5, d0, [x3, #-432]
10000b0d5: 77006669    	<unknown>
10000b0d9: 656c6968    	fnmls	z8.h, p2/m, z11.h, z12.h
10000b0dd: 6e6f6300    	rsubhn2.8h	v0, v24, v15
10000b0e1: 756e6974    	<unknown>
10000b0e5: 72620065    	<unknown>
10000b0e9: 006b6165    	<unknown>
10000b0ed: 00726f66    	<unknown>
10000b0f1: 75727473    	<unknown>
10000b0f5: 48007463    	stxrh	w0, w3, [x3]
10000b0f9: 00454d4f    	<unknown>
10000b0fd: 7261622e    	<unknown>
10000b101: 25002f6e    	cmplt	p14.b, p3/z, z27.b, #0
10000b105: 73252f73    	<unknown>
10000b109: 70756400    	adr	x0, #961667
10000b10d: 7274735f    	<unknown>
10000b111: 00676e69    	<unknown>
10000b115: 6e726162    	rsubhn2.8h	v2, v11, v18
10000b119: 7274735f    	<unknown>
10000b11d: 2e676e69    	umin.4h	v9, v19, v7
10000b121: 68630063    	<unknown>
10000b125: 2a207261    	orn	w1, w19, w0, lsl #28
10000b129: 6e726162    	rsubhn2.8h	v2, v11, v18
10000b12d: 7075645f    	adr	xzr, #961675
10000b131: 6163696c    	<unknown>
10000b135: 735f6574    	<unknown>
10000b139: 6e697274    	uabdl2.4s	v20, v19, v9
10000b13d: 68632867    	<unknown>
10000b141: 2a207261    	orn	w1, w19, w0, lsl #28
10000b145: 74730029    	<unknown>
10000b149: 68630072    	<unknown>
10000b14d: 2a207261    	orn	w1, w19, w0, lsl #28
10000b151: 6e726162    	rsubhn2.8h	v2, v11, v18
10000b155: 6572635f    	fnmls	z31.h, p0/m, z26.h, z18.h
10000b159: 5f657461    	sqshl	d1, d3, #37
10000b15d: 6f6c6c61    	<unknown>
10000b161: 65746163    	fnmls	z3.h, p0/m, z11.h, z20.h
10000b165: 74735f64    	<unknown>
10000b169: 676e6972    	<unknown>
10000b16d: 6e002928    	ext.16b	v8, v9, v0, #5
10000b171: 735f7765    	<unknown>
10000b175: 76007274    	<unknown>
10000b179: 2064696f    	<unknown>
10000b17d: 6e726162    	rsubhn2.8h	v2, v11, v18
10000b181: 7070615f    	adr	xzr, #920619
10000b185: 5f646e65    	<unknown>
10000b189: 72616863    	<unknown>
10000b18d: 5f6f745f    	sqshl	d31, d2, #47
10000b191: 6f6c6c61    	<unknown>
10000b195: 65746163    	fnmls	z3.h, p0/m, z11.h, z20.h
10000b199: 74735f64    	<unknown>
10000b19d: 676e6972    	<unknown>
10000b1a1: 61686328    	<unknown>
10000b1a5: 2a2a2072    	orn	w18, w3, w10, lsl #8
10000b1a9: 6863202c    	<unknown>
10000b1ad: 00297261    	<unknown>
10000b1b1: 72616863    	<unknown>
10000b1b5: 61622a20    	<unknown>
10000b1b9: 635f6e72    	<unknown>
10000b1bd: 74616572    	<unknown>
10000b1c1: 74735f65    	<unknown>
10000b1c5: 676e6972    	<unknown>
10000b1c9: 6f72665f    	sqshlu.2d	v31, v18, #50
10000b1cd: 68635f6d    	<unknown>
10000b1d1: 63287261    	<unknown>
10000b1d5: 29726168    	ldp	w8, w24, [x11, #-112]
10000b1d9: 742d2d00    	<unknown>
10000b1dd: 00656d69    	<unknown>
10000b1e1: 4300742d    	<unknown>
10000b1e5: 69706d6f    	ldpsw	x15, x27, [x11, #-128]
10000b1e9: 6974616c    	ldpsw	x12, x24, [x11, #-96]
10000b1ed: 74206e6f    	<unknown>
10000b1f1: 20656d69    	<unknown>
10000b1f5: 6b6f6f74    	<unknown>
10000b1f9: 7325203a    	<unknown>
10000b1fd: 25736625    	<unknown>
10000b201: 4e000a73    	<unknown>
10000b205: 494c5745    	<unknown>
10000b209: 4e00454e    	<unknown>
10000b20d: 00454e4f    	<unknown>
10000b211: 52434e49    	<unknown>
10000b215: 4e454d45    	<unknown>
10000b219: 49544154    	<unknown>
10000b21d: 44004e4f    	<unknown>
10000b221: 45524345    	saddwb	z5.h, z26.h, z18.b
10000b225: 544e454d    	b.le	0x1000a7acd <_barn_type_f64_global+0x97a6d>
10000b229: 4f495441    	shl.2d	v1, v2, #9
10000b22d: 4f45004e    	<unknown>
10000b231: 4e490046    	<unknown>
10000b235: 48430054    	ldxrh	w20, [x2]
10000b239: 46005241    	<unknown>
10000b23d: 54414f4c    	b.gt	0x10008dc25 <_barn_type_f64_global+0x7dbc5>
10000b241: 52545300    	<unknown>
10000b245: 00474e49    	<unknown>
10000b249: 4e454449    	<unknown>
10000b24d: 49464954    	<unknown>
10000b251: 50005245    	adr	x5, #2634
10000b255: 0053554c    	<unknown>
10000b259: 554e494d    	<unknown>
10000b25d: 554d0053    	<unknown>
10000b261: 4944004c    	<unknown>
10000b265: 4c500056    	<unknown>
10000b269: 53415355    	<unknown>
10000b26d: 494d004e    	<unknown>
10000b271: 4153554e    	<unknown>
10000b275: 4d004e53    	<unknown>
10000b279: 53414c55    	<unknown>
10000b27d: 4944004e    	<unknown>
10000b281: 4e534156    	<unknown>
10000b285: 4e414200    	<unknown>
10000b289: 54470047    	b.vc	0x100099291 <_barn_type_f64_global+0x89231>
10000b28d: 45544700    	saddwt	z0.h, z24.h, z20.b
10000b291: 00544c00    	<unknown>
10000b295: 0045544c    	<unknown>
10000b299: 004e5341    	<unknown>
10000b29d: 4e005145    	tbx.16b	v5, { v10, v11, v12 }, v0
10000b2a1: 4f005145    	fmls.8h	v5, v10, v0[0]
10000b2a5: 00524f52    	<unknown>
10000b2a9: 41444e41    	<unknown>
10000b2ad: 4f00444e    	movi.4s	v14, #2, lsl #16
10000b2b1: 504e4550    	adr	x16, #641194
10000b2b5: 4e455241    	<unknown>
10000b2b9: 4c430054    	<unknown>
10000b2bd: 5045534f    	adr	x15, #567914
10000b2c1: 4e455241    	<unknown>
10000b2c5: 504f0054    	adr	x20, #647178
10000b2c9: 52424e45    	<unknown>
10000b2cd: 454b4341    	saddwb	z1.h, z26.h, z11.b
10000b2d1: 4c430054    	<unknown>
10000b2d5: 4245534f    	<unknown>
10000b2d9: 4b434152    	sub	w18, w10, w3, lsr #16
10000b2dd: 4f005445    	orr.4s	v5, #2, lsl #16
10000b2e1: 424e4550    	<unknown>
10000b2e5: 45434152    	saddwb	z18.h, z10.h, z3.b
10000b2e9: 4f4c4300    	<unknown>
10000b2ed: 52424553    	<unknown>
10000b2f1: 00454341    	<unknown>
10000b2f5: 4d4d4f43    	<unknown>
10000b2f9: 4f430041    	<unknown>
10000b2fd: 004e4f4c    	<unknown>
10000b301: 00544f44    	<unknown>
10000b305: 494d4553    	<unknown>
10000b309: 004c4f43    	<unknown>
10000b30d: 00444f4d    	<unknown>
10000b311: 4f525241    	<unknown>
10000b315: 52540057    	<unknown>
10000b319: 454c5049    	ssubwb	z9.h, z2.h, z12.b
10000b31d: 00544f44    	<unknown>
10000b321: 76207b20    	<unknown>
10000b325: 65756c61    	fnmls	z1.h, p3/m, z3.h, z21.h
10000b329: 2560203a    	<unknown>
10000b32d: 202c6073    	<unknown>
10000b331: 3a776f72    	<unknown>
10000b335: 2c642520    	ldnp	s0, s9, [x9, #-224]
10000b339: 6c6f6320    	ldnp	d0, d24, [x25, #-272]
10000b33d: 6425203a    	fmul	z26.h, z1.h, z5.h[0]
10000b341: 696b202c    	ldpsw	x12, x8, [x1, #-168]
10000b345: 203a646e    	<unknown>
10000b349: 60732560    	<unknown>
10000b34d: 6966202c    	ldpsw	x12, x8, [x1, #-208]
10000b351: 616e656c    	<unknown>
10000b355: 203a656d    	<unknown>
10000b359: 60732560    	<unknown>
10000b35d: 696c202c    	ldpsw	x12, x8, [x1, #-160]
10000b361: 203a656e    	<unknown>
10000b365: 7d207025    	str	h5, [x1, #4152]
10000b369: 6f35000a    	<unknown>
10000b36d: 000a326b    	<unknown>
10000b371: 3a73686c    	<unknown>
10000b375: 2c702520    	ldnp	s0, s9, [x9, #-128]
10000b379: 73687220    	<unknown>
10000b37d: 7025203a    	adr	x26, #304135
10000b381: 7974000a    	ldrh	w10, [x0, #6656]
10000b385: 6d206570    	stp	d16, d25, [x11, #-512]
10000b389: 616d7369    	<unknown>
10000b38d: 2c686374    	ldnp	s20, s24, [x27, #-192]
10000b391: 70786520    	adr	x0, #986279
10000b395: 65746365    	fnmls	z5.h, p0/m, z27.h, z20.h
10000b399: 73252064    	<unknown>
10000b39d: 74756220    	<unknown>
10000b3a1: 746f6720    	<unknown>
10000b3a5: 00732520    	<unknown>
10000b3a9: 69207325    	stgp	x5, x28, [x25, #-1024]
10000b3ad: 756e2073    	<unknown>
10000b3b1: 202e6c6c    	<unknown>
10000b3b5: 70706148    	adr	x8, #920619
10000b3b9: 20646e65    	<unknown>
10000b3bd: 203a6e69    	<unknown>
10000b3c1: 69207325    	stgp	x5, x28, [x25, #-1024]
10000b3c5: 7325206e    	<unknown>
10000b3c9: 206e6f20    	<unknown>
10000b3cd: 656e696c    	fnmls	z12.h, p2/m, z11.h, z14.h
10000b3d1: 00642520    	<unknown>
10000b3d5: 7473616c    	<unknown>
10000b3d9: 656c655f    	fnmls	z31.h, p1/m, z10.h, z12.h
10000b3dd: 746e656d    	<unknown>
10000b3e1: 5f6e695f    	<unknown>
10000b3e5: 61620078    	<unknown>
10000b3e9: 745f6e72    	<unknown>
10000b3ed: 5f657079    	sqdmlsl.h	s25, h3, v5[2]
10000b3f1: 63656863    	<unknown>
10000b3f5: 2e72656b    	umax.4h	v11, v11, v18
10000b3f9: 6f760063    	mla.8h	v3, v3, v6[3]
10000b3fd: 62206469    	<unknown>
10000b401: 5f6e7261    	sqdmlsl.h	s1, h19, v14[2]
10000b405: 655f6374    	fcmne	p4.h, p0/z, z27.h, z31.h
10000b409: 65727078    	fnmls	z24.h, p4/m, z3.h, z18.h
10000b40d: 6f697373    	fcmla.8h	v19, v27, v9[1], #270
10000b411: 68635f6e    	<unknown>
10000b415: 286b6365    	ldnp	w5, w24, [x27, #-168]
10000b419: 6e726162    	rsubhn2.8h	v2, v11, v18
10000b41d: 7079745f    	adr	xzr, #994955
10000b421: 68635f65    	<unknown>
10000b425: 656b6365    	fnmls	z5.h, p0/m, z27.h, z11.h
10000b429: 20745f72    	<unknown>
10000b42d: 62202c2a    	<unknown>
10000b431: 5f6e7261    	sqdmlsl.h	s1, h19, v14[2]
10000b435: 65646f6e    	fnmls	z14.h, p3/m, z27.h, z4.h
10000b439: 2a20745f    	orn	wzr, w2, w0, lsl #29
10000b43d: 69660029    	ldpsw	x9, x0, [x1, #-208]
10000b441: 5f747372    	sqdmlsl.h	s18, h27, v4[3]
10000b445: 6d656c65    	ldp	d5, d27, [x3, #-432]
10000b449: 5f746e65    	<unknown>
10000b44d: 795f6e69    	ldrh	w9, [x19, #4022]
10000b451: 20732500    	<unknown>
10000b455: 000a7325    	<unknown>
10000b459: 000a6b6f    	<unknown>
10000b45d: 65707974    	fnmls	z20.h, p6/m, z11.h, z16.h
10000b461: 73696d20    	<unknown>
10000b465: 6374616d    	<unknown>
10000b469: 65202c68    	<unknown>
10000b46d: 63657078    	<unknown>
10000b471: 20646574    	<unknown>
10000b475: 61207325    	<unknown>
10000b479: 65722073    	fmls	z19.h, p0/m, z3.h, z18.h
10000b47d: 6e727574    	uabd.8h	v20, v11, v18
10000b481: 70797420    	adr	x0, #994951
10000b485: 6f672065    	umlal2.4s	v5, v3, v7[2]
10000b489: 73252074    	<unknown>
10000b48d: 70797400    	adr	x0, #994947
10000b491: 696d2065    	ldpsw	x5, x8, [x3, #-152]
10000b495: 74616d73    	<unknown>
10000b499: 202c6863    	<unknown>
10000b49d: 69726176    	ldpsw	x22, x24, [x11, #-112]
10000b4a1: 656c6261    	fnmls	z1.h, p0/m, z19.h, z12.h
10000b4a5: 70797420    	adr	x0, #994951
10000b4a9: 73692065    	<unknown>
10000b4ad: 20732520    	<unknown>
10000b4b1: 20746f6e    	<unknown>
10000b4b5: 74007325    	<unknown>
10000b4b9: 20657079    	<unknown>
10000b4bd: 6d73696d    	ldp	d13, d26, [x11, #-208]
10000b4c1: 68637461    	<unknown>
10000b4c5: 7865202c    	ldeorlh	w5, w12, [x1]
10000b4c9: 74636570    	<unknown>
10000b4cd: 25206465    	<unknown>
10000b4d1: 73612073    	<unknown>
10000b4d5: 67726120    	<unknown>
10000b4d9: 6e656d75    	umin.8h	v21, v11, v5
10000b4dd: 79742074    	ldrh	w20, [x3, #6672]
10000b4e1: 62206570    	<unknown>
10000b4e5: 69207475    	stgp	x21, x29, [x3, #-1024]
10000b4e9: 6574736e    	fnmls	z14.h, p4/m, z27.h, z20.h
10000b4ed: 67206461    	<unknown>
10000b4f1: 2520746f    	<unknown>
10000b4f5: 6f760073    	mla.8h	v19, v3, v6[3]
10000b4f9: 62206469    	<unknown>
10000b4fd: 5f6e7261    	sqdmlsl.h	s1, h19, v14[2]
10000b501: 65707974    	fnmls	z20.h, p6/m, z11.h, z16.h
10000b505: 6568635f    	fnmls	z31.h, p0/m, z26.h, z8.h
10000b509: 72656b63    	<unknown>
10000b50d: 69616d5f    	ldpsw	xzr, x27, [x10, #-248]
10000b511: 6f6c5f6e    	<unknown>
10000b515: 6228706f    	<unknown>
10000b519: 5f6e7261    	sqdmlsl.h	s1, h19, v14[2]
10000b51d: 65707974    	fnmls	z20.h, p6/m, z11.h, z16.h
10000b521: 6568635f    	fnmls	z31.h, p0/m, z26.h, z8.h
10000b525: 72656b63    	<unknown>
10000b529: 2a20745f    	orn	wzr, w2, w0, lsl #29
10000b52d: 6162202c    	<unknown>
10000b531: 705f6e72    	adr	x18, #781775
10000b535: 65737261    	fnmls	z1.h, p4/m, z19.h, z19.h
10000b539: 20745f72    	<unknown>
10000b53d: 7500292a    	<unknown>
10000b541: 706d696e    	adr	x14, #896303
10000b545: 656d656c    	fnmls	z12.h, p1/m, z11.h, z13.h
10000b549: 746e656e    	<unknown>
10000b54d: 6e206465    	umax.16b	v5, v3, v0
10000b551: 2065646f    	<unknown>
10000b555: 646e696b    	<unknown>
10000b559: 70797420    	adr	x0, #994951
10000b55d: 68632065    	<unknown>
10000b561: 006b6365    	<unknown>
10000b565: 6d696e75    	ldp	d21, d27, [x19, #-368]
10000b569: 6d656c70    	ldp	d16, d27, [x3, #-432]
10000b56d: 65746e65    	fnmls	z5.h, p3/m, z19.h, z20.h
10000b571: 65662064    	fmls	z4.h, p0/m, z3.h, z6.h
10000b575: 65747561    	fnmls	z1.h, p5/m, z11.h, z20.h
10000b579: 6e692072    	usubl2.4s	v18, v3, v9
10000b57d: 20732520    	<unknown>
10000b581: 1b206e69    	<unknown>
10000b585: 333b315b    	<unknown>
10000b589: 73256d37    	<unknown>
10000b58d: 3b305b1b    	<unknown>
10000b591: 61206d30    	<unknown>
10000b595: 64252074    	fmul	z20.h, z3.h, z5.h[0]
10000b599: 5b1b203a    	<unknown>
10000b59d: 31333b31    	adds	w17, w25, #3278
10000b5a1: 1b73256d    	<unknown>
10000b5a5: 303b305b    	adr	x27, #484873
10000b5a9: 09090a6d    	<unknown>
10000b5ad: 61656c70    	<unknown>
10000b5b1: 63206573    	<unknown>
10000b5b5: 74616572    	<unknown>
10000b5b9: 20612065    	<unknown>
10000b5bd: 2077656e    	<unknown>
10000b5c1: 75737369    	<unknown>
10000b5c5: 6e6f2065    	usubl2.4s	v5, v3, v15
10000b5c9: 74696720    	<unknown>
10000b5cd: 20627568    	<unknown>
10000b5d1: 74616874    	<unknown>
10000b5d5: 6c697720    	ldnp	d0, d29, [x25, #-368]
10000b5d9: 6572206c    	fmls	z12.h, p0/m, z3.h, z18.h
10000b5dd: 74726f70    	<unknown>
10000b5e1: 69687420    	ldpsw	x0, x29, [x1, #-192]
10000b5e5: 65772073    	fmls	z19.h, p0/m, z3.h, z23.h
10000b5e9: 20647269    	<unknown>
10000b5ed: 69746361    	ldpsw	x1, x24, [x27, #-96]
10000b5f1: 62006e6f    	<unknown>
10000b5f5: 5f6e7261    	sqdmlsl.h	s1, h19, v14[2]
10000b5f9: 65707974    	fnmls	z20.h, p6/m, z11.h, z16.h
10000b5fd: 00632e73    	<unknown>
10000b601: 61686e75    	<unknown>
10000b605: 656c646e    	fnmls	z14.h, p1/m, z3.h, z12.h
10000b609: 79742064    	ldrh	w4, [x3, #6672]
10000b60d: 73206570    	<unknown>
10000b611: 00657a69    	<unknown>
10000b615: 62003875    	<unknown>
10000b619: 00657479    	<unknown>
10000b61d: 00363175    	<unknown>
10000b621: 6f687375    	fcmla.8h	v21, v27, v8[1], #270
10000b625: 75007472    	<unknown>
10000b629: 75003233    	<unknown>
10000b62d: 00746e69    	<unknown>
10000b631: 00343675    	<unknown>
10000b635: 6e6f6c75    	umin.8h	v21, v3, v15
10000b639: 38690067    	ldaddlb	w9, w7, [x3]
10000b63d: 61686300    	<unknown>
10000b641: 31690072    	adds	w18, w3, #2624, lsl #12 ; =10747904
10000b645: 68730036    	<unknown>
10000b649: 0074726f    	<unknown>
10000b64d: 00323369    	<unknown>
10000b651: 00746e69    	<unknown>
10000b655: 00343669    	<unknown>
10000b659: 676e6f6c    	<unknown>
10000b65d: 32336600    	orr	w0, w16, #0xffffe07f
10000b661: 6f6c6600    	sqshlu.2d	v0, v16, #44
10000b665: 66007461    	<unknown>
10000b669: 64003436    	<unknown>
10000b66d: 6c62756f    	ldnp	d15, d29, [x11, #-480]
10000b671: 74730065    	<unknown>
10000b675: 676e6972    	<unknown>
10000b679: 6f6f6200    	umlsl2.4s	v0, v16, v15[2]
10000b67d: 6f6e006c    	mla.8h	v12, v3, v14[2]
10000b681: 7000656e    	adr	x14, #3247
10000b685: 002a7274    	<unknown>
10000b689: 736e6f63    	<unknown>
10000b68d: 68632074    	<unknown>
10000b691: 2a207261    	orn	w1, w19, w0, lsl #28
10000b695: 6e726162    	rsubhn2.8h	v2, v11, v18
10000b699: 6e6f635f    	rsubhn2.8h	v31, v26, v15
10000b69d: 74726576    	<unknown>
10000b6a1: 7079745f    	adr	xzr, #994955
10000b6a5: 6f745f65    	<unknown>
10000b6a9: 7274735f    	<unknown>
10000b6ad: 28676e69    	ldnp	w9, w27, [x19, #-200]
10000b6b1: 6e726162    	rsubhn2.8h	v2, v11, v18
10000b6b5: 7079745f    	adr	xzr, #994955
10000b6b9: 20745f65    	<unknown>
10000b6bd: 2500292a    	cmplt	p10.b, p2/z, z9.b, #0
10000b6c1: 76000a73    	<unknown>
10000b6c5: 61697261    	<unknown>
10000b6c9: 20656c62    	<unknown>
10000b6cd: 6c756f63    	ldnp	d3, d27, [x27, #-176]
10000b6d1: 74276e64    	<unknown>
10000b6d5: 20656220    	<unknown>
10000b6d9: 656d616e    	fnmls	z14.h, p0/m, z11.h, z13.h
10000b6dd: 25272064    	<unknown>
10000b6e1: 74002773    	<unknown>
10000b6e5: 20736968    	<unknown>
10000b6e9: 656d616e    	fnmls	z14.h, p0/m, z11.h, z13.h
10000b6ed: 20736920    	<unknown>
10000b6f1: 65726c61    	fnmls	z1.h, p3/m, z3.h, z18.h
10000b6f5: 20796461    	<unknown>
10000b6f9: 6b6f6f74    	<unknown>
10000b6fd: 20796220    	<unknown>
10000b701: 75662061    	<unknown>
10000b705: 6974636e    	ldpsw	x14, x24, [x27, #-96]
10000b709: 65006e6f    	<unknown>
10000b70d: 63657078    	<unknown>
10000b711: 20646574    	<unknown>
10000b715: 636e7566    	<unknown>
10000b719: 6e6f6974    	<unknown>
10000b71d: 6d616e20    	ldp	d0, d27, [x17, #-496]
10000b721: 66612065    	<unknown>
10000b725: 20726574    	<unknown>
10000b729: 6e756627    	umax.8h	v7, v17, v21
10000b72d: 6b202763    	subs	w3, w27, w0, uxth #1
10000b731: 6f777965    	fcmla.8h	v5, v11, v23[3], #270
10000b735: 76006472    	<unknown>
10000b739: 61697261    	<unknown>
10000b73d: 20656c62    	<unknown>
10000b741: 656d616e    	fnmls	z14.h, p0/m, z11.h, z13.h
10000b745: 25272064    	<unknown>
10000b749: 61202773    	<unknown>
10000b74d: 6165726c    	<unknown>
10000b751: 65207964    	<unknown>
10000b755: 74736978    	<unknown>
10000b759: 78650073    	ldaddlh	w5, w19, [x3]
10000b75d: 74636570    	<unknown>
10000b761: 63206465    	<unknown>
10000b765: 6e6f6c6f    	umin.8h	v15, v3, v15
10000b769: 74666120    	<unknown>
10000b76d: 76207265    	<unknown>
10000b771: 61697261    	<unknown>
10000b775: 20656c62    	<unknown>
10000b779: 656d616e    	fnmls	z14.h, p0/m, z11.h, z13.h
10000b77d: 206f7420    	<unknown>
10000b781: 63657073    	<unknown>
10000b785: 20796669    	<unknown>
10000b789: 65707974    	fnmls	z20.h, p6/m, z11.h, z16.h
10000b78d: 20666f20    	<unknown>
10000b791: 69726176    	ldpsw	x22, x24, [x11, #-112]
10000b795: 656c6261    	fnmls	z1.h, p0/m, z19.h, z12.h
10000b799: 70786500    	adr	x0, #986275
10000b79d: 65746365    	fnmls	z5.h, p0/m, z27.h, z20.h
10000b7a1: 64692064    	fmul	z4.h, z3.h, z1.h[5]
10000b7a5: 69746e65    	ldpsw	x5, x27, [x19, #-96]
10000b7a9: 72656966    	<unknown>
10000b7ad: 74666120    	<unknown>
10000b7b1: 63207265    	<unknown>
10000b7b5: 6e6f6c6f    	umin.8h	v15, v3, v15
10000b7b9: 206f7420    	<unknown>
10000b7bd: 63657073    	<unknown>
10000b7c1: 20796669    	<unknown>
10000b7c5: 65707974    	fnmls	z20.h, p6/m, z11.h, z16.h
10000b7c9: 20666f20    	<unknown>
10000b7cd: 69726176    	ldpsw	x22, x24, [x11, #-112]
10000b7d1: 656c6261    	fnmls	z1.h, p0/m, z19.h, z12.h
10000b7d5: 646e7500    	<unknown>
10000b7d9: 6e696665    	umax.8h	v5, v19, v9
10000b7dd: 76206465    	<unknown>
10000b7e1: 61697261    	<unknown>
10000b7e5: 20656c62    	<unknown>
10000b7e9: 65707974    	fnmls	z20.h, p6/m, z11.h, z16.h
10000b7ed: 73252720    	<unknown>
10000b7f1: 6b6f0027    	<unknown>
10000b7f5: 65000a33    	<unknown>
10000b7f9: 63657078    	<unknown>
10000b7fd: 20646574    	<unknown>
10000b801: 20273d27    	<unknown>
10000b805: 656b6f74    	fnmls	z20.h, p3/m, z27.h, z11.h
10000b809: 6f74206e    	umlal2.4s	v14, v3, v4[3]
10000b80d: 65707320    	fnmls	z0.h, p4/m, z25.h, z16.h
10000b811: 79666963    	ldrh	w3, [x11, #4916]
10000b815: 72617620    	<unknown>
10000b819: 6c626169    	ldnp	d9, d24, [x11, #-480]
10000b81d: 61762065    	<unknown>
10000b821: 0065756c    	<unknown>
10000b825: 0a346b6f    	bic	w15, w27, w20, lsl #26
10000b829: 356b6f00    	cbnz	w0, 0x1000e2609 <_barn_type_f64_global+0xd25a9>
10000b82d: 0a 00       	<unknown>

Disassembly of section __TEXT,__unwind_info:

000000010000b830 <__unwind_info>:
10000b830: 00000001    	udf	#1
10000b834: 0000001c    	udf	#28
10000b838: 00000001    	udf	#1
10000b83c: 00000020    	udf	#32
10000b840: 00000000    	udf	#0
10000b844: 00000020    	udf	#32
10000b848: 00000002    	udf	#2
10000b84c: 02000000    	<unknown>
10000b850: 00001ba4    	udf	#7076
10000b854: 00000044    	udf	#68
10000b858: 00000044    	udf	#68
10000b85c: 0000934c    	udf	#37708
10000b860: 00000000    	udf	#0
10000b864: 00000044    	udf	#68
		...
10000b874: 00000003    	udf	#3
10000b878: 0024000c    	<unknown>
10000b87c: 0022009c    	<unknown>
10000b880: 01000000    	<unknown>
10000b884: 020000c8    	<unknown>
10000b888: 030006ac    	<unknown>
10000b88c: 040008ec    	add	z12.b, p2/m, z12.b, z7.b
10000b890: 0500098c    	orr	z12.s, z12.s, #0x80000fff
10000b894: 06000a2c    	<unknown>
10000b898: 07000b08    	<unknown>
10000b89c: 08000e0c    	stxrb	w0, w12, [x16]
10000b8a0: 09000f44    	<unknown>
10000b8a4: 0a001280    	and	w0, w20, w0, lsl #4
10000b8a8: 0b001314    	add	w20, w24, w0, lsl #4
10000b8ac: 0c0019a0    	<unknown>
10000b8b0: 0d001da4    	st1.b	{ v4 }[7], [x13]
10000b8b4: 0e001ec0    	<unknown>
10000b8b8: 0f003408    	orr.2s	v8, #0, lsl #8
10000b8bc: 10003c84    	adr	x4, #1936
10000b8c0: 11003d10    	add	w16, w8, #15
10000b8c4: 12003da4    	and	w4, w13, #0xffff
10000b8c8: 130060fc    	sbfx	w28, w7, #0, #25
10000b8cc: 1400634c    	b	0x1000245fc <_barn_type_f64_global+0x1459c>
10000b8d0: 150063b0    	b	0x104024790 <_barn_type_f64_global+0x4014730>
10000b8d4: 160063f0    	b	0xf8024894 <_strlen+0xf8024894>
10000b8d8: 17006590    	b	0xfc024f18 <_strlen+0xfc024f18>
10000b8dc: 000065f4    	udf	#26100
10000b8e0: 18006630    	ldr	w16, 0x10000c5a4 <_barn_error_codes_string+0x44c>
10000b8e4: 19006704    	cpyfprtwn	[x4]!, [x0]!, x24!
10000b8e8: 1a006854    	<unknown>
10000b8ec: 1b006934    	madd	w20, w9, w0, w26
10000b8f0: 1c0069fc    	ldr	s28, 0x10000c62c <_barn_error_codes_string+0x4d4>
10000b8f4: 1d006ad0    	<unknown>
10000b8f8: 1e006f0c    	<unknown>
10000b8fc: 00007040    	udf	#28736
10000b900: 1f00714c    	fmadd	s12, s10, s0, s28
10000b904: 200073b0    	<unknown>
10000b908: 21007668    	<unknown>
10000b90c: 220076d8    	<unknown>
10000b910: 03000014    	<unknown>
10000b914: 03000040    	<unknown>
10000b918: 03000078    	<unknown>
10000b91c: 030000a8    	<unknown>
10000b920: 030000d0    	<unknown>
10000b924: 030000f8    	<unknown>
10000b928: 03000128    	<unknown>
10000b92c: 03000168    	<unknown>
10000b930: 03000198    	<unknown>
10000b934: 030001c8    	<unknown>
10000b938: 030001f0    	<unknown>
10000b93c: 03000228    	<unknown>
10000b940: 03000258    	<unknown>
10000b944: 03000288    	<unknown>
10000b948: 030002c8    	<unknown>
10000b94c: 030002f0    	<unknown>
10000b950: 03000318    	<unknown>
10000b954: 03000340    	<unknown>
10000b958: 03000380    	<unknown>
10000b95c: 030003b8    	<unknown>
10000b960: 030003e8    	<unknown>
10000b964: 03000410    	<unknown>
10000b968: 03000438    	<unknown>
10000b96c: 03000460    	<unknown>
10000b970: 03000488    	<unknown>
10000b974: 030004b0    	<unknown>
10000b978: 030004e0    	<unknown>
10000b97c: 03000510    	<unknown>
10000b980: 03000548    	<unknown>
10000b984: 03000580    	<unknown>
10000b988: 030005b8    	<unknown>
10000b98c: 030005e8    	<unknown>
10000b990: 03000610    	<unknown>
10000b994: 03000638    	<unknown>

Disassembly of section __TEXT,__eh_frame:

000000010000b998 <__eh_frame>:
10000b998: 00000010    	udf	#16
10000b99c: 00000000    	udf	#0
10000b9a0: 00527a01    	<unknown>
10000b9a4: 011e7801    	<unknown>
10000b9a8: 001f0c10    	<unknown>
10000b9ac: 00000028    	udf	#40
10000b9b0: 00000018    	udf	#24
10000b9b4: ffff61f0    	<unknown>
10000b9b8: ffffffff    	<unknown>
10000b9bc: 000000c8    	udf	#200
10000b9c0: 00000000    	udf	#0
10000b9c4: 500e4400    	adr	x0, #116866
10000b9c8: 9d019e4c    	<unknown>
10000b9cc: 94039302    	bl	0x1000f05d4 <_barn_type_f64_global+0xe0574>
10000b9d0: 96059504    	bl	0xf8170de0 <_strlen+0xf8170de0>
10000b9d4: 00000006    	udf	#6
10000b9d8: 00000034    	udf	#52
10000b9dc: 00000044    	udf	#68
10000b9e0: ffff628c    	<unknown>
10000b9e4: ffffffff    	<unknown>
10000b9e8: 000005e4    	udf	#1508
10000b9ec: 00000000    	udf	#0
10000b9f0: 900e4400    	adrp	x0, 0x11c88b000 <_barn_type_f64_global+0x6db90>
10000b9f4: 019e5801    	<unknown>
10000b9f8: 0393029d    	<unknown>
10000b9fc: 05950494    	mov	z20.s, p5/z, #36        ; =0x24
10000ba00: 07970696    	<unknown>
10000ba04: 09990898    	<unknown>
10000ba08: 0b9b0a9a    	add	w26, w20, w27, asr #2
10000ba0c: 00000c9c    	udf	#3228
10000ba10: 0000002c    	udf	#44
10000ba14: 0000007c    	udf	#124
10000ba18: ffff6838    	<unknown>
10000ba1c: ffffffff    	<unknown>
10000ba20: 00000240    	udf	#576
10000ba24: 00000000    	udf	#0
10000ba28: 700e4400    	adr	x0, #116867
10000ba2c: 9d019e50    	<unknown>
10000ba30: 94039302    	bl	0x1000f0638 <_barn_type_f64_global+0xe05d8>
10000ba34: 96059504    	bl	0xf8170e44 <_strlen+0xf8170e44>
10000ba38: 98079706    	ldrsw	x6, 0x10001ad18 <_barn_type_f64_global+0xacb8>
10000ba3c: 00000008    	udf	#8
10000ba40: 00000024    	udf	#36
10000ba44: 000000ac    	udf	#172
10000ba48: ffff6a48    	<unknown>
10000ba4c: ffffffff    	<unknown>
10000ba50: 000000a0    	udf	#160
10000ba54: 00000000    	udf	#0
10000ba58: 600e4400    	<unknown>
10000ba5c: 9d019e48    	<unknown>
10000ba60: 94039302    	bl	0x1000f0668 <_barn_type_f64_global+0xe0608>
10000ba64: 00000004    	udf	#4
10000ba68: 00000024    	udf	#36
10000ba6c: 000000d4    	udf	#212
10000ba70: ffff6ac0    	<unknown>
10000ba74: ffffffff    	<unknown>
10000ba78: 000000a0    	udf	#160
10000ba7c: 00000000    	udf	#0
10000ba80: 600e4400    	<unknown>
10000ba84: 9d019e48    	<unknown>
10000ba88: 94039302    	bl	0x1000f0690 <_barn_type_f64_global+0xe0630>
10000ba8c: 00000004    	udf	#4
10000ba90: 0000002c    	udf	#44
10000ba94: 000000fc    	udf	#252
10000ba98: ffff6b38    	<unknown>
10000ba9c: ffffffff    	<unknown>
10000baa0: 000000dc    	udf	#220
10000baa4: 00000000    	udf	#0
10000baa8: 500e4400    	adr	x0, #116866
10000baac: 9d019e4c    	<unknown>
10000bab0: 94039302    	bl	0x1000f06b8 <_barn_type_f64_global+0xe0658>
10000bab4: 96059504    	bl	0xf8170ec4 <_strlen+0xf8170ec4>
10000bab8: 00000006    	udf	#6
10000babc: 00000000    	udf	#0
10000bac0: 0000003c    	udf	#60
10000bac4: 0000012c    	udf	#300
10000bac8: ffff6be4    	<unknown>
10000bacc: ffffffff    	<unknown>
10000bad0: 00000304    	udf	#772
10000bad4: 00000000    	udf	#0
10000bad8: 600e4400    	<unknown>
10000badc: 9d019e54    	<unknown>
10000bae0: 94039302    	bl	0x1000f06e8 <_barn_type_f64_global+0xe0688>
10000bae4: 96059504    	bl	0xf8170ef4 <_strlen+0xf8170ef4>
10000bae8: 98079706    	ldrsw	x6, 0x10001adc8 <_barn_type_f64_global+0xad68>
10000baec: 9a099908    	<unknown>
10000baf0: 9c0b9b0a    	ldr	q10, 0x100022e50 <_barn_type_f64_global+0x12df0>
10000baf4: b00e440c    	adrp	x12, 0x11c88c000 <_barn_type_f64_global+0x6dc98>
10000baf8: 00000005    	udf	#5
10000bafc: 00000000    	udf	#0
10000bb00: 0000002c    	udf	#44
10000bb04: 0000016c    	udf	#364
10000bb08: ffff6ea8    	<unknown>
10000bb0c: ffffffff    	<unknown>
10000bb10: 00000138    	udf	#312
10000bb14: 00000000    	udf	#0
10000bb18: 300e4400    	adr	x0, #116865
10000bb1c: 9d019e48    	<unknown>
10000bb20: 94039302    	bl	0x1000f0728 <_barn_type_f64_global+0xe06c8>
10000bb24: 96059504    	bl	0xf8170f34 <_strlen+0xf8170f34>
10000bb28: 800e4406    	<unknown>
10000bb2c: 00000005    	udf	#5
10000bb30: 0000002c    	udf	#44
10000bb34: 0000019c    	udf	#412
10000bb38: ffff6fb0    	<unknown>
10000bb3c: ffffffff    	<unknown>
10000bb40: 0000033c    	udf	#828
10000bb44: 00000000    	udf	#0
10000bb48: 600e4400    	<unknown>
10000bb4c: 9d019e50    	<unknown>
10000bb50: 94039302    	bl	0x1000f0758 <_barn_type_f64_global+0xe06f8>
10000bb54: 96059504    	bl	0xf8170f64 <_strlen+0xf8170f64>
10000bb58: 98079706    	ldrsw	x6, 0x10001ae38 <_barn_type_f64_global+0xadd8>
10000bb5c: 00000008    	udf	#8
10000bb60: 00000024    	udf	#36
10000bb64: 000001cc    	udf	#460
10000bb68: ffff72bc    	<unknown>
10000bb6c: ffffffff    	<unknown>
10000bb70: 00000094    	udf	#148
10000bb74: 00000000    	udf	#0
10000bb78: 300e4400    	adr	x0, #116865
10000bb7c: 9d019e48    	<unknown>
10000bb80: 94039302    	bl	0x1000f0788 <_barn_type_f64_global+0xe0728>
10000bb84: 00000004    	udf	#4
10000bb88: 00000034    	udf	#52
10000bb8c: 000001f4    	udf	#500
10000bb90: ffff7328    	<unknown>
10000bb94: ffffffff    	<unknown>
10000bb98: 0000068c    	udf	#1676
10000bb9c: 00000000    	udf	#0
10000bba0: 900e4400    	adrp	x0, 0x11c88b000 <_barn_type_f64_global+0x6dd40>
10000bba4: 019e5801    	<unknown>
10000bba8: 0393029d    	<unknown>
10000bbac: 05950494    	mov	z20.s, p5/z, #36        ; =0x24
10000bbb0: 07970696    	<unknown>
10000bbb4: 09990898    	<unknown>
10000bbb8: 0b9b0a9a    	add	w26, w20, w27, asr #2
10000bbbc: 00000c9c    	udf	#3228
10000bbc0: 0000002c    	udf	#44
10000bbc4: 0000022c    	udf	#556
10000bbc8: ffff797c    	<unknown>
10000bbcc: ffffffff    	<unknown>
10000bbd0: 00000404    	udf	#1028
10000bbd4: 00000000    	udf	#0
10000bbd8: 600e4400    	<unknown>
10000bbdc: 9d019e50    	<unknown>
10000bbe0: 94039302    	bl	0x1000f07e8 <_barn_type_f64_global+0xe0788>
10000bbe4: 96059504    	bl	0xf8170ff4 <_strlen+0xf8170ff4>
10000bbe8: 98079706    	ldrsw	x6, 0x10001aec8 <_barn_type_f64_global+0xae68>
10000bbec: 00000008    	udf	#8
10000bbf0: 0000002c    	udf	#44
10000bbf4: 0000025c    	udf	#604
10000bbf8: ffff7d50    	<unknown>
10000bbfc: ffffffff    	<unknown>
10000bc00: 0000011c    	udf	#284
10000bc04: 00000000    	udf	#0
10000bc08: 500e4400    	adr	x0, #116866
10000bc0c: 9d019e4c    	<unknown>
10000bc10: 94039302    	bl	0x1000f0818 <_barn_type_f64_global+0xe07b8>
10000bc14: 96059504    	bl	0xf8171024 <_strlen+0xf8171024>
10000bc18: 00000006    	udf	#6
10000bc1c: 00000000    	udf	#0
10000bc20: 0000003c    	udf	#60
10000bc24: 0000028c    	udf	#652
10000bc28: ffff7e3c    	<unknown>
10000bc2c: ffffffff    	<unknown>
10000bc30: 00001548    	udf	#5448
10000bc34: 00000000    	udf	#0
10000bc38: 600e4400    	<unknown>
10000bc3c: 9d019e54    	<unknown>
10000bc40: 94039302    	bl	0x1000f0848 <_barn_type_f64_global+0xe07e8>
10000bc44: 96059504    	bl	0xf8171054 <_strlen+0xf8171054>
10000bc48: 98079706    	ldrsw	x6, 0x10001af28 <_barn_type_f64_global+0xaec8>
10000bc4c: 9a099908    	<unknown>
10000bc50: 9c0b9b0a    	ldr	q10, 0x100022fb0 <_barn_type_f64_global+0x12f50>
10000bc54: e00e540c    	ld1b	{za0h.b[w14, 12]}, p5/z, [x0, x14]
10000bc58: 0e440280    	<unknown>
10000bc5c: 000281a0    	<unknown>
10000bc60: 00000024    	udf	#36
10000bc64: 000002cc    	udf	#716
10000bc68: ffff9344    	<unknown>
10000bc6c: ffffffff    	<unknown>
10000bc70: 0000087c    	udf	#2172
10000bc74: 00000000    	udf	#0
10000bc78: 200e4400    	<unknown>
10000bc7c: 9d019e44    	<unknown>
10000bc80: 94039302    	bl	0x1000f0888 <_barn_type_f64_global+0xe0828>
10000bc84: 00000004    	udf	#4
10000bc88: 00000024    	udf	#36
10000bc8c: 000002f4    	udf	#756
10000bc90: ffff9b98    	<unknown>
10000bc94: ffffffff    	<unknown>
10000bc98: 0000008c    	udf	#140
10000bc9c: 00000000    	udf	#0
10000bca0: 200e4400    	<unknown>
10000bca4: 9d019e44    	<unknown>
10000bca8: 94039302    	bl	0x1000f08b0 <_barn_type_f64_global+0xe0850>
10000bcac: 00000004    	udf	#4
10000bcb0: 00000024    	udf	#36
10000bcb4: 0000031c    	udf	#796
10000bcb8: ffff9bfc    	<unknown>
10000bcbc: ffffffff    	<unknown>
10000bcc0: 00000094    	udf	#148
10000bcc4: 00000000    	udf	#0
10000bcc8: 300e4400    	adr	x0, #116865
10000bccc: 9d019e48    	<unknown>
10000bcd0: 94039302    	bl	0x1000f08d8 <_barn_type_f64_global+0xe0878>
10000bcd4: 00000004    	udf	#4
10000bcd8: 0000003c    	udf	#60
10000bcdc: 00000344    	udf	#836
10000bce0: ffff9c68    	<unknown>
10000bce4: ffffffff    	<unknown>
10000bce8: 00002358    	udf	#9048
10000bcec: 00000000    	udf	#0
10000bcf0: a00e4400    	<unknown>
10000bcf4: 019e5c01    	<unknown>
10000bcf8: 0393029d    	<unknown>
10000bcfc: 05950494    	mov	z20.s, p5/z, #36        ; =0x24
10000bd00: 07970696    	<unknown>
10000bd04: 09990898    	<unknown>
10000bd08: 0b9b0a9a    	add	w26, w20, w27, asr #2
10000bd0c: 48050c9c    	stxrh	w5, w28, [x4]
10000bd10: 0e49050d    	fmaxnm.4h	v13, v8, v9
10000bd14: 00000000    	udf	#0
10000bd18: 00000034    	udf	#52
10000bd1c: 00000384    	udf	#900
10000bd20: ffffbf80    	<unknown>
10000bd24: ffffffff    	<unknown>
10000bd28: 00000250    	udf	#592
10000bd2c: 00000000    	udf	#0
10000bd30: 700e4400    	adr	x0, #116867
10000bd34: 9d019e54    	<unknown>
10000bd38: 94039302    	bl	0x1000f0940 <_barn_type_f64_global+0xe08e0>
10000bd3c: 96059504    	bl	0xf817114c <_strlen+0xf817114c>
10000bd40: 98079706    	ldrsw	x6, 0x10001b020 <_barn_type_f64_global+0xafc0>
10000bd44: 9a099908    	<unknown>
10000bd48: 0000000a    	udf	#10
10000bd4c: 00000000    	udf	#0
10000bd50: 0000002c    	udf	#44
10000bd54: 000003bc    	udf	#956
10000bd58: ffffc198    	<unknown>
10000bd5c: ffffffff    	<unknown>
10000bd60: 00000064    	udf	#100
10000bd64: 00000000    	udf	#0
10000bd68: 600e4400    	<unknown>
10000bd6c: 9d019e4c    	<unknown>
10000bd70: 94039302    	bl	0x1000f0978 <_barn_type_f64_global+0xe0918>
10000bd74: 96059504    	bl	0xf8171184 <_strlen+0xf8171184>
10000bd78: 00000006    	udf	#6
10000bd7c: 00000000    	udf	#0
10000bd80: 00000024    	udf	#36
10000bd84: 000003ec    	udf	#1004
10000bd88: ffffc1cc    	<unknown>
10000bd8c: ffffffff    	<unknown>
10000bd90: 00000040    	udf	#64
10000bd94: 00000000    	udf	#0
10000bd98: 400e4400    	<unknown>
10000bd9c: 9d019e48    	<unknown>
10000bda0: 94039302    	bl	0x1000f09a8 <_barn_type_f64_global+0xe0948>
10000bda4: 00000004    	udf	#4
10000bda8: 00000024    	udf	#36
10000bdac: 00000414    	udf	#1044
10000bdb0: ffffc1e4    	<unknown>
10000bdb4: ffffffff    	<unknown>
10000bdb8: 000001a0    	udf	#416
10000bdbc: 00000000    	udf	#0
10000bdc0: 300e4400    	adr	x0, #116865
10000bdc4: 9d019e48    	<unknown>
10000bdc8: 94039302    	bl	0x1000f09d0 <_barn_type_f64_global+0xe0970>
10000bdcc: 00000004    	udf	#4
10000bdd0: 00000024    	udf	#36
10000bdd4: 0000043c    	udf	#1084
10000bdd8: ffffc35c    	<unknown>
10000bddc: ffffffff    	<unknown>
10000bde0: 00000064    	udf	#100
10000bde4: 00000000    	udf	#0
10000bde8: 300e4400    	adr	x0, #116865
10000bdec: 9d019e44    	<unknown>
10000bdf0: 00000002    	udf	#2
10000bdf4: 00000000    	udf	#0
10000bdf8: 00000024    	udf	#36
10000bdfc: 00000464    	udf	#1124
10000be00: ffffc3d4    	<unknown>
10000be04: ffffffff    	<unknown>
10000be08: 000000d4    	udf	#212
10000be0c: 00000000    	udf	#0
10000be10: 200e4400    	<unknown>
10000be14: 9d019e44    	<unknown>
10000be18: 00000002    	udf	#2
10000be1c: 00000000    	udf	#0
10000be20: 00000024    	udf	#36
10000be24: 0000048c    	udf	#1164
10000be28: ffffc480    	<unknown>
10000be2c: ffffffff    	<unknown>
10000be30: 00000150    	udf	#336
10000be34: 00000000    	udf	#0
10000be38: 200e4400    	<unknown>
10000be3c: 9d019e44    	<unknown>
10000be40: 94039302    	bl	0x1000f0a48 <_barn_type_f64_global+0xe09e8>
10000be44: 00000004    	udf	#4
10000be48: 0000002c    	udf	#44
10000be4c: 000004b4    	udf	#1204
10000be50: ffffc5a8    	<unknown>
10000be54: ffffffff    	<unknown>
10000be58: 000000e0    	udf	#224
10000be5c: 00000000    	udf	#0
10000be60: 500e4400    	adr	x0, #116866
10000be64: 9d019e4c    	<unknown>
10000be68: 94039302    	bl	0x1000f0a70 <_barn_type_f64_global+0xe0a10>
10000be6c: 96059504    	bl	0xf817127c <_strlen+0xf817127c>
10000be70: 00000006    	udf	#6
10000be74: 00000000    	udf	#0
10000be78: 0000002c    	udf	#44
10000be7c: 000004e4    	udf	#1252
10000be80: ffffc658    	<unknown>
10000be84: ffffffff    	<unknown>
10000be88: 000000c8    	udf	#200
10000be8c: 00000000    	udf	#0
10000be90: 600e4400    	<unknown>
10000be94: 9d019e50    	<unknown>
10000be98: 94039302    	bl	0x1000f0aa0 <_barn_type_f64_global+0xe0a40>
10000be9c: 96059504    	bl	0xf81712ac <_strlen+0xf81712ac>
10000bea0: 98079706    	ldrsw	x6, 0x10001b180 <_barn_type_f64_global+0xb120>
10000bea4: 00000008    	udf	#8
10000bea8: 00000034    	udf	#52
10000beac: 00000514    	udf	#1300
10000beb0: ffffc6f0    	<unknown>
10000beb4: ffffffff    	<unknown>
10000beb8: 000000d4    	udf	#212
10000bebc: 00000000    	udf	#0
10000bec0: 700e4400    	adr	x0, #116867
10000bec4: 9d019e54    	<unknown>
10000bec8: 94039302    	bl	0x1000f0ad0 <_barn_type_f64_global+0xe0a70>
10000becc: 96059504    	bl	0xf81712dc <_strlen+0xf81712dc>
10000bed0: 98079706    	ldrsw	x6, 0x10001b1b0 <_barn_type_f64_global+0xb150>
10000bed4: 9a099908    	<unknown>
10000bed8: 0000000a    	udf	#10
10000bedc: 00000000    	udf	#0
10000bee0: 00000034    	udf	#52
10000bee4: 0000054c    	udf	#1356
10000bee8: ffffc78c    	<unknown>
10000beec: ffffffff    	<unknown>
10000bef0: 0000043c    	udf	#1084
10000bef4: 00000000    	udf	#0
10000bef8: 700e4400    	adr	x0, #116867
10000befc: 9d019e54    	<unknown>
10000bf00: 94039302    	bl	0x1000f0b08 <_barn_type_f64_global+0xe0aa8>
10000bf04: 96059504    	bl	0xf8171314 <_strlen+0xf8171314>
10000bf08: 98079706    	ldrsw	x6, 0x10001b1e8 <_barn_type_f64_global+0xb188>
10000bf0c: 9a099908    	<unknown>
10000bf10: 0000000a    	udf	#10
10000bf14: 00000000    	udf	#0
10000bf18: 00000034    	udf	#52
10000bf1c: 00000584    	udf	#1412
10000bf20: ffffcb90    	<unknown>
10000bf24: ffffffff    	<unknown>
10000bf28: 00000134    	udf	#308
10000bf2c: 00000000    	udf	#0
10000bf30: 600e4400    	<unknown>
10000bf34: 9d019e54    	<unknown>
10000bf38: 94039302    	bl	0x1000f0b40 <_barn_type_f64_global+0xe0ae0>
10000bf3c: 96059504    	bl	0xf817134c <_strlen+0xf817134c>
10000bf40: 98079706    	ldrsw	x6, 0x10001b220 <_barn_type_f64_global+0xb1c0>
10000bf44: 9a099908    	<unknown>
10000bf48: 0000000a    	udf	#10
10000bf4c: 00000000    	udf	#0
10000bf50: 0000002c    	udf	#44
10000bf54: 000005bc    	udf	#1468
10000bf58: ffffcd98    	<unknown>
10000bf5c: ffffffff    	<unknown>
10000bf60: 00000264    	udf	#612
10000bf64: 00000000    	udf	#0
10000bf68: 600e4400    	<unknown>
10000bf6c: 9d019e50    	<unknown>
10000bf70: 94039302    	bl	0x1000f0b78 <_barn_type_f64_global+0xe0b18>
10000bf74: 96059504    	bl	0xf8171384 <_strlen+0xf8171384>
10000bf78: 98079706    	ldrsw	x6, 0x10001b258 <_barn_type_f64_global+0xb1f8>
10000bf7c: 00000008    	udf	#8
10000bf80: 00000024    	udf	#36
10000bf84: 000005ec    	udf	#1516
10000bf88: ffffcfcc    	<unknown>
10000bf8c: ffffffff    	<unknown>
10000bf90: 000002b8    	udf	#696
10000bf94: 00000000    	udf	#0
10000bf98: 200e4400    	<unknown>
10000bf9c: 9d019e44    	<unknown>
10000bfa0: 94039302    	bl	0x1000f0ba8 <_barn_type_f64_global+0xe0b48>
10000bfa4: 00000004    	udf	#4
10000bfa8: 00000024    	udf	#36
10000bfac: 00000614    	udf	#1556
10000bfb0: ffffd25c    	<unknown>
10000bfb4: ffffffff    	<unknown>
10000bfb8: 00000070    	udf	#112
10000bfbc: 00000000    	udf	#0
10000bfc0: 300e4400    	adr	x0, #116865
10000bfc4: 9d019e44    	<unknown>
10000bfc8: 00000002    	udf	#2
10000bfcc: 00000000    	udf	#0
10000bfd0: 0000002c    	udf	#44
10000bfd4: 0000063c    	udf	#1596
10000bfd8: ffffd2a4    	<unknown>
10000bfdc: ffffffff    	<unknown>
10000bfe0: 000000d0    	udf	#208
10000bfe4: 00000000    	udf	#0
10000bfe8: 400e4400    	<unknown>
10000bfec: 9d019e4c    	<unknown>
10000bff0: 94039302    	bl	0x1000f0bf8 <_barn_type_f64_global+0xe0b98>
10000bff4: 96059504    	bl	0xf8171404 <_strlen+0xf8171404>
10000bff8: 00000006    	udf	#6
10000bffc: 00000000    	udf	#0

Disassembly of section __DATA_CONST,__got:

000000010000c000 <__got>:
10000c000: 00000000    	udf	#0
10000c004: 80100000    	<unknown>
10000c008: 00000001    	udf	#1
10000c00c: 80100000    	<unknown>
10000c010: 00000002    	udf	#2
10000c014: 80100000    	<unknown>
10000c018: 00000003    	udf	#3
10000c01c: 80100000    	<unknown>
10000c020: 00000004    	udf	#4
10000c024: 80100000    	<unknown>
10000c028: 00000005    	udf	#5
10000c02c: 80100000    	<unknown>
10000c030: 00000006    	udf	#6
10000c034: 80100000    	<unknown>
10000c038: 00000007    	udf	#7
10000c03c: 80100000    	<unknown>
10000c040: 00000008    	udf	#8
10000c044: 80100000    	<unknown>
10000c048: 00000009    	udf	#9
10000c04c: 80100000    	<unknown>
10000c050: 0000000a    	udf	#10
10000c054: 80100000    	<unknown>
10000c058: 0000000b    	udf	#11
10000c05c: 80100000    	<unknown>
10000c060: 0000000c    	udf	#12
10000c064: 80100000    	<unknown>
10000c068: 0000000d    	udf	#13
10000c06c: 80100000    	<unknown>
10000c070: 0000000e    	udf	#14
10000c074: 80100000    	<unknown>
10000c078: 0000000f    	udf	#15
10000c07c: 80100000    	<unknown>
10000c080: 00000010    	udf	#16
10000c084: 80100000    	<unknown>
10000c088: 00000011    	udf	#17
10000c08c: 80100000    	<unknown>
10000c090: 00000012    	udf	#18
10000c094: 80100000    	<unknown>
10000c098: 00000013    	udf	#19
10000c09c: 80100000    	<unknown>
10000c0a0: 00000014    	udf	#20
10000c0a4: 80100000    	<unknown>
10000c0a8: 00000015    	udf	#21
10000c0ac: 80100000    	<unknown>
10000c0b0: 00000016    	udf	#22
10000c0b4: 80100000    	<unknown>
10000c0b8: 00000017    	udf	#23
10000c0bc: 80100000    	<unknown>

Disassembly of section __DATA_CONST,__const:

000000010000c0c0 <__const>:
10000c0c0: 0000aa3d    	udf	#43581
10000c0c4: 00100000    	<unknown>
10000c0c8: 0000aa48    	udf	#43592
10000c0cc: 00100000    	<unknown>
10000c0d0: 0000aa4d    	udf	#43597
10000c0d4: 00100000    	<unknown>
10000c0d8: 0000aa52    	udf	#43602
10000c0dc: 00100000    	<unknown>
10000c0e0: 00009a93    	udf	#39571
10000c0e4: 00100000    	<unknown>
10000c0e8: 00009aa1    	udf	#39585
10000c0ec: 00100000    	<unknown>
10000c0f0: 00009ab0    	udf	#39600
10000c0f4: 00100000    	<unknown>
10000c0f8: 00009abd    	udf	#39613
10000c0fc: 00100000    	<unknown>
10000c100: 0000b63e    	udf	#46654
10000c104: 00100000    	<unknown>
10000c108: 0000b647    	udf	#46663
10000c10c: 00100000    	<unknown>
10000c110: 0000b651    	udf	#46673
10000c114: 00100000    	<unknown>
10000c118: 00009acb    	udf	#39627
10000c11c: 00100000    	<unknown>
10000c120: 00009a93    	udf	#39571
10000c124: 00100000    	<unknown>
10000c128: 00009ad1    	udf	#39633
10000c12c: 00100000    	<unknown>
10000c130: 0000b67a    	udf	#46714
10000c134: 00100000    	<unknown>
10000c138: 0000b662    	udf	#46690
10000c13c: 00100000    	<unknown>
10000c140: 0000b66c    	udf	#46700
10000c144: 00100000    	<unknown>
10000c148: 00009a93    	udf	#39571
10000c14c: 00100000    	<unknown>
10000c150: 00009ad7    	udf	#39639
10000c154: 00100000    	<unknown>

000000010000c158 <_barn_error_codes_string>:
10000c158: 00009b5a    	udf	#39770
10000c15c: 00100000    	<unknown>
10000c160: 00009b68    	udf	#39784
10000c164: 00100000    	<unknown>
10000c168: 00009b72    	udf	#39794
10000c16c: 00100000    	<unknown>
10000c170: 00009b7e    	udf	#39806
10000c174: 00100000    	<unknown>
10000c178: 00009b8a    	udf	#39818
10000c17c: 00100000    	<unknown>
10000c180: 00009b99    	udf	#39833
10000c184: 00100000    	<unknown>
10000c188: 00009ba3    	udf	#39843
10000c18c: 00100000    	<unknown>
10000c190: 00009bb0    	udf	#39856
10000c194: 00100000    	<unknown>
10000c198: 00009bbe    	udf	#39870
10000c19c: 00100000    	<unknown>
10000c1a0: 00009bcc    	udf	#39884
10000c1a4: 00100000    	<unknown>
10000c1a8: 00009bdb    	udf	#39899
10000c1ac: 00100000    	<unknown>
10000c1b0: 0000ae38    	udf	#44600
10000c1b4: 00100000    	<unknown>
10000c1b8: 0000ae4c    	udf	#44620
10000c1bc: 00100000    	<unknown>
10000c1c0: 0000ae5b    	udf	#44635
10000c1c4: 00100000    	<unknown>
10000c1c8: 0000ae73    	udf	#44659
10000c1cc: 00100000    	<unknown>
10000c1d0: 0000ae68    	udf	#44648
10000c1d4: 00100000    	<unknown>
10000c1d8: 0000b20c    	udf	#45580
10000c1dc: 00100000    	<unknown>
10000c1e0: 0000b22f    	udf	#45615
10000c1e4: 00100000    	<unknown>
10000c1e8: 0000b204    	udf	#45572
10000c1ec: 00100000    	<unknown>
10000c1f0: 0000b233    	udf	#45619
10000c1f4: 00100000    	<unknown>
10000c1f8: 0000b237    	udf	#45623
10000c1fc: 00100000    	<unknown>
10000c200: 0000b23c    	udf	#45628
10000c204: 00100000    	<unknown>
10000c208: 0000b242    	udf	#45634
10000c20c: 00100000    	<unknown>
10000c210: 0000b249    	udf	#45641
10000c214: 00100000    	<unknown>
10000c218: 0000b254    	udf	#45652
10000c21c: 00100000    	<unknown>
10000c220: 0000b259    	udf	#45657
10000c224: 00100000    	<unknown>
10000c228: 0000b25f    	udf	#45663
10000c22c: 00100000    	<unknown>
10000c230: 0000b263    	udf	#45667
10000c234: 00100000    	<unknown>
10000c238: 0000b30d    	udf	#45837
10000c23c: 00100000    	<unknown>
10000c240: 0000b286    	udf	#45702
10000c244: 00100000    	<unknown>
10000c248: 0000b267    	udf	#45671
10000c24c: 00100000    	<unknown>
10000c250: 0000b26f    	udf	#45679
10000c254: 00100000    	<unknown>
10000c258: 0000b278    	udf	#45688
10000c25c: 00100000    	<unknown>
10000c260: 0000b27f    	udf	#45695
10000c264: 00100000    	<unknown>
10000c268: 0000b211    	udf	#45585
10000c26c: 00100000    	<unknown>
10000c270: 0000b220    	udf	#45600
10000c274: 00100000    	<unknown>
10000c278: 0000b28b    	udf	#45707
10000c27c: 00100000    	<unknown>
10000c280: 0000b28e    	udf	#45710
10000c284: 00100000    	<unknown>
10000c288: 0000b292    	udf	#45714
10000c28c: 00100000    	<unknown>
10000c290: 0000b295    	udf	#45717
10000c294: 00100000    	<unknown>
10000c298: 0000b299    	udf	#45721
10000c29c: 00100000    	<unknown>
10000c2a0: 0000b29d    	udf	#45725
10000c2a4: 00100000    	<unknown>
10000c2a8: 0000b2a0    	udf	#45728
10000c2ac: 00100000    	<unknown>
10000c2b0: 0000b2a4    	udf	#45732
10000c2b4: 00100000    	<unknown>
10000c2b8: 0000b2a9    	udf	#45737
10000c2bc: 00100000    	<unknown>
10000c2c0: 0000b2b0    	udf	#45744
10000c2c4: 00100000    	<unknown>
10000c2c8: 0000b2bb    	udf	#45755
10000c2cc: 00100000    	<unknown>
10000c2d0: 0000b2c7    	udf	#45767
10000c2d4: 00100000    	<unknown>
10000c2d8: 0000b2d3    	udf	#45779
10000c2dc: 00100000    	<unknown>
10000c2e0: 0000b2e0    	udf	#45792
10000c2e4: 00100000    	<unknown>
10000c2e8: 0000b2ea    	udf	#45802
10000c2ec: 00100000    	<unknown>
10000c2f0: 0000b2f5    	udf	#45813
10000c2f4: 00100000    	<unknown>
10000c2f8: 0000b2fb    	udf	#45819
10000c2fc: 00100000    	<unknown>
10000c300: 0000b301    	udf	#45825
10000c304: 00100000    	<unknown>
10000c308: 0000b305    	udf	#45829
10000c30c: 00100000    	<unknown>
10000c310: 0000b311    	udf	#45841
10000c314: 00100000    	<unknown>
10000c318: 0000b317    	udf	#45847
10000c31c: 00100000    	<unknown>
10000c320: 0000b615    	udf	#46613
10000c324: 00100000    	<unknown>
10000c328: 0000b61d    	udf	#46621
10000c32c: 00100000    	<unknown>
10000c330: 0000b628    	udf	#46632
10000c334: 00100000    	<unknown>
10000c338: 0000b631    	udf	#46641
10000c33c: 00100000    	<unknown>
10000c340: 0000b63b    	udf	#46651
10000c344: 00100000    	<unknown>
10000c348: 0000b643    	udf	#46659
10000c34c: 00100000    	<unknown>
10000c350: 0000b64d    	udf	#46669
10000c354: 00100000    	<unknown>
10000c358: 0000b655    	udf	#46677
10000c35c: 00100000    	<unknown>
10000c360: 0000b684    	udf	#46724
10000c364: 00100000    	<unknown>
10000c368: 0000b673    	udf	#46707
10000c36c: 00100000    	<unknown>
10000c370: 0000b67a    	udf	#46714
10000c374: 00100000    	<unknown>
10000c378: 0000b65e    	udf	#46686
10000c37c: 00100000    	<unknown>
10000c380: 0000b668    	udf	#46696
10000c384: 00100000    	<unknown>
10000c388: 0000b615    	udf	#46613
10000c38c: 00100000    	<unknown>
10000c390: 0000b67f    	udf	#46719
10000c394: 00000000    	udf	#0

Disassembly of section __DATA,__bss:

0000000100010000 <_barn_type_u8_global>:
...

0000000100010008 <_barn_type_u16_global>:
...

0000000100010010 <_barn_type_u32_global>:
...

0000000100010018 <_barn_type_u64_global>:
...

0000000100010020 <_barn_type_i8_global>:
...

0000000100010028 <_barn_type_i16_global>:
...

0000000100010030 <_barn_type_i32_global>:
...

0000000100010038 <_barn_type_i64_global>:
...

0000000100010040 <_barn_type_ptr_global>:
...

0000000100010048 <_barn_type_str_global>:
...

0000000100010050 <_barn_type_bool_global>:
...

0000000100010058 <_barn_type_f32_global>:
...

0000000100010060 <_barn_type_f64_global>:
...
